Microchip MPLAB XC8 Compiler V2.10 ()

Linker command line:

-W-3 --edf=/Applications/microchip/xc8/v2.10/pic/dat/en_msgs.txt \
  -pivt0x8=08h -cs -h+dist/default/production/Monitor.X.production.sym \
  --cmf=dist/default/production/Monitor.X.production.cmf -z -Q18F46K42 \
  -o/tmp/xcoVvGYgL --defsym=__MPLAB_BUILD=1 \
  -Mdist/default/production/Monitor.X.production.map -E1 -ver=XC8 \
  --acfsm=1493 -ASTACK=0AA3h-0FFFh -pstack=STACK -ACODE=00h-0FFFFh \
  -ACONST=00h-0FFFFh -ASMALLCONST=01000h-010FFhx240 \
  -AMEDIUMCONST=01000h-0FFFFh -ACOMRAM=01h-05Fh -AABS1=00h-0FFFh \
  -ABIGRAM=01h-0FFFh -ARAM=060h-0FFh,0100h-01FFhx15 -ABANK0=060h-0FFh \
  -ABANK1=0100h-01FFh -ABANK2=0200h-02FFh -ABANK3=0300h-03FFh \
  -ABANK4=0400h-04FFh -ABANK5=0500h-05FFh -ABANK6=0600h-06FFh \
  -ABANK7=0700h-07FFh -ABANK8=0800h-08FFh -ABANK9=0900h-09FFh \
  -ABANK10=0A00h-0AFFh -ABANK11=0B00h-0BFFh -ABANK12=0C00h-0CFFh \
  -ABANK13=0D00h-0DFFh -ABANK14=0E00h-0EFFh -ABANK15=0F00h-0FFFh \
  -ASFR=03800h-038FFhx7,03F00h-03F5Fh,03F60h-03FFFh -preset_vec=00h \
  -ppowerup=CODE,init -pramtop=01000h -psmallconst=SMALLCONST \
  -pmediumconst=MEDIUMCONST -pconst=CONST -AFARRAM=00h-00h \
  -ACONFIG=0300000h-0300009h -pconfig=CONFIG -AIDLOC=0200000h-020000Fh \
  -pidloc=IDLOC -AEEDATA=0310000h-03103FFh -peeprom_data=EEDATA \
  -prdata=COMRAM,nvrram=COMRAM,nvbit=COMRAM,rbss=COMRAM,rbit=COMRAM \
  -pfarbss=FARRAM,fardata=FARRAM,nvFARRAM=FARRAM \
  -pintsave_regs=BIGRAM,bigbss=BIGRAM,bigdata=BIGRAM -pbss=RAM \
  -pidata=CODE,irdata=CODE,ibigdata=CODE,ifardata=CODE -prparam=COMRAM \
  /tmp/xc8xg5QRj.o dist/default/production/Monitor.X.production.o 

Object code version is 3.11

Machine type is 18F46K42

Call graph: (short form)




                Name                               Link     Load   Length Selector   Space Scale
/tmp/xc8xg5QRj.o
                init                                 1A       1A        4        4       0
                reset_vec                             0        0        4        0       0
                idloc                            200000   200000       10   200000       0
                config                           300000   300000        A   300000       0
dist/default/production/Monitor.X.production.o
                mediumconst                        FC56     FC56      3AA     7E2B       0
                ivt0x8                                8        8       12        4       0
                text382                            A058     A058       16     4F76       0
                text381                            A394     A394        E     4F76       0
                text380                            A62E     A62E        6     4F76       0
                text379                            A386     A386        E     4F76       0
                text378                            8726     8726       6C     2576       0
                text377                            A18C     A18C       10     4F76       0
                text376                            99A6     99A6       2E     2576       0
                text375                            8492     8492       70     2576       0
                text374                            979C     979C       34     2576       0
                text373                            922A     922A       44     2576       0
                text372                            56D2     56D2      170     2576       0
                text371                            8D3C     8D3C       56     2576       0
                text370                            A466     A466        A     4F76       0
                text369                            744A     744A       AE     2576       0
                text368                            94A2     94A2       3E     2576       0
                text367                            901E     901E       50     2576       0
                text366                            701E     701E       B6     2576       0
                text365                            8AC4     8AC4       62     2576       0
                text364                            5B08     5B08      158     2576       0
                text363                            614C     614C      134     2576       0
                text362                            9464     9464       3E     2576       0
                text361                            3428     3428      2B2        4       0
                text360                            53EA     53EA      178     2576       0
                text359                            9768     9768       34     2576       0
                text358                            9734     9734       34     2576       0
                text357                            9700     9700       34     2576       0
                text356                            8EDC     8EDC       52     2576       0
                text355                            3988     3988      282        4       0
                text354                            12AE     12AE      5EC        4       0
                text353                            8792     8792       6A     2576       0
                text352                            9BD0     9BD0       26     2576       0
                text351                            6018     6018      134     2576       0
                text350                            A6B8     A6B8        2     4F76       0
                text349                            9CAA     9CAA       24     2576       0
                text348                            A590     A590        8     4F76       0
                text347                            9BAA     9BAA       26     2576       0
                text346                            9D34     9D34       22     2576       0
                text345                            A6A4     A6A4        4     4F76       0
                text344                            A6A0     A6A0        4     4F76       0
                text343                            A378     A378        E     4F76       0
                text342                            A628     A628        6     4F76       0
                text341                            A622     A622        6     4F76       0
                text340                            910A     910A       4A     2576       0
                text339                            A45C     A45C        A     4F76       0
                text338                            9E36     9E36       20     2576       0
                text337                            A61C     A61C        6     4F76       0
                text336                            A452     A452        A     4F76       0
                text335                            A616     A616        6     4F76       0
                text334                            A588     A588        8     4F76       0
                text333                            A580     A580        8     4F76       0
                text332                            A578     A578        8     4F76       0
                text331                            A610     A610        6     4F76       0
                text330                            A60A     A60A        6     4F76       0
                text329                            A604     A604        6     4F76       0
                text328                            A570     A570        8     4F76       0
                text327                            A568     A568        8     4F76       0
                text326                            A560     A560        8     4F76       0
                text325                            A042     A042       16     4F76       0
                text324                            A02C     A02C       16     4F76       0
                text323                            A558     A558        8     4F76       0
                text322                            A550     A550        8     4F76       0
                text321                            A016     A016       16     4F76       0
                text320                            A000     A000       16     4F76       0
                text319                            A548     A548        8     4F76       0
                text318                            A5FE     A5FE        6     4F76       0
                text317                            A540     A540        8     4F76       0
                text316                            90BC     90BC       4E     2576       0
                text315                            A538     A538        8     4F76       0
                text314                            A3F6     A3F6        C     4F76       0
                text313                            951C     951C       3A     2576       0
                text312                            8FCE     8FCE       50     2576       0
                text311                            A36A     A36A        E     4F76       0
                text310                            A5F8     A5F8        6     4F76       0
                text309                            7FC2     7FC2       88     2576       0
                text308                            9A78     9A78       28     2576       0
                text307                            50F6     50F6      17C     2576       0
                text306                            9B84     9B84       26     2576       0
                text305                            A35C     A35C        E     4F76       0
                text304                            9B5E     9B5E       26     2576       0
                text303                            9B38     9B38       26     2576       0
                text302                            A3EA     A3EA        C     4F76       0
                text301                            A34E     A34E        E     4F76       0
                text300                            A3DE     A3DE        C     4F76       0
                text299                            A340     A340        E     4F76       0
                text298                            A332     A332        E     4F76       0
                text297                            833A     833A       74     2576       0
                text296                            8E8A     8E8A       52     2576       0
                text295                            1E6C     1E6C      3CC        4       0
                text294                            A10A     A10A       12     4F76       0
                text293                            A17C     A17C       10     4F76       0
                text292                            A0F8     A0F8       12     4F76       0
                text291                            A530     A530        8     4F76       0
                text290                            A324     A324        E     4F76       0
                text289                            6C3C     6C3C       D4     2576       0
                text288                            6DDC     6DDC       CA     2576       0
                text287                            A448     A448        A     4F76       0
                text286                            A528     A528        8     4F76       0
                text285                            A43E     A43E        A     4F76       0
                text284                            A434     A434        A     4F76       0
                text283                            A520     A520        8     4F76       0
                text282                            A518     A518        8     4F76       0
                text281                            4330     4330      24C        4       0
                text280                            8998     8998       66     2576       0
                text279                            7646     7646       A6     2576       0
                text278                            8B84     8B84       5E     2576       0
                text277                            4AEC     4AEC      186     2576       0
                text276                            A69C     A69C        4     4F76       0
                text275                            A698     A698        4     4F76       0
                text274                            A316     A316        E     4F76       0
                text273                            6280     6280      126     2576       0
                text272                            9978     9978       2E     2576       0
                text271                            3E88     3E88      25A        4       0
                text270                            8CE6     8CE6       56     2576       0
                text269                            9E16     9E16       20     2576       0
                text268                            8864     8864       68     2576       0
                text267                            89FE     89FE       64     2576       0
                text266                            96CC     96CC       34     2576       0
                text265                            962E     962E       36     2576       0
                text264                            A5F2     A5F2        6     4F76       0
                text263                            9EB0     9EB0       1E     2576       0
                text262                            9E92     9E92       1E     2576       0
                text261                            A510     A510        8     4F76       0
                text260                            9DF6     9DF6       20     2576       0
                text259                            9DD6     9DD6       20     2576       0
                text258                            A508     A508        8     4F76       0
                text257                            A500     A500        8     4F76       0
                text256                            A4F8     A4F8        8     4F76       0
                text255                            A5EC     A5EC        6     4F76       0
                text254                            7EB0     7EB0       8A     2576       0
                text253                            8C90     8C90       56     2576       0
                text252                            75A0     75A0       A6     2576       0
                text251                            9A50     9A50       28     2576       0
                text250                            9426     9426       3E     2576       0
                text249                            7AA0     7AA0       9A     2576       0
                text248                            864C     864C       6E     2576       0
                text247                            A6B6     A6B6        2     4F76       0
                text246                              1E       1E     1290        4       0
                text245                            9D12     9D12       22     2576       0
                text244                            A5E6     A5E6        6     4F76       0
                text243                            7B3A     7B3A       98     2576       0
                text242                            72EA     72EA       B2     2576       0
                text241                            5DA2     5DA2      142     2576       0
                text240                            A694     A694        4     4F76       0
                text239                            A690     A690        4     4F76       0
                text238                            66D4     66D4      100     2576       0
                text237                            A16C     A16C       10     4F76       0
                text236                            A68C     A68C        4     4F76       0
                text235                            A15C     A15C       10     4F76       0
                text234                            994A     994A       2E     2576       0
                text233                            476E     476E      1EE        4       0
                text232                            A6B4     A6B4        2     4F76       0
                text231                            65D0     65D0      104     2576       0
                text230                            9C86     9C86       24     2576       0
                text229                            9802     9802       32     2576       0
                text228                            9EEC     9EEC       1C     4F76       0
                text227                            A5E0     A5E0        6     4F76       0
                text226                            A42A     A42A        A     4F76       0
                text225                            A308     A308        E     4F76       0
                text224                            A688     A688        4     4F76       0
                text223                            25F6     25F6      3AA        4       0
                text222                            A6B2     A6B2        2     4F76       0
                text221                            A5DA     A5DA        6     4F76       0
                text220                            991C     991C       2E     2576       0
                text219                            9CF0     9CF0       22     2576       0
                text218                            A6B0     A6B0        2     4F76       0
                text217                            87FC     87FC       68     2576       0
                text216                            9C62     9C62       24     2576       0
                text215                            97D0     97D0       32     2576       0
                text214                            A6AE     A6AE        2     4F76       0
                text213                            804A     804A       86     2576       0
                text212                            9CCE     9CCE       22     2576       0
                text211                            9C3E     9C3E       24     2576       0
                text210                            A5D4     A5D4        6     4F76       0
                text209                            A6AC     A6AC        2     4F76       0
                text208                            A6AA     A6AA        2     4F76       0
                text207                            7832     7832       A0     2576       0
                text206                            919C     919C       48     2576       0
                text205                            67D4     67D4       F4     2576       0
                text204                            9DB6     9DB6       20     2576       0
                text203                            9D96     9D96       20     2576       0
                text202                            94E0     94E0       3C     2576       0
                text201                            8F7E     8F7E       50     2576       0
                text200                            A2FA     A2FA        E     4F76       0
                text199                            A5CE     A5CE        6     4F76       0
                text198                            7F3A     7F3A       88     2576       0
                text197                            98EE     98EE       2E     2576       0
                text196                            4F7A     4F7A      17C     2576       0
                text195                            9B12     9B12       26     2576       0
                text194                            A2EC     A2EC        E     4F76       0
                text193                            9AEC     9AEC       26     2576       0
                text192                            9AC6     9AC6       26     2576       0
                text191                            A3D2     A3D2        C     4F76       0
                text190                            A2DE     A2DE        E     4F76       0
                text189                            A0D2     A0D2       14     4F76       0
                text188                            A0BE     A0BE       14     4F76       0
                text187                            A2D0     A2D0        E     4F76       0
                text186                            82C6     82C6       74     2576       0
                text185                            98C0     98C0       2E     2576       0
                text184                            95F8     95F8       36     2576       0
                text183                            91E4     91E4       46     2576       0
                text182                            5562     5562      170     2576       0
                text181                            8C3A     8C3A       56     2576       0
                text180                            A3C6     A3C6        C     4F76       0
                text179                            6F66     6F66       B8     2576       0
                text178                            93E8     93E8       3E     2576       0
                text177                            8D92     8D92       54     2576       0
                text176                            7238     7238       B2     2576       0
                text175                            8A62     8A62       62     2576       0
                text174                            59B0     59B0      158     2576       0
                text173                            5EE4     5EE4      134     2576       0
                text172                            93AA     93AA       3E     2576       0
                text171                            36DA     36DA      2AE        4       0
                text170                            5272     5272      178     2576       0
                text169                            95C2     95C2       36     2576       0
                text168                            958C     958C       36     2576       0
                text167                            9556     9556       36     2576       0
                text166                            8E38     8E38       52     2576       0
                text165                            3C0A     3C0A      27E        4       0
                text164                            189A     189A      5D2        4       0
                text163                            8420     8420       72     2576       0
                text162                            8BE2     8BE2       58     2576       0
                text161                            2238     2238      3BE        4       0
                text160                            7A06     7A06       9A     2576       0
                text159                            7186     7186       B2     2576       0
                text158                            5C60     5C60      142     2576       0
                text157                            9A28     9A28       28     2576       0
                text156                            A5C8     A5C8        6     4F76       0
                text155                            A5C2     A5C2        6     4F76       0
                text154                            A4F0     A4F0        8     4F76       0
                text153                            A5BC     A5BC        6     4F76       0
                text152                            8932     8932       66     2576       0
                text151                            6B68     6B68       D4     2576       0
                text150                            8B26     8B26       5E     2576       0
                text149                            796C     796C       9A     2576       0
                text148                            A5B6     A5B6        6     4F76       0
                text147                            A5B0     A5B0        6     4F76       0
                text146                            A4E8     A4E8        8     4F76       0
                text145                            A5AA     A5AA        6     4F76       0
                text144                            A4E0     A4E0        8     4F76       0
                text143                            A14C     A14C       10     4F76       0
                text142                            A684     A684        4     4F76       0
                text141                            A13C     A13C       10     4F76       0
                text140                            A4D8     A4D8        8     4F76       0
                text139                            9E74     9E74       1E     2576       0
                text138                            A4D0     A4D0        8     4F76       0
                text137                            A4C8     A4C8        8     4F76       0
                text136                            A3BA     A3BA        C     4F76       0
                text135                            A2C2     A2C2        E     4F76       0
                text134                            A680     A680        4     4F76       0
                text133                            99FE     99FE       2A     2576       0
                text132                            29A0     29A0      3A8        4       0
                text131                            9F8A     9F8A       1A     4F76       0
                text130                            A420     A420        A     4F76       0
                text129                            936C     936C       3E     2576       0
                text128                            A5A4     A5A4        6     4F76       0
                text127                            A4C0     A4C0        8     4F76       0
                text126                            85DE     85DE       6E     2576       0
                text125                            A2B4     A2B4        E     4F76       0
                text124                            9698     9698       34     2576       0
                text123                            A67C     A67C        4     4F76       0
                text122                            69AC     69AC       E4     2576       0
                text121                            6A90     6A90       D8     2576       0
                text120                            A0AA     A0AA       14     4F76       0
                text119                            A678     A678        4     4F76       0
                text118                            8152     8152       82     2576       0
                text117                            A674     A674        4     4F76       0
                text116                            A670     A670        4     4F76       0
                text115                            A66C     A66C        4     4F76       0
                text114                            A668     A668        4     4F76       0
                text113                            9F70     9F70       1A     4F76       0
                text112                            9F56     9F56       1A     4F76       0
                text111                            9F3C     9F3C       1A     4F76       0
                text110                            9F22     9F22       1A     4F76       0
                text109                            A664     A664        4     4F76       0
                text108                            A660     A660        4     4F76       0
                text107                            A65C     A65C        4     4F76       0
                text106                            A658     A658        4     4F76       0
                text105                            A654     A654        4     4F76       0
                text104                            4DF6     4DF6      184     2576       0
                text103                            A2A6     A2A6        E     4F76       0
                text102                            9834     9834       30     2576       0
                text101                            A298     A298        E     4F76       0
                text100                            A650     A650        4     4F76       0
                text99                             81D4     81D4       7E     2576       0
                text98                             A28A     A28A        E     4F76       0
                text97                             A64C     A64C        4     4F76       0
                text96                             99D4     99D4       2A     2576       0
                text95                             7CFE     7CFE       96     2576       0
                text94                             7E24     7E24       8C     2576       0
                text93                             9FEA     9FEA       16     4F76       0
                text92                             A416     A416        A     4F76       0
                text91                             A27C     A27C        E     4F76       0
                text90                             A26E     A26E        E     4F76       0
                text89                             A260     A260        E     4F76       0
                text88                             A252     A252        E     4F76       0
                text87                             A3AE     A3AE        C     4F76       0
                text86                             A12C     A12C       10     4F76       0
                text85                             A244     A244        E     4F76       0
                text84                             A236     A236        E     4F76       0
                text83                             88CC     88CC       66     2576       0
                text82                             A228     A228        E     4F76       0
                text81                             A21A     A21A        E     4F76       0
                text80                             A648     A648        4     4F76       0
                text79                             A59E     A59E        6     4F76       0
                text78                             92B0     92B0       40     2576       0
                text77                             A4B8     A4B8        8     4F76       0
                text76                             7C68     7C68       96     2576       0
                text75                             7790     7790       A2     2576       0
                text74                             7BD2     7BD2       96     2576       0
                text73                             9D76     9D76       20     2576       0
                text72                             932E     932E       3E     2576       0
                text71                             9AA0     9AA0       26     2576       0
                text70                             74F8     74F8       A8     2576       0
                text69                             A6A8     A6A8        2     4F76       0
                text68                             A4B0     A4B0        8     4F76       0
                text67                             A644     A644        4     4F76       0
                text66                             64C8     64C8      108     2576       0
                text65                             7D94     7D94       90     2576       0
                text64                             906E     906E       4E     2576       0
                text63                             68C8     68C8       E4     2576       0
                text62                             A3A2     A3A2        C     4F76       0
                text61                             A40C     A40C        A     4F76       0
                text60                             A402     A402        A     4F76       0
                text59                             A4A8     A4A8        8     4F76       0
                text58                             92F0     92F0       3E     2576       0
                text57                             78D2     78D2       9A     2576       0
                text56                             8570     8570       6E     2576       0
                text55                             30C8     30C8      360        4       0
                text54                             A4A0     A4A0        8     4F76       0
                text53                             A20C     A20C        E     4F76       0
                text52                             A11C     A11C       10     4F76       0
                text51                             8252     8252       74     2576       0
                text50                             A498     A498        8     4F76       0
                text49                             9FD4     9FD4       16     4F76       0
                text48                             A096     A096       14     4F76       0
                text47                             A082     A082       14     4F76       0
                text46                             A06E     A06E       14     4F76       0
                text45                             40E2     40E2      24E        4       0
                text44                             A1FE     A1FE        E     4F76       0
                text43                             A640     A640        4     4F76       0
                text42                             83AE     83AE       72     2576       0
                text41                             A490     A490        8     4F76       0
                text40                             A488     A488        8     4F76       0
                text39                             A480     A480        8     4F76       0
                text38                             A478     A478        8     4F76       0
                text37                             457C     457C      1F2        4       0
                text36                             86BA     86BA       6C     2576       0
                text35                             9D56     9D56       20     2576       0
                text34                             A470     A470        8     4F76       0
                text33                             A0E6     A0E6       12     4F76       0
                text32                             A63C     A63C        4     4F76       0
                text31                             9FBC     9FBC       18     4F76       0
                text30                             70D4     70D4       B2     2576       0
                text29                             9C1A     9C1A       24     2576       0
                text28                             9FA4     9FA4       18     4F76       0
                text27                             9BF6     9BF6       24     2576       0
                text26                             8DE6     8DE6       52     2576       0
                text25                             9E56     9E56       1E     2576       0
                text24                             9892     9892       2E     2576       0
                text23                             8F2E     8F2E       50     2576       0
                text22                             9864     9864       2E     2576       0
                text21                             A1F0     A1F0        E     4F76       0
                text20                             A1E2     A1E2        E     4F76       0
                text19                             A1D4     A1D4        E     4F76       0
                text18                             A1C6     A1C6        E     4F76       0
                text17                             A1B8     A1B8        E     4F76       0
                text16                             6EA6     6EA6       C0     2576       0
                text15                             926E     926E       42     2576       0
                text14                             80D0     80D0       82     2576       0
                text13                             5842     5842      16E     2576       0
                text12                             76EC     76EC       A4     2576       0
                text11                             4C72     4C72      184     2576       0
                text10                             A638     A638        4     4F76       0
                text9                              A1AA     A1AA        E     4F76       0
                text8                              63A6     63A6      122     2576       0
                text7                              9664     9664       34     2576       0
                text6                              9F08     9F08       1A     4F76       0
                text5                              739C     739C       AE     2576       0
                text4                              A19C     A19C        E     4F76       0
                text3                              8502     8502       6E     2576       0
                text2                              9154     9154       48     2576       0
                text1                              A598     A598        6     4F76       0
                text0                              2D48     2D48      380        4       0
                cstackCOMRAM                          1        1       5F        1       1
                cstackBANK0                          60       60       68       60       1
                cstackBANK1                         100      100       C7      100       1
                cstackBANK2                         2F5      2F5        B      200       1
                cstackBANK3                         3F9      3F9        1      300       1
                dataBIGRAM                          914      914      18F      464       1
                bssBIGRAM                           464      464      4B0      464       1
                bssBANK4                            400      400       64      400       1
                bssBANK3                            300      300       F9      300       1
                dataBANK2                           2BC      2BC       1D      200       1
                bssBANK2                            200      200       BC      200       1
                dataBANK1                           1F8      1F8        4      100       1
                bssBANK1                            1C7      1C7       31      100       1
                bssBANK0                             C8       C8       38       60       1
                cinit                              6D10     6D10       CC     2576       0
                nvBANK2                             2D9      2D9       1C      200       1
                idataBANK2                         9ECE     9ECE       1D     2576       0
                idataBANK1                         A634     A634        4     4F76       0
                idataBIGRAM                        495C     495C      18F        4       0

TOTAL           Name                               Link     Load   Length     Space
        CLASS   STACK          

        CLASS   CODE           
                init                                 1A       1A        4         0
                reset_vec                             0        0        4         0
                ivt0x8                                8        8       12         0
                text382                            A058     A058       16         0
                text381                            A394     A394        E         0
                text380                            A62E     A62E        6         0
                text379                            A386     A386        E         0
                text378                            8726     8726       6C         0
                text377                            A18C     A18C       10         0
                text376                            99A6     99A6       2E         0
                text375                            8492     8492       70         0
                text374                            979C     979C       34         0
                text373                            922A     922A       44         0
                text372                            56D2     56D2      170         0
                text371                            8D3C     8D3C       56         0
                text370                            A466     A466        A         0
                text369                            744A     744A       AE         0
                text368                            94A2     94A2       3E         0
                text367                            901E     901E       50         0
                text366                            701E     701E       B6         0
                text365                            8AC4     8AC4       62         0
                text364                            5B08     5B08      158         0
                text363                            614C     614C      134         0
                text362                            9464     9464       3E         0
                text361                            3428     3428      2B2         0
                text360                            53EA     53EA      178         0
                text359                            9768     9768       34         0
                text358                            9734     9734       34         0
                text357                            9700     9700       34         0
                text356                            8EDC     8EDC       52         0
                text355                            3988     3988      282         0
                text354                            12AE     12AE      5EC         0
                text353                            8792     8792       6A         0
                text352                            9BD0     9BD0       26         0
                text351                            6018     6018      134         0
                text350                            A6B8     A6B8        2         0
                text349                            9CAA     9CAA       24         0
                text348                            A590     A590        8         0
                text347                            9BAA     9BAA       26         0
                text346                            9D34     9D34       22         0
                text345                            A6A4     A6A4        4         0
                text344                            A6A0     A6A0        4         0
                text343                            A378     A378        E         0
                text342                            A628     A628        6         0
                text341                            A622     A622        6         0
                text340                            910A     910A       4A         0
                text339                            A45C     A45C        A         0
                text338                            9E36     9E36       20         0
                text337                            A61C     A61C        6         0
                text336                            A452     A452        A         0
                text335                            A616     A616        6         0
                text334                            A588     A588        8         0
                text333                            A580     A580        8         0
                text332                            A578     A578        8         0
                text331                            A610     A610        6         0
                text330                            A60A     A60A        6         0
                text329                            A604     A604        6         0
                text328                            A570     A570        8         0
                text327                            A568     A568        8         0
                text326                            A560     A560        8         0
                text325                            A042     A042       16         0
                text324                            A02C     A02C       16         0
                text323                            A558     A558        8         0
                text322                            A550     A550        8         0
                text321                            A016     A016       16         0
                text320                            A000     A000       16         0
                text319                            A548     A548        8         0
                text318                            A5FE     A5FE        6         0
                text317                            A540     A540        8         0
                text316                            90BC     90BC       4E         0
                text315                            A538     A538        8         0
                text314                            A3F6     A3F6        C         0
                text313                            951C     951C       3A         0
                text312                            8FCE     8FCE       50         0
                text311                            A36A     A36A        E         0
                text310                            A5F8     A5F8        6         0
                text309                            7FC2     7FC2       88         0
                text308                            9A78     9A78       28         0
                text307                            50F6     50F6      17C         0
                text306                            9B84     9B84       26         0
                text305                            A35C     A35C        E         0
                text304                            9B5E     9B5E       26         0
                text303                            9B38     9B38       26         0
                text302                            A3EA     A3EA        C         0
                text301                            A34E     A34E        E         0
                text300                            A3DE     A3DE        C         0
                text299                            A340     A340        E         0
                text298                            A332     A332        E         0
                text297                            833A     833A       74         0
                text296                            8E8A     8E8A       52         0
                text295                            1E6C     1E6C      3CC         0
                text294                            A10A     A10A       12         0
                text293                            A17C     A17C       10         0
                text292                            A0F8     A0F8       12         0
                text291                            A530     A530        8         0
                text290                            A324     A324        E         0
                text289                            6C3C     6C3C       D4         0
                text288                            6DDC     6DDC       CA         0
                text287                            A448     A448        A         0
                text286                            A528     A528        8         0
                text285                            A43E     A43E        A         0
                text284                            A434     A434        A         0
                text283                            A520     A520        8         0
                text282                            A518     A518        8         0
                text281                            4330     4330      24C         0
                text280                            8998     8998       66         0
                text279                            7646     7646       A6         0
                text278                            8B84     8B84       5E         0
                text277                            4AEC     4AEC      186         0
                text276                            A69C     A69C        4         0
                text275                            A698     A698        4         0
                text274                            A316     A316        E         0
                text273                            6280     6280      126         0
                text272                            9978     9978       2E         0
                text271                            3E88     3E88      25A         0
                text270                            8CE6     8CE6       56         0
                text269                            9E16     9E16       20         0
                text268                            8864     8864       68         0
                text267                            89FE     89FE       64         0
                text266                            96CC     96CC       34         0
                text265                            962E     962E       36         0
                text264                            A5F2     A5F2        6         0
                text263                            9EB0     9EB0       1E         0
                text262                            9E92     9E92       1E         0
                text261                            A510     A510        8         0
                text260                            9DF6     9DF6       20         0
                text259                            9DD6     9DD6       20         0
                text258                            A508     A508        8         0
                text257                            A500     A500        8         0
                text256                            A4F8     A4F8        8         0
                text255                            A5EC     A5EC        6         0
                text254                            7EB0     7EB0       8A         0
                text253                            8C90     8C90       56         0
                text252                            75A0     75A0       A6         0
                text251                            9A50     9A50       28         0
                text250                            9426     9426       3E         0
                text249                            7AA0     7AA0       9A         0
                text248                            864C     864C       6E         0
                text247                            A6B6     A6B6        2         0
                text246                              1E       1E     1290         0
                text245                            9D12     9D12       22         0
                text244                            A5E6     A5E6        6         0
                text243                            7B3A     7B3A       98         0
                text242                            72EA     72EA       B2         0
                text241                            5DA2     5DA2      142         0
                text240                            A694     A694        4         0
                text239                            A690     A690        4         0
                text238                            66D4     66D4      100         0
                text237                            A16C     A16C       10         0
                text236                            A68C     A68C        4         0
                text235                            A15C     A15C       10         0
                text234                            994A     994A       2E         0
                text233                            476E     476E      1EE         0
                text232                            A6B4     A6B4        2         0
                text231                            65D0     65D0      104         0
                text230                            9C86     9C86       24         0
                text229                            9802     9802       32         0
                text228                            9EEC     9EEC       1C         0
                text227                            A5E0     A5E0        6         0
                text226                            A42A     A42A        A         0
                text225                            A308     A308        E         0
                text224                            A688     A688        4         0
                text223                            25F6     25F6      3AA         0
                text222                            A6B2     A6B2        2         0
                text221                            A5DA     A5DA        6         0
                text220                            991C     991C       2E         0
                text219                            9CF0     9CF0       22         0
                text218                            A6B0     A6B0        2         0
                text217                            87FC     87FC       68         0
                text216                            9C62     9C62       24         0
                text215                            97D0     97D0       32         0
                text214                            A6AE     A6AE        2         0
                text213                            804A     804A       86         0
                text212                            9CCE     9CCE       22         0
                text211                            9C3E     9C3E       24         0
                text210                            A5D4     A5D4        6         0
                text209                            A6AC     A6AC        2         0
                text208                            A6AA     A6AA        2         0
                text207                            7832     7832       A0         0
                text206                            919C     919C       48         0
                text205                            67D4     67D4       F4         0
                text204                            9DB6     9DB6       20         0
                text203                            9D96     9D96       20         0
                text202                            94E0     94E0       3C         0
                text201                            8F7E     8F7E       50         0
                text200                            A2FA     A2FA        E         0
                text199                            A5CE     A5CE        6         0
                text198                            7F3A     7F3A       88         0
                text197                            98EE     98EE       2E         0
                text196                            4F7A     4F7A      17C         0
                text195                            9B12     9B12       26         0
                text194                            A2EC     A2EC        E         0
                text193                            9AEC     9AEC       26         0
                text192                            9AC6     9AC6       26         0
                text191                            A3D2     A3D2        C         0
                text190                            A2DE     A2DE        E         0
                text189                            A0D2     A0D2       14         0
                text188                            A0BE     A0BE       14         0
                text187                            A2D0     A2D0        E         0
                text186                            82C6     82C6       74         0
                text185                            98C0     98C0       2E         0
                text184                            95F8     95F8       36         0
                text183                            91E4     91E4       46         0
                text182                            5562     5562      170         0
                text181                            8C3A     8C3A       56         0
                text180                            A3C6     A3C6        C         0
                text179                            6F66     6F66       B8         0
                text178                            93E8     93E8       3E         0
                text177                            8D92     8D92       54         0
                text176                            7238     7238       B2         0
                text175                            8A62     8A62       62         0
                text174                            59B0     59B0      158         0
                text173                            5EE4     5EE4      134         0
                text172                            93AA     93AA       3E         0
                text171                            36DA     36DA      2AE         0
                text170                            5272     5272      178         0
                text169                            95C2     95C2       36         0
                text168                            958C     958C       36         0
                text167                            9556     9556       36         0
                text166                            8E38     8E38       52         0
                text165                            3C0A     3C0A      27E         0
                text164                            189A     189A      5D2         0
                text163                            8420     8420       72         0
                text162                            8BE2     8BE2       58         0
                text161                            2238     2238      3BE         0
                text160                            7A06     7A06       9A         0
                text159                            7186     7186       B2         0
                text158                            5C60     5C60      142         0
                text157                            9A28     9A28       28         0
                text156                            A5C8     A5C8        6         0
                text155                            A5C2     A5C2        6         0
                text154                            A4F0     A4F0        8         0
                text153                            A5BC     A5BC        6         0
                text152                            8932     8932       66         0
                text151                            6B68     6B68       D4         0
                text150                            8B26     8B26       5E         0
                text149                            796C     796C       9A         0
                text148                            A5B6     A5B6        6         0
                text147                            A5B0     A5B0        6         0
                text146                            A4E8     A4E8        8         0
                text145                            A5AA     A5AA        6         0
                text144                            A4E0     A4E0        8         0
                text143                            A14C     A14C       10         0
                text142                            A684     A684        4         0
                text141                            A13C     A13C       10         0
                text140                            A4D8     A4D8        8         0
                text139                            9E74     9E74       1E         0
                text138                            A4D0     A4D0        8         0
                text137                            A4C8     A4C8        8         0
                text136                            A3BA     A3BA        C         0
                text135                            A2C2     A2C2        E         0
                text134                            A680     A680        4         0
                text133                            99FE     99FE       2A         0
                text132                            29A0     29A0      3A8         0
                text131                            9F8A     9F8A       1A         0
                text130                            A420     A420        A         0
                text129                            936C     936C       3E         0
                text128                            A5A4     A5A4        6         0
                text127                            A4C0     A4C0        8         0
                text126                            85DE     85DE       6E         0
                text125                            A2B4     A2B4        E         0
                text124                            9698     9698       34         0
                text123                            A67C     A67C        4         0
                text122                            69AC     69AC       E4         0
                text121                            6A90     6A90       D8         0
                text120                            A0AA     A0AA       14         0
                text119                            A678     A678        4         0
                text118                            8152     8152       82         0
                text117                            A674     A674        4         0
                text116                            A670     A670        4         0
                text115                            A66C     A66C        4         0
                text114                            A668     A668        4         0
                text113                            9F70     9F70       1A         0
                text112                            9F56     9F56       1A         0
                text111                            9F3C     9F3C       1A         0
                text110                            9F22     9F22       1A         0
                text109                            A664     A664        4         0
                text108                            A660     A660        4         0
                text107                            A65C     A65C        4         0
                text106                            A658     A658        4         0
                text105                            A654     A654        4         0
                text104                            4DF6     4DF6      184         0
                text103                            A2A6     A2A6        E         0
                text102                            9834     9834       30         0
                text101                            A298     A298        E         0
                text100                            A650     A650        4         0
                text99                             81D4     81D4       7E         0
                text98                             A28A     A28A        E         0
                text97                             A64C     A64C        4         0
                text96                             99D4     99D4       2A         0
                text95                             7CFE     7CFE       96         0
                text94                             7E24     7E24       8C         0
                text93                             9FEA     9FEA       16         0
                text92                             A416     A416        A         0
                text91                             A27C     A27C        E         0
                text90                             A26E     A26E        E         0
                text89                             A260     A260        E         0
                text88                             A252     A252        E         0
                text87                             A3AE     A3AE        C         0
                text86                             A12C     A12C       10         0
                text85                             A244     A244        E         0
                text84                             A236     A236        E         0
                text83                             88CC     88CC       66         0
                text82                             A228     A228        E         0
                text81                             A21A     A21A        E         0
                text80                             A648     A648        4         0
                text79                             A59E     A59E        6         0
                text78                             92B0     92B0       40         0
                text77                             A4B8     A4B8        8         0
                text76                             7C68     7C68       96         0
                text75                             7790     7790       A2         0
                text74                             7BD2     7BD2       96         0
                text73                             9D76     9D76       20         0
                text72                             932E     932E       3E         0
                text71                             9AA0     9AA0       26         0
                text70                             74F8     74F8       A8         0
                text69                             A6A8     A6A8        2         0
                text68                             A4B0     A4B0        8         0
                text67                             A644     A644        4         0
                text66                             64C8     64C8      108         0
                text65                             7D94     7D94       90         0
                text64                             906E     906E       4E         0
                text63                             68C8     68C8       E4         0
                text62                             A3A2     A3A2        C         0
                text61                             A40C     A40C        A         0
                text60                             A402     A402        A         0
                text59                             A4A8     A4A8        8         0
                text58                             92F0     92F0       3E         0
                text57                             78D2     78D2       9A         0
                text56                             8570     8570       6E         0
                text55                             30C8     30C8      360         0
                text54                             A4A0     A4A0        8         0
                text53                             A20C     A20C        E         0
                text52                             A11C     A11C       10         0
                text51                             8252     8252       74         0
                text50                             A498     A498        8         0
                text49                             9FD4     9FD4       16         0
                text48                             A096     A096       14         0
                text47                             A082     A082       14         0
                text46                             A06E     A06E       14         0
                text45                             40E2     40E2      24E         0
                text44                             A1FE     A1FE        E         0
                text43                             A640     A640        4         0
                text42                             83AE     83AE       72         0
                text41                             A490     A490        8         0
                text40                             A488     A488        8         0
                text39                             A480     A480        8         0
                text38                             A478     A478        8         0
                text37                             457C     457C      1F2         0
                text36                             86BA     86BA       6C         0
                text35                             9D56     9D56       20         0
                text34                             A470     A470        8         0
                text33                             A0E6     A0E6       12         0
                text32                             A63C     A63C        4         0
                text31                             9FBC     9FBC       18         0
                text30                             70D4     70D4       B2         0
                text29                             9C1A     9C1A       24         0
                text28                             9FA4     9FA4       18         0
                text27                             9BF6     9BF6       24         0
                text26                             8DE6     8DE6       52         0
                text25                             9E56     9E56       1E         0
                text24                             9892     9892       2E         0
                text23                             8F2E     8F2E       50         0
                text22                             9864     9864       2E         0
                text21                             A1F0     A1F0        E         0
                text20                             A1E2     A1E2        E         0
                text19                             A1D4     A1D4        E         0
                text18                             A1C6     A1C6        E         0
                text17                             A1B8     A1B8        E         0
                text16                             6EA6     6EA6       C0         0
                text15                             926E     926E       42         0
                text14                             80D0     80D0       82         0
                text13                             5842     5842      16E         0
                text12                             76EC     76EC       A4         0
                text11                             4C72     4C72      184         0
                text10                             A638     A638        4         0
                text9                              A1AA     A1AA        E         0
                text8                              63A6     63A6      122         0
                text7                              9664     9664       34         0
                text6                              9F08     9F08       1A         0
                text5                              739C     739C       AE         0
                text4                              A19C     A19C        E         0
                text3                              8502     8502       6E         0
                text2                              9154     9154       48         0
                text1                              A598     A598        6         0
                text0                              2D48     2D48      380         0
                cinit                              6D10     6D10       CC         0
                idataBANK2                         9ECE     9ECE       1D         0
                idataBANK1                         A634     A634        4         0
                idataBIGRAM                        495C     495C      18F         0

        CLASS   CONST          

        CLASS   SMALLCONST     

        CLASS   MEDIUMCONST    
                mediumconst                        FC56     FC56      3AA         0

        CLASS   COMRAM         
                cstackCOMRAM                          1        1       5F         1

        CLASS   ABS1           

        CLASS   BIGRAM         
                dataBIGRAM                          914      914      18F         1
                bssBIGRAM                           464      464      4B0         1

        CLASS   RAM            

        CLASS   BANK0          
                cstackBANK0                          60       60       68         1
                bssBANK0                             C8       C8       38         1

        CLASS   BANK1          
                cstackBANK1                         100      100       C7         1
                dataBANK1                           1F8      1F8        4         1
                bssBANK1                            1C7      1C7       31         1

        CLASS   BANK2          
                cstackBANK2                         2F5      2F5        B         1
                dataBANK2                           2BC      2BC       1D         1
                bssBANK2                            200      200       BC         1
                nvBANK2                             2D9      2D9       1C         1

        CLASS   BANK3          
                cstackBANK3                         3F9      3F9        1         1
                bssBANK3                            300      300       F9         1

        CLASS   BANK4          
                bssBANK4                            400      400       64         1

        CLASS   BANK5          

        CLASS   BANK6          

        CLASS   BANK7          

        CLASS   BANK8          

        CLASS   BANK9          

        CLASS   BANK10         

        CLASS   BANK11         

        CLASS   BANK12         

        CLASS   BANK13         

        CLASS   BANK14         

        CLASS   BANK15         

        CLASS   SFR            

        CLASS   FARRAM         

        CLASS   CONFIG         
                config                           300000   300000        A         0

        CLASS   IDLOC          
                idloc                            200000   200000       10         0

        CLASS   EEDATA         



SEGMENTS        Name                           Load    Length   Top    Selector   Space  Class

                bssBANK4                       000400  000064  000464       400       1  BANK4   
                text228                        009EEC  0007CE  00A6BA      4F76       0  CODE    
                text277                        004AEC  0053FF  009EEB      2576       0  CODE    
                bssBIGRAM                      000464  00063F  000AA3       464       1  BIGRAM  
                mediumconst                    00FC56  0003AA  010000      7E2B       0  MEDIUMCO
                idloc                          200000  000010  200010    200000       0  IDLOC   
                config                         300000  00000A  30000A    300000       0  CONFIG  
                ivt0x8                         000008  004AE3  004AEB         4       0  CODE    
                reset_vec                      000000  000004  000004         0       0  CODE    
                cstackBANK0                    000060  0000A0  000100        60       1  BANK0   
                bssBANK3                       000300  0000FA  0003FA       300       1  BANK3   
                bssBANK2                       000200  000100  000300       200       1  BANK2   
                cstackBANK1                    000100  0000FC  0001FC       100       1  BANK1   
                cstackCOMRAM                   000001  00005F  000060         1       1  COMRAM  


UNUSED ADDRESS RANGES

        Name                Unused          Largest block    Delta
        BANK1            0001FC-0001FF                4
        BANK10           000AA3-000AFF               5D
        BANK11           000B00-000BFF              100
        BANK12           000C00-000CFF              100
        BANK13           000D00-000DFF              100
        BANK14           000E00-000EFF              100
        BANK15           000F00-000FFF              100
        BANK3            0003FA-0003FF                6
        BIGRAM           0001FC-0001FF                4
                         0003FA-0003FF                6
                         000AA3-000FFF              55D
        CODE             000004-000007                4
                         004AEB-004AEB                1
                         009EEB-009EEB                1
                         00A6BA-00FC55             559C
        CONST            000004-000007                4
                         004AEB-004AEB                1
                         009EEB-009EEB                1
                         00A6BA-00FC55             559C
        EEDATA           310000-3103FF              400
        MEDIUMCONST      004AEB-004AEB                1
                         009EEB-009EEB                1
                         00A6BA-00FC55             559C
        RAM              0001FC-0001FF                4
                         0003FA-0003FF                6
                         000AA3-000FFF              100
        SFR              003800-003FFF              100
        SMALLCONST       004AEB-004AEB                1
                         009EEB-009EEB                1
                         00A6BA-00FC55              100
        STACK            000AA3-000FFF              55D

                                  Symbol Table

?_ADCC_GetConversionResult                      cstackCOMRAM 000001
?_AdcGetData                                    cstackBANK1  00010A
?_AdcSeeData                                    cstackBANK1  00010A
?_Get12V                                        cstackBANK1  00011E
?_Get5V                                         cstackBANK1  00011E
?_GetAlarmState                                 cstackBANK1  000108
?_GetBpm                                        cstackBANK1  000104
?_GetEp                                         cstackBANK1  000112
?_GetIp                                         cstackBANK1  000112
?_GetMaxPressure                                cstackBANK1  000112
?_GetPmax                                       cstackBANK1  000112
?_GetPressureV_pa                               cstackBANK1  000112
?_GetPressure_mbar02                            cstackCOMRAM 00002B
?_GetPressure_pa                                cstackBANK1  00011E
?_GetSpr                                        cstackBANK1  000104
?_GetTargetEp                                   cstackBANK1  000112
?_GetTargetIp                                   cstackBANK1  000112
?_GetTde                                        cstackBANK1  000104
?_GetTdi                                        cstackBANK1  000104
?_GetTe                                         cstackBANK1  000104
?_GetTi                                         cstackBANK1  000104
?_GetVolume                                     cstackBANK1  000104
?_HigherAlarm                                   cstackBANK1  00010A
?_See12V                                        cstackBANK1  00011E
?_See5V                                         cstackBANK1  00011E
?_SeePressureV_pa                               cstackBANK1  000112
?_SeePressure_pa                                cstackBANK1  00011E
?___aldiv                                       cstackBANK1  000110
?___aodiv                                       cstackBANK1  000104
?___aomod                                       cstackBANK1  000104
?___awdiv                                       cstackBANK1  00010A
?___awmod                                       cstackBANK1  000104
?___lldiv                                       cstackCOMRAM 000001
?___llmod                                       cstackBANK1  000104
?___lmul                                        cstackBANK1  000104
?___lwdiv                                       cstackCOMRAM 000001
?___wmul                                        cstackBANK1  000104
?_abs                                           cstackBANK1  000116
?_atoi                                          cstackBANK1  00010B
?_ctoa                                          cstackBANK1  000121
?_dtoa                                          cstackBANK1  000121
?_fputc                                         cstackBANK1  000106
?_isalpha                                       cstackBANK1  000104
?_isdigit                                       cstackBANK1  000104
?_islower                                       cstackBANK1  000104
?_isqrt                                         cstackCOMRAM 000001
?_isspace                                       cstackBANK1  000104
?_isupper                                       cstackBANK1  000104
?_pad                                           cstackBANK1  000116
?_printf                                        cstackBANK1  000171
?_sprintf                                       cstackBANK1  000171
?_stoa                                          cstackBANK1  00010F
?_strlen                                        cstackBANK1  000104
?_toupper                                       cstackBANK1  00010A
?_vfpfcnvrt                                     cstackBANK1  000148
?_vfprintf                                      cstackBANK1  000169
?_xtoa                                          cstackBANK1  000121
?i2_AdcGetData                                  cstackCOMRAM 000007
?i2_AdcSeeData                                  cstackCOMRAM 000007
?i2_GetAlarmState                               cstackCOMRAM 000005
?i2_GetBpm                                      cstackCOMRAM 000001
?i2_GetEp                                       cstackCOMRAM 00000F
?i2_GetIp                                       cstackCOMRAM 00000F
?i2_GetPmax                                     cstackCOMRAM 00000F
?i2_GetPressureV_pa                             cstackCOMRAM 00000F
?i2_GetPressure_pa                              cstackCOMRAM 00001B
?i2_GetSpr                                      cstackCOMRAM 000001
?i2_GetTargetEp                                 cstackCOMRAM 00000F
?i2_GetTargetIp                                 cstackCOMRAM 00000F
?i2_GetTde                                      cstackCOMRAM 000001
?i2_GetTdi                                      cstackCOMRAM 000001
?i2_GetTe                                       cstackCOMRAM 000001
?i2_GetTi                                       cstackCOMRAM 000001
?i2_GetVolume                                   cstackCOMRAM 000001
?i2_HigherAlarm                                 cstackCOMRAM 000007
?i2_See12V                                      cstackCOMRAM 00001B
?i2_See5V                                       cstackCOMRAM 00001B
?i2___aldiv                                     cstackCOMRAM 00000D
?i2___aodiv                                     cstackCOMRAM 000001
?i2___aomod                                     cstackCOMRAM 000001
?i2___awdiv                                     cstackCOMRAM 000007
?i2___awmod                                     cstackCOMRAM 000001
?i2___lmul                                      cstackCOMRAM 000001
?i2___wmul                                      cstackCOMRAM 000001
?i2_abs                                         cstackCOMRAM 000013
?i2_atoi                                        cstackCOMRAM 000008
?i2_ctoa                                        cstackCOMRAM 00001E
?i2_dtoa                                        cstackCOMRAM 00001E
?i2_isalpha                                     cstackCOMRAM 000001
?i2_isdigit                                     cstackCOMRAM 000001
?i2_islower                                     cstackCOMRAM 000001
?i2_isspace                                     cstackCOMRAM 000001
?i2_isupper                                     cstackCOMRAM 000001
?i2_pad                                         cstackCOMRAM 000013
?i2_printf                                      cstackBANK0  000077
?i2_sprintf                                     cstackBANK0  000077
?i2_stoa                                        cstackCOMRAM 00000C
?i2_strlen                                      cstackCOMRAM 000001
?i2_toupper                                     cstackCOMRAM 000007
?i2_vfpfcnvrt                                   cstackCOMRAM 000045
?i2_vfprintf                                    cstackCOMRAM 00004F
?i2_xtoa                                        cstackCOMRAM 00001E
ADCC_SetADTIInterruptHandler@InterruptHandler   cstackBANK1  000104
ADCC_StartConversion@channel                    cstackBANK1  000104
AdcDataReady@id                                 cstackBANK1  00010A
AdcGetData@data                                 cstackBANK1  00010C
AdcGetData@id                                   cstackBANK1  00010A
AdcHandler@cnt                                  bssBANK2     000270
AdcSeeData@data                                 cstackBANK1  00010C
AdcSeeData@id                                   cstackBANK1  00010A
AlarmCheckTask@current                          bssBANK2     000274
AlarmCheckTask@id                               cstackBANK2  0002FE
AlarmCheckTask@type                             cstackBANK2  0002FC
AlarmClear@id                                   cstackBANK1  000104
AlarmDisplay@alarm                              cstackBANK1  0001B9
AlarmDisplay@cnt                                bssBANK2     000286
AlarmDisplay@t                                  cstackBANK1  0001BB
AlarmDisplay@type                               cstackBANK1  0001B7
AlarmHandler@cnt                                bssBANK2     000272
AlarmInit@i                                     cstackBANK1  000106
AlarmSet@id                                     cstackBANK1  000104
AlarmUpdateLCD@id                               cstackBANK1  0001C0
AnyAlarm@i                                      cstackBANK1  000106
BatteryFailAlarm@bat                            cstackBANK1  000128
BatteryFailAlarm@timeBattery                    bssBANK2     000280
BatteryFailAlarm@timeBelow10                    bssBANK2     00027E
BatteryFailAlarm@timeFail                       bssBANK2     00027C
ButtonTask@cnt                                  bssBANK2     000284
BuzzerOn@period                                 cstackBANK1  000104
BuzzerSet@state                                 cstackBANK1  000185
BuzzerTask@noDetections                         bssBANK2     000282
BuzzerTest@note                                 cstackBANK1  000108
CMP1_SetIntHandler@handler                      cstackBANK1  000104
ClearVars@i                                     cstackBANK1  000104
ClearVars@i_4906                                cstackBANK1  000106
ControllerTimerHandler@cnt                      bssBANK2     00022C
ControllerTimerHandler@errors                   bssBANK2     00022E
DisplayCalibrate@off                            cstackBANK0  000095
DisplayCalibrate@offv                           cstackBANK0  000099
DisplayCalibrate@pr                             cstackBANK0  000093
DisplayCalibrate@prv                            cstackBANK0  000097
Get12V@adc                                      cstackBANK1  000124
Get12V@mv                                       cstackBANK1  000120
Get12V@v12                                      cstackBANK1  000126
Get5V@adc                                       cstackBANK1  000124
Get5V@mv                                        cstackBANK1  000120
Get5V@v12                                       cstackBANK1  000126
GetControllerBuzzerCheck@tmp                    cstackCOMRAM 000001
GetMaxPressure@temp                             cstackBANK1  000114
GetPressureV_pa@adcv                            cstackBANK1  000116
GetPressureV_pa@mv                              cstackBANK1  000118
GetPressureV_pa@p                               cstackBANK1  00011C
GetPressure_pa@adc                              cstackBANK1  000126
GetPressure_pa@mv                               cstackBANK1  00012A
GetPressure_pa@p                                cstackBANK1  000128
GetPressure_pa@p32                              cstackBANK1  000122
HighPressureAlarmLow@count                      bssBANK2     000278
HighPressureAlarmLow@max                        cstackBANK1  000117
HigherAlarm@i                                   cstackBANK1  000113
HigherAlarm@max                                 cstackBANK1  000111
HistAlarm@i                                     cstackBANK2  0002F7
I2C2_SlaveSetAddrIntHandler@handler             cstackBANK1  000104
I2C2_SlaveSetBusColIntHandler@handler           cstackBANK1  000104
I2C2_SlaveSetCounter@counter                    cstackCOMRAM 000001
I2C2_SlaveSetIsrHandler@handler                 cstackBANK1  000104
I2C2_SlaveSetReadIntHandler@handler             cstackBANK1  000104
I2C2_SlaveSetSlaveAddr@slaveAddr                cstackBANK1  000104
I2C2_SlaveSetSlaveMask@maskAddr                 cstackBANK1  000104
I2C2_SlaveSetStopIntHandler@handler             cstackBANK1  000104
I2C2_SlaveSetWrColIntHandler@handler            cstackBANK1  000104
I2C2_SlaveSetWriteIntHandler@handler            cstackBANK1  000104
IVTBASEH                                        (abs)        003FD6
IVTBASEL                                        (abs)        003FD5
IVTBASEU                                        (abs)        003FD7
LCDMessage12@str1                               cstackBANK1  000110
LCDMessage12@str2                               cstackBANK1  000112
LCDMessage1@str                                 cstackBANK1  000110
LCDMessage2@str                                 cstackBANK1  000110
LCDMessage@i                                    cstackBANK1  00010E
LCDMessage@length                               cstackBANK1  00010C
LCDMessage@str                                  cstackBANK1  000108
LCDTest@i                                       cstackBANK1  000138
LCDTest@j                                       cstackBANK1  00013A
LCDTest@msg1                                    cstackBANK1  000116
LCDTest@msg2                                    cstackBANK1  000127
LCDWrite4@chr                                   cstackBANK1  000104
LCDWriteChar@chr                                cstackBANK1  000104
LCDWriteCmd@data                                cstackBANK1  000104
MonitorFailAlarm@cnt5v                          bssBANK2     00027A
MonitorFailAlarm@monitorFailAlarm5V             bssBANK0     0000F5
MonitorFailAlarm@v5                             cstackBANK1  000184
MonitorPressureTask@adcv                        cstackBANK0  0000AD
MonitorPressureTask@cnt                         bssBANK2     00023A
MonitorPressureTask@cnt2                        bssBANK2     000234
MonitorPressureTask@down                        bssBANK2     00029C
MonitorPressureTask@ecnt                        bssBANK2     000236
MonitorPressureTask@halfLimit                   cstackBANK0  00009F
MonitorPressureTask@i                           cstackBANK0  0000BD
MonitorPressureTask@i_4881                      cstackBANK0  0000BF
MonitorPressureTask@i_4894                      cstackBANK0  0000B7
MonitorPressureTask@i_4897                      cstackBANK0  0000B9
MonitorPressureTask@measPe                      bssBANK2     00029D
MonitorPressureTask@measPi                      bssBANK2     00029E
MonitorPressureTask@next                        cstackBANK0  0000B5
MonitorPressureTask@nt_4872                     bssBANK2     000238
MonitorPressureTask@pr                          cstackBANK0  0000C1
MonitorPressureTask@temp                        cstackBANK0  0000BB
MonitorPressureTask@tmp                         cstackBANK0  0000AF
MonitorPressureTask@tmp2                        cstackBANK0  0000B1
MonitorPressureTask@v1                          cstackBANK0  0000A1
MonitorPressureTask@v12                         cstackBANK0  00009B
MonitorPressureTask@v2                          cstackBANK0  0000B3
MonitorPressureTask@v5                          cstackBANK0  00009D
MuteAlarm@high                                  cstackBANK1  000187
ReceiveHandler@data                             cstackCOMRAM 000004
See12V@adc                                      cstackBANK1  000124
See12V@mv                                       cstackBANK1  000120
See12V@v12                                      cstackBANK1  000126
See5V@adc                                       cstackBANK1  000124
See5V@mv                                        cstackBANK1  000120
See5V@v12                                       cstackBANK1  000126
SeePressureV_pa@adcv                            cstackBANK1  000116
SeePressureV_pa@mv                              cstackBANK1  00011A
SeePressureV_pa@p                               cstackBANK1  000118
SeePressure_pa@adc                              cstackBANK1  000126
SeePressure_pa@mv                               cstackBANK1  00012A
SeePressure_pa@p                                cstackBANK1  000128
SeePressure_pa@p32                              cstackBANK1  000122
SetAlarmLED@type                                cstackBANK1  000104
SetAlarmSV1@last                                bssBANK0     0000F2
SetAlarmSV1@value                               cstackBANK1  000183
SetCalibrateState@calib                         cstackBANK1  000183
SetMaxPressure@pr                               cstackCOMRAM 000001
SetSV1@last                                     bssBANK0     0000F1
SetSV1@value                                    cstackBANK1  000183
SetTarget@br                                    cstackCOMRAM 000021
SetTarget@ep                                    cstackCOMRAM 00001F
SetTarget@ip                                    cstackCOMRAM 00001D
SetTarget@pmax                                  cstackCOMRAM 00001B
SetTarget@vmax                                  cstackCOMRAM 000023
SetTarget@vmin                                  cstackCOMRAM 000025
SetVolumeControl@vc                             cstackCOMRAM 000001
TMR0_SetInterruptHandler@InterruptHandler       cstackBANK1  000104
TMR1_SetInterruptHandler@InterruptHandler       cstackBANK1  000104
TMR1_WriteTimer@timerVal                        cstackCOMRAM 000001
TMR4_Period8BitSet@periodVal                    cstackBANK1  000104
TMR4_SetInterruptHandler@InterruptHandler       cstackBANK1  000104
TMR5_SetInterruptHandler@InterruptHandler       cstackBANK1  000104
TMR5_WriteTimer@timerVal                        cstackCOMRAM 000001
TMR6_SetInterruptHandler@InterruptHandler       cstackBANK1  000104
TestAlarm@i                                     cstackBANK1  000189
TestAlarm@id                                    cstackBANK1  000183
UART1_Read@readValue                            cstackBANK1  000104
UART1_SetErrorHandler@interruptHandler          cstackBANK1  000104
UART1_SetFramingErrorHandler@interruptHandler   cstackBANK1  000104
UART1_SetOverrunErrorHandler@interruptHandler   cstackBANK1  000104
UART1_SetRxInterruptHandler@InterruptHandler    cstackBANK1  000104
UART1_SetTxInterruptHandler@InterruptHandler    cstackBANK1  000104
UART1_Write@txData                              cstackBANK1  000104
UpdateState@cnt                                 bssBANK2     000230
UpdateState@initPhase                           cstackCOMRAM 00005C
UpdateState@old                                 bssBANK2     000298
ValueDisplay@cnt                                bssBANK2     000288
ValueDisplay@dr                                 cstackBANK1  0001A5
ValueDisplay@dtde                               cstackBANK1  0001A4
ValueDisplay@dtdi                               cstackBANK1  0001A3
ValueDisplay@er                                 cstackBANK1  0001B0
ValueDisplay@etde                               cstackBANK1  0001AF
ValueDisplay@etdi                               cstackBANK1  0001AE
ValueDisplay@ete                                cstackBANK1  0001A2
ValueDisplay@eti                                cstackBANK1  0001A1
ValueDisplay@pe                                 cstackBANK1  000197
ValueDisplay@pi                                 cstackBANK1  000195
ValueDisplay@pmax                               cstackBANK1  00019B
ValueDisplay@r                                  cstackBANK1  0001B1
ValueDisplay@spr                                cstackBANK1  00019D
ValueDisplay@tde                                cstackBANK1  0001AC
ValueDisplay@tdi                                cstackBANK1  0001AA
ValueDisplay@te                                 cstackBANK1  0001B3
ValueDisplay@ti                                 cstackBANK1  0001B5
ValueDisplay@vol                                cstackBANK1  000199
_ADACCU                                         (abs)        003EEA
_ADACQH                                         (abs)        003EF4
_ADACQL                                         (abs)        003EF3
_ADACT                                          (abs)        003EFE
_ADCAP                                          (abs)        003EF5
_ADCC_ADTI_InterruptHandler                     nvBANK2      0002F3
_ADCC_DefaultInterruptHandler                   text350      00A6B8
_ADCC_GetConversionResult                       text382      00A058
_ADCC_Initialize                                text36       0086BA
_ADCC_IsConversionDone                          text381      00A394
_ADCC_SetADTIInterruptHandler                   text53       00A20C
_ADCC_StartConversion                           text52       00A11C
_ADCC_ThresholdISR                              text349      009CAA
_ADCLK                                          (abs)        003EFF
_ADCON0                                         (abs)        003EF8
_ADCON0bits                                     (abs)        003EF8
_ADCON1                                         (abs)        003EF9
_ADCON2                                         (abs)        003EFA
_ADCON3                                         (abs)        003EFB
_ADLTHH                                         (abs)        003EDF
_ADLTHL                                         (abs)        003EDE
_ADPCH                                          (abs)        003EF1
_ADPREH                                         (abs)        003EF7
_ADPREL                                         (abs)        003EF6
_ADREF                                          (abs)        003EFD
_ADRESH                                         (abs)        003EF0
_ADRESL                                         (abs)        003EEF
_ADRPT                                          (abs)        003EEC
_ADSTAT                                         (abs)        003EFC
_ADSTPTH                                        (abs)        003EE5
_ADSTPTL                                        (abs)        003EE4
_ADUTHH                                         (abs)        003EE1
_ADUTHL                                         (abs)        003EE0
_ANSELA                                         (abs)        003A40
_ANSELB                                         (abs)        003A50
_ANSELC                                         (abs)        003A60
_ANSELD                                         (abs)        003A70
_ANSELE                                         (abs)        003A80
_AdcDataReady                                   text157      009A28
_AdcGetData                                     text152      008932
_AdcHandler                                     text351      006018
_AdcInit                                        text51       008252
_AdcReStartCycle                                text267      0089FE
_AdcReady                                       text380      00A62E
_AdcSeeData                                     text58       0092F0
_AlarmCheckTask                                 text104      004DF6
_AlarmCheckTask$4558                            cstackBANK2  0002FB
_AlarmCheckTask$6533                            cstackBANK2  0002F7
_AlarmCheckTask$6537                            cstackBANK2  0002F9
_AlarmClear                                     text204      009DB6
_AlarmDisplay                                   text160      007A06
_AlarmDisplay$4015                              cstackBANK1  0001BC
_AlarmDisplay$4016                              cstackBANK1  0001BE
_AlarmHandler                                   text217      0087FC
_AlarmInit                                      text99       0081D4
_AlarmSet                                       text203      009D96
_AlarmUpdateLCD                                 text158      005C60
_AlarmUpdateLCD$6531                            cstackBANK1  0001C2
_AlarmUpdateLCD$6532                            cstackBANK1  0001C4
_AnyAlarm                                       text202      0094E0
_BaterryLowAlarmHigh                            text114      00A668
_BaterryLowAlarmMed                             text115      00A66C
_BatteryFailAlarm                               text122      0069AC
_ButtonInit                                     text96       0099D4
_ButtonTask                                     text231      0065D0
_BuzzerCMPHandler                               text347      009BAA
_BuzzerCheck                                    text95       007CFE
_BuzzerClear                                    text141      00A13C
_BuzzerHandler                                  text221      00A5DA
_BuzzerInit                                     text102      009834
_BuzzerOff                                      text143      00A14C
_BuzzerOn                                       text139      009E74
_BuzzerSet                                      text131      009F8A
_BuzzerTask                                     text132      0029A0
_BuzzerTest                                     text94       007E24
_BuzzerTestHandler                              text220      00991C
_CCPTMRS1bits                                   (abs)        003F5F
_CM1CON0                                        (abs)        003EBC
_CM1CON1                                        (abs)        003EBD
_CM1NCH                                         (abs)        003EBE
_CM1PCH                                         (abs)        003EBF
_CMP1_Disable                                   text144      00A4E0
_CMP1_Enable                                    text140      00A4D8
_CMP1_ISR                                       text346      009D34
_CMP1_Initialize                                text35       009D56
_CMP1_InterruptHandler                          bssBANK2     00028A
_CMP1_SetIntHandler                             text103      00A2A6
_CircuitFailureAlarm                            text116      00A670
_ClearAlarmLED                                  text130      00A420
_ClearAllAlarm                                  text316      0090BC
_ClearBaterryLowAlarmHigh                       text156      00A5C8
_ClearBaterryLowAlarmMed                        text155      00A5C2
_ClearBatteryFailAlarm                          text154      00A4F0
_ClearCircuitFailureAlarm                       text50       00A498
_ClearControlFailAlarm                          text41       00A490
_ClearEPAboveSetAlarm                           text49       009FD4
_ClearEPBelowSetAlarm                           text48       00A096
_ClearGasFailureAlarm                           text40       00A488
_ClearHighPressureAlarmHigh                     text39       00A480
_ClearHighPressureAlarmLow                      text335      00A616
_ClearIPAboveSetAlarm                           text47       00A082
_ClearIPBelowSetAlarm                           text46       00A06E
_ClearMonitorFailAlarm                          text138      00A4D0
_ClearNoPowerSupplyAlarm                        text153      00A5BC
_ClearTdeTooLongAlarm                           text334      00A588
_ClearTdiTooLongAlarm                           text333      00A580
_ClearVAboveMaxAlarm                            text332      00A578
_ClearVBelowMinAlarm                            text331      00A610
_ClearVars                                      text45       0040E2
_ClearVeryHighPressureAlarmHigh                 text38       00A478
_ControlFailAlarm                               text120      00A0AA
_ControllerBuzzerCheck                          text314      00A3F6
_ControllerInit                                 text78       0092B0
_ControllerTimerHandler                         text213      00804A
_DisableAlarmSV1                                text77       00A4B8
_DisplayCalibrate                               text266      0096CC
_DisplayDisable                                 text294      00A10A
_DisplayEnable                                  text293      00A17C
_DisplayTask                                    text70       0074F8
_DumpI2C                                        text69       00A6A8
_EPAboveSetAlarm                                text112      009F56
_EPBelowSetAlarm                                text113      009F70
_EnableAlarmSV1                                 text68       00A4B0
_FVRCON                                         (abs)        003EC1
_FVR_Initialize                                 text34       00A470
_GasFailureAlarm                                text119      00A678
_Get12V                                         text149      00796C
_Get5V                                          text126      0085DE
_GetAlarmState                                  text201      008F7E
_GetBpm                                         text200      00A2FA
_GetControllerBuzzerCheck                       text292      00A0F8
_GetDisableAlarmSV1                             text199      00A5CE
_GetEp                                          text197      0098EE
_GetIp                                          text196      004F7A
_GetIp$4809                                     cstackBANK1  000117
_GetIp$4810                                     cstackBANK1  000119
_GetMaxPressure                                 text129      00936C
_GetPmax                                        text195      009B12
_GetPressureV_pa                                text12       0076EC
_GetPressure_mbar02                             text265      00962E
_GetPressure_mbar02$7129                        cstackCOMRAM 00002D
_GetPressure_pa                                 text11       004C72
_GetSpr                                         text194      00A2EC
_GetTargetEp                                    text193      009AEC
_GetTargetIp                                    text192      009AC6
_GetTde                                         text191      00A3D2
_GetTdi                                         text190      00A2DE
_GetTe                                          text189      00A0D2
_GetTi                                          text188      00A0BE
_GetVolume                                      text187      00A2D0
_HighPressureAlarmHigh                          text117      00A674
_HighPressureAlarmLow                           text118      008152
_HigherAlarm                                    text159      007186
_HistAlarm                                      text66       0064C8
_I2C2ADB0                                       (abs)        003D57
_I2C2ADR0                                       (abs)        003D59
_I2C2ADR1                                       (abs)        003D5A
_I2C2CNT                                        (abs)        003D56
_I2C2CON0                                       (abs)        003D5D
_I2C2CON0bits                                   (abs)        003D5D
_I2C2CON1                                       (abs)        003D5E
_I2C2CON2                                       (abs)        003D5F
_I2C2ERRbits                                    (abs)        003D60
_I2C2PIEbits                                    (abs)        003D64
_I2C2PIR                                        (abs)        003D63
_I2C2PIRbits                                    (abs)        003D63
_I2C2RXB                                        (abs)        003D54
_I2C2SCLPPS                                     (abs)        003AE3
_I2C2SDAPPS                                     (abs)        003AE4
_I2C2STAT0                                      (abs)        003D61
_I2C2STAT1                                      (abs)        003D62
_I2C2STAT1bits                                  (abs)        003D62
_I2C2TXB                                        (abs)        003D55
_I2C2_Initialize                                text33       00A0E6
_I2C2_InterruptHandler                          bssBANK0     0000EE
_I2C2_Isr                                       text268      008864
_I2C2_Open                                      text83       0088CC
_I2C2_Read                                      text341      00A622
_I2C2_SlaveAddrInterruptHandler                 bssBANK2     000290
_I2C2_SlaveBusColInterruptHandler               bssBANK2     00028E
_I2C2_SlaveClearBuff                            text345      00A6A4
_I2C2_SlaveClearStopFlag                        text344      00A6A0
_I2C2_SlaveDefAddrInterruptHandler              (abs)        000000
_I2C2_SlaveDefBusColInterruptHandler            (abs)        000000
_I2C2_SlaveDefRdInterruptHandler                text339      00A45C
_I2C2_SlaveDefWrColInterruptHandler             (abs)        000000
_I2C2_SlaveDefWrInterruptHandler                (abs)        000000
_I2C2_SlaveEnableIrq                            text93       009FEA
_I2C2_SlaveGetRxData                            text342      00A628
_I2C2_SlaveIsRxBufFull                          text343      00A378
_I2C2_SlaveOpen                                 text92       00A416
_I2C2_SlaveRdCallBack                           text338      009E36
_I2C2_SlaveRdInterruptHandler                   bssBANK2     000296
_I2C2_SlaveReleaseClock                         text337      00A61C
_I2C2_SlaveSetAddrIntHandler                    text91       00A27C
_I2C2_SlaveSetBusColIntHandler                  text90       00A26E
_I2C2_SlaveSetCounter                           text336      00A452
_I2C2_SlaveSetIsrHandler                        text89       00A260
_I2C2_SlaveSetReadIntHandler                    text88       00A252
_I2C2_SlaveSetSlaveAddr                         text87       00A3AE
_I2C2_SlaveSetSlaveMask                         text86       00A12C
_I2C2_SlaveSetStopIntHandler                    text82       00A228
_I2C2_SlaveSetWrColIntHandler                   text85       00A244
_I2C2_SlaveSetWriteIntHandler                   text84       00A236
_I2C2_SlaveStopCallBack                         text269      009E16
_I2C2_SlaveStopInterruptHandler                 bssBANK2     000292
_I2C2_SlaveWrColInterruptHandler                bssBANK2     00028C
_I2C2_SlaveWrInterruptHandler                   bssBANK2     000294
_I2C2_on                                        bssBANK2     0002B4
_INLVLA                                         (abs)        003A44
_INLVLB                                         (abs)        003A54
_INLVLC                                         (abs)        003A64
_INLVLD                                         (abs)        003A74
_INLVLE                                         (abs)        003A84
_INTCON0bits                                    (abs)        003FD2
_INTERRUPT_Initialize                           text32       00A63C
_INTERRUPT_InterruptManager                     text205      0067D4
_IPAboveSetAlarm                                text110      009F22
_IPBelowSetAlarm                                text111      009F3C
_InitDisplay                                    text62       00A3A2
_LATA                                           (abs)        003FBA
_LATAbits                                       (abs)        003FBA
_LATB                                           (abs)        003FBB
_LATC                                           (abs)        003FBC
_LATCbits                                       (abs)        003FBC
_LATD                                           (abs)        003FBD
_LATDbits                                       (abs)        003FBD
_LATE                                           (abs)        003FBE
_LCDInit                                        text63       0068C8
_LCDMessage                                     text75       007790
_LCDMessage1                                    text73       009D76
_LCDMessage12                                   text72       00932E
_LCDMessage2                                    text71       009AA0
_LCDOff                                         text61       00A40C
_LCDOn                                          text60       00A402
_LCDTest                                        text65       007D94
_LCDWrite4                                      text64       00906E
_LCDWriteChar                                   text76       007C68
_LCDWriteCmd                                    text74       007BD2
_LED                                            bssBANK1     0001F0
_MonitorDisable                                 text59       00A4A8
_MonitorDump                                    text55       0030C8
_MonitorEnable                                  text54       00A4A0
_MonitorFailAlarm                               text121      006A90
_MonitorFailAlarm$4446                          cstackBANK1  000183
_MonitorInit                                    text42       0083AE
_MonitorPressureTask                            text246      00001E
_MonitorPressureTask$4886                       cstackBANK0  0000A3
_MonitorPressureTask$4895                       cstackBANK0  0000A5
_MonitorPressureTask$4896                       cstackBANK0  0000A7
_MonitorPressureTask$4898                       cstackBANK0  0000A9
_MonitorPressureTask$4899                       cstackBANK0  0000AB
_MuteAlarm                                      text37       00457C
_MuteAlarm$4543                                 cstackBANK1  000186
_NoPowerSupplyAlarm                             text105      00A654
_ODCONA                                         (abs)        003A42
_ODCONB                                         (abs)        003A52
_ODCONC                                         (abs)        003A62
_ODCOND                                         (abs)        003A72
_ODCONE                                         (abs)        003A82
_OSCCON1                                        (abs)        0039D9
_OSCCON3                                        (abs)        0039DB
_OSCEN                                          (abs)        0039DD
_OSCFRQ                                         (abs)        0039DF
_OSCILLATOR_Initialize                          text31       009FBC
_OSCTUNE                                        (abs)        0039DE
_PCON0                                          (abs)        003FF0
_PIE1bits                                       (abs)        003991
_PIE3bits                                       (abs)        003993
_PIE4bits                                       (abs)        003994
_PIE5bits                                       (abs)        003995
_PIE6bits                                       (abs)        003996
_PIE7bits                                       (abs)        003997
_PIE8bits                                       (abs)        003998
_PIE9bits                                       (abs)        003999
_PIN_MANAGER_Initialize                         text30       0070D4
_PIR1bits                                       (abs)        0039A1
_PIR3bits                                       (abs)        0039A3
_PIR4bits                                       (abs)        0039A4
_PIR5bits                                       (abs)        0039A5
_PIR6bits                                       (abs)        0039A6
_PIR7bits                                       (abs)        0039A7
_PIR8bits                                       (abs)        0039A8
_PIR9bits                                       (abs)        0039A9
_PMD0                                           (abs)        0039C0
_PMD1                                           (abs)        0039C1
_PMD2                                           (abs)        0039C2
_PMD3                                           (abs)        0039C3
_PMD4                                           (abs)        0039C4
_PMD5                                           (abs)        0039C5
_PMD6                                           (abs)        0039C6
_PMD7                                           (abs)        0039C7
_PMD_Initialize                                 text29       009C1A
_PORTDbits                                      (abs)        003FCD
_PR4                                            (abs)        003F9F
_PWM6CON                                        (abs)        003F6A
_PWM6DCH                                        (abs)        003F69
_PWM6DCL                                        (abs)        003F68
_PWM6_Initialize                                text28       009FA4
_RB1I2C                                         (abs)        003A5A
_RB2I2C                                         (abs)        003A5B
_RB4PPS                                         (abs)        003A0C
_RB5PPS                                         (abs)        003A0D
_RC1PPS                                         (abs)        003A11
_RC3I2C                                         (abs)        003A6A
_RC4I2C                                         (abs)        003A6B
_RD0I2C                                         (abs)        003A7A
_RD0PPS                                         (abs)        003A18
_RD1I2C                                         (abs)        003A7B
_ReceiveHandler                                 text340      00910A
_SLRCONA                                        (abs)        003A43
_SLRCONB                                        (abs)        003A53
_SLRCONC                                        (abs)        003A63
_SLRCOND                                        (abs)        003A73
_SLRCONE                                        (abs)        003A83
_SYSTEM_Initialize                              text15       00926E
_See12V                                         text57       0078D2
_See5V                                          text56       008570
_SeePressureV_pa                                text14       0080D0
_SeePressure_pa                                 text13       005842
_SetAlarmLED                                    text125      00A2B4
_SetAlarmSV1                                    text124      009698
_SetBaterryLowAlarmHigh                         text148      00A5B6
_SetBaterryLowAlarmMed                          text147      00A5B0
_SetBatteryFailAlarm                            text146      00A4E8
_SetCalibrateState                              text8        0063A6
_SetCircuitFailureAlarm                         text264      00A5F2
_SetControlFailAlarm                            text291      00A530
_SetEPAboveSetAlarm                             text263      009EB0
_SetEPBelowSetAlarm                             text262      009E92
_SetGasFailureAlarm                             text261      00A510
_SetHighPressureAlarmHigh                       text128      00A5A4
_SetIPAboveSetAlarm                             text260      009DF6
_SetIPBelowSetAlarm                             text259      009DD6
_SetMaxPressure                                 text290      00A324
_SetMonitorFailAlarm                            text137      00A4C8
_SetNoPowerSupplyAlarm                          text145      00A5AA
_SetSV1                                         text7        009664
_SetTarget                                      text288      006DDC
_SetTdeTooLongAlarm                             text258      00A508
_SetTdiTooLongAlarm                             text257      00A500
_SetVAboveMaxAlarm                              text256      00A4F8
_SetVBelowMinAlarm                              text255      00A5EC
_SetVeryHighPressureAlarmHigh                   text127      00A4C0
_SetVolumeControl                               text287      00A448
_StopHandler                                    text270      008CE6
_T0CON0                                         (abs)        003FB8
_T0CON0bits                                     (abs)        003FB8
_T0CON1                                         (abs)        003FB9
_T1CLK                                          (abs)        003FB5
_T1CON                                          (abs)        003FB2
_T1CONbits                                      (abs)        003FB2
_T1GATE                                         (abs)        003FB4
_T1GCON                                         (abs)        003FB3
_T2CLKCON                                       (abs)        003FAE
_T2CON                                          (abs)        003FAC
_T2HLT                                          (abs)        003FAD
_T2PR                                           (abs)        003FAB
_T2RST                                          (abs)        003FAF
_T2TMR                                          (abs)        003FAA
_T4CLKCON                                       (abs)        003FA2
_T4CON                                          (abs)        003FA0
_T4CONbits                                      (abs)        003FA0
_T4HLT                                          (abs)        003FA1
_T4PR                                           (abs)        003F9F
_T4RST                                          (abs)        003FA3
_T4TMR                                          (abs)        003F9E
_T5CLK                                          (abs)        003F9D
_T5CON                                          (abs)        003F9A
_T5CONbits                                      (abs)        003F9A
_T5GATE                                         (abs)        003F9C
_T5GCON                                         (abs)        003F9B
_T6CLKCON                                       (abs)        003F96
_T6CON                                          (abs)        003F94
_T6CONbits                                      (abs)        003F94
_T6HLT                                          (abs)        003F95
_T6PR                                           (abs)        003F93
_T6RST                                          (abs)        003F97
_T6TMR                                          (abs)        003F92
_TMR0H                                          (abs)        003FB7
_TMR0L                                          (abs)        003FB6
_TMR0_DefaultInterruptHandler                   text247      00A6B6
_TMR0_ISR                                       text245      009D12
_TMR0_Initialize                                text27       009BF6
_TMR0_InterruptHandler                          nvBANK2      0002DF
_TMR0_SetInterruptHandler                       text44       00A1FE
_TMR0_StartTimer                                text43       00A640
_TMR0_StopTimer                                 text10       00A638
_TMR1H                                          (abs)        003FB1
_TMR1L                                          (abs)        003FB0
_TMR1_DefaultInterruptHandler                   text232      00A6B4
_TMR1_ISR                                       text229      009802
_TMR1_Initialize                                text26       008DE6
_TMR1_InterruptHandler                          nvBANK2      0002DB
_TMR1_SetInterruptHandler                       text98       00A28A
_TMR1_StartTimer                                text97       00A64C
_TMR1_WriteTimer                                text230      009C86
_TMR2_Initialize                                text25       009E56
_TMR4_DefaultInterruptHandler                   text222      00A6B2
_TMR4_ISR                                       text219      009CF0
_TMR4_Initialize                                text24       009892
_TMR4_InterruptHandler                          nvBANK2      0002ED
_TMR4_Period8BitSet                             text136      00A3BA
_TMR4_SetInterruptHandler                       text135      00A2C2
_TMR4_Start                                     text134      00A680
_TMR4_Stop                                      text142      00A684
_TMR5H                                          (abs)        003F99
_TMR5L                                          (abs)        003F98
_TMR5_DefaultInterruptHandler                   text218      00A6B0
_TMR5_ISR                                       text215      0097D0
_TMR5_Initialize                                text23       008F2E
_TMR5_InterruptHandler                          nvBANK2      0002E1
_TMR5_SetInterruptHandler                       text101      00A298
_TMR5_StartTimer                                text100      00A650
_TMR5_StopTimer                                 text67       00A644
_TMR5_WriteTimer                                text216      009C62
_TMR6_DefaultInterruptHandler                   text214      00A6AE
_TMR6_ISR                                       text212      009CCE
_TMR6_Initialize                                text22       009864
_TMR6_InterruptHandler                          nvBANK2      0002D9
_TMR6_SetInterruptHandler                       text81       00A21A
_TMR6_Start                                     text80       00A648
_TMR6_StartTimer                                text79       00A59E
_TRISA                                          (abs)        003FC2
_TRISB                                          (abs)        003FC3
_TRISC                                          (abs)        003FC4
_TRISD                                          (abs)        003FC5
_TRISE                                          (abs)        003FC6
_TdeTooLongAlarm                                text108      00A660
_TdiTooLongAlarm                                text109      00A664
_TestAlarm                                      text5        00739C
_U1BRGH                                         (abs)        003DF6
_U1BRGL                                         (abs)        003DF5
_U1CON0                                         (abs)        003DF2
_U1CON1                                         (abs)        003DF3
_U1CON2                                         (abs)        003DF4
_U1ERRIE                                        (abs)        003DFA
_U1ERRIR                                        (abs)        003DF9
_U1ERRIRbits                                    (abs)        003DF9
_U1FIFO                                         (abs)        003DF7
_U1P1H                                          (abs)        003DED
_U1P1L                                          (abs)        003DEC
_U1P2H                                          (abs)        003DEF
_U1P2L                                          (abs)        003DEE
_U1P3H                                          (abs)        003DF1
_U1P3L                                          (abs)        003DF0
_U1RXB                                          (abs)        003DE8
_U1RXPPS                                        (abs)        003AE5
_U1TXB                                          (abs)        003DEA
_U1UIR                                          (abs)        003DF8
_UART1_DefaultErrorHandler                      text210      00A5D4
_UART1_DefaultFramingErrorHandler               text209      00A6AC
_UART1_DefaultOverrunErrorHandler               text208      00A6AA
_UART1_ErrorHandler                             nvBANK2      0002E5
_UART1_FramingErrorHandler                      nvBANK2      0002E9
_UART1_Initialize                               text16       006EA6
_UART1_OverrunErrorHandler                      nvBANK2      0002E7
_UART1_Read                                     text2        009154
_UART1_Receive_ISR                              text207      007832
_UART1_RxDataHandler                            text211      009C3E
_UART1_RxInterruptHandler                       nvBANK2      0002F1
_UART1_SetErrorHandler                          text21       00A1F0
_UART1_SetFramingErrorHandler                   text20       00A1E2
_UART1_SetOverrunErrorHandler                   text19       00A1D4
_UART1_SetRxInterruptHandler                    text18       00A1C6
_UART1_SetTxInterruptHandler                    text17       00A1B8
_UART1_Transmit_ISR                             text206      00919C
_UART1_TxInterruptHandler                       nvBANK2      0002EF
_UART1_Write                                    text181      008C3A
_UART1_is_rx_ready                              text4        00A19C
_UnDisplayCalibrate                             text9        00A1AA
_UpdateState                                    text271      003E88
_VAboveMaxAlarm                                 text107      00A65C
_VBelowMinAlarm                                 text106      00A658
_ValueDisplay                                   text161      002238
_ValueDisplay$4007                              cstackBANK1  0001A6
_ValueDisplay$4008                              cstackBANK1  0001A8
_ValueDisplay$6530                              cstackBANK1  00019F
_VeryHighPressureAlarmHigh                      text123      00A67C
_WPUA                                           (abs)        003A41
_WPUB                                           (abs)        003A51
_WPUC                                           (abs)        003A61
_WPUD                                           (abs)        003A71
_WPUE                                           (abs)        003A81
__CFG_BBEN$OFF                                  (abs)        000000
__CFG_BBSIZE$BBSIZE_512                         (abs)        000000
__CFG_BOREN$SBORDIS                             (abs)        000000
__CFG_BORV$VBOR_2P45                            (abs)        000000
__CFG_CLKOUTEN$OFF                              (abs)        000000
__CFG_CP$OFF                                    (abs)        000000
__CFG_CSWEN$ON                                  (abs)        000000
__CFG_DEBUG$OFF                                 (abs)        000000
__CFG_FCMEN$ON                                  (abs)        000000
__CFG_FEXTOSC$OFF                               (abs)        000000
__CFG_IVT1WAY$ON                                (abs)        000000
__CFG_LPBOREN$OFF                               (abs)        000000
__CFG_LVP$ON                                    (abs)        000000
__CFG_MCLRE$EXTMCLR                             (abs)        000000
__CFG_MVECEN$OFF                                (abs)        000000
__CFG_PPS1WAY$ON                                (abs)        000000
__CFG_PR1WAY$ON                                 (abs)        000000
__CFG_PWRTS$PWRT_OFF                            (abs)        000000
__CFG_RSTOSC$HFINTOSC_64MHZ                     (abs)        000000
__CFG_SAFEN$OFF                                 (abs)        000000
__CFG_STVREN$ON                                 (abs)        000000
__CFG_WDTCCS$SC                                 (abs)        000000
__CFG_WDTCPS$WDTCPS_31                          (abs)        000000
__CFG_WDTCWS$WDTCWS_7                           (abs)        000000
__CFG_WDTE$OFF                                  (abs)        000000
__CFG_WRTAPP$OFF                                (abs)        000000
__CFG_WRTB$OFF                                  (abs)        000000
__CFG_WRTC$OFF                                  (abs)        000000
__CFG_WRTD$OFF                                  (abs)        000000
__CFG_WRTSAF$OFF                                (abs)        000000
__CFG_XINST$OFF                                 (abs)        000000
__CFG_ZCD$OFF                                   (abs)        000000
__HRAM                                          (abs)        000000
__Habs1                                         abs1         000000
__Hbank0                                        bank0        000000
__Hbank1                                        bank1        000000
__Hbank10                                       bank10       000000
__Hbank11                                       bank11       000000
__Hbank12                                       bank12       000000
__Hbank13                                       bank13       000000
__Hbank14                                       bank14       000000
__Hbank15                                       bank15       000000
__Hbank2                                        bank2        000000
__Hbank3                                        bank3        000000
__Hbank4                                        bank4        000000
__Hbank5                                        bank5        000000
__Hbank6                                        bank6        000000
__Hbank7                                        bank7        000000
__Hbank8                                        bank8        000000
__Hbank9                                        bank9        000000
__Hbigbss                                       bigbss       000000
__Hbigdata                                      bigdata      000000
__Hbigram                                       bigram       000000
__Hbss                                          bss          000000
__HbssBANK0                                     bssBANK0     000000
__HbssBANK1                                     bssBANK1     000000
__HbssBANK2                                     bssBANK2     000000
__HbssBANK3                                     bssBANK3     000000
__HbssBANK4                                     bssBANK4     000000
__HbssBIGRAM                                    bssBIGRAM    000000
__Hcinit                                        cinit        000000
__Hclrtext                                      clrtext      000000
__Hcomram                                       comram       000000
__Hconfig                                       config       30000A
__Hconst                                        const        000000
__HcstackBANK0                                  cstackBANK0  000000
__HcstackBANK1                                  cstackBANK1  000000
__HcstackBANK2                                  cstackBANK2  000000
__HcstackBANK3                                  cstackBANK3  000000
__HcstackCOMRAM                                 cstackCOMRAM 000000
__Hdata                                         data         000000
__HdataBANK1                                    dataBANK1    000000
__HdataBANK2                                    dataBANK2    000000
__HdataBIGRAM                                   dataBIGRAM   000000
__Heeprom_data                                  eeprom_data  000000
__Hfarbss                                       farbss       000000
__Hfardata                                      fardata      000000
__Hibigdata                                     ibigdata     000000
__Hidata                                        idata        000000
__HidataBANK1                                   idataBANK1   000000
__HidataBANK2                                   idataBANK2   000000
__HidataBIGRAM                                  idataBIGRAM  000000
__Hidloc                                        idloc        200010
__Hifardata                                     ifardata     000000
__Hinit                                         init         00001E
__Hintsave_regs                                 intsave_regs 000000
__Hirdata                                       irdata       000000
__Hivt0x8                                       ivt0x8       00001A
__Hmediumconst                                  mediumconst  010000
__HnvBANK2                                      nvBANK2      000000
__HnvFARRAM                                     nvFARRAM     000000
__Hnvbit                                        nvbit        000000
__Hnvrram                                       nvrram       000000
__Hparam                                        rparam       000000
__Hpowerup                                      powerup      000000
__Hram                                          ram          000000
__Hramtop                                       ramtop       001000
__Hrbit                                         rbit         000000
__Hrbss                                         rbss         000000
__Hrdata                                        rdata        000000
__Hreset_vec                                    reset_vec    000004
__Hrparam                                       rparam       000000
__Hsfr                                          sfr          000000
__Hsmallconst                                   smallconst   000000
__Hspace_0                                      (abs)        30000A
__Hspace_1                                      (abs)        000AA3
__Hspace_2                                      (abs)        000000
__Hstack                                        stack        000000
__Hstruct                                       struct       000000
__Htemp                                         temp         000000
__Htext                                         text         000000
__Htext0                                        text0        000000
__Htext1                                        text1        000000
__Htext10                                       text10       000000
__Htext100                                      text100      000000
__Htext101                                      text101      000000
__Htext102                                      text102      000000
__Htext103                                      text103      000000
__Htext104                                      text104      000000
__Htext105                                      text105      000000
__Htext106                                      text106      000000
__Htext107                                      text107      000000
__Htext108                                      text108      000000
__Htext109                                      text109      000000
__Htext11                                       text11       000000
__Htext110                                      text110      000000
__Htext111                                      text111      000000
__Htext112                                      text112      000000
__Htext113                                      text113      000000
__Htext114                                      text114      000000
__Htext115                                      text115      000000
__Htext116                                      text116      000000
__Htext117                                      text117      000000
__Htext118                                      text118      000000
__Htext119                                      text119      000000
__Htext12                                       text12       000000
__Htext120                                      text120      000000
__Htext121                                      text121      000000
__Htext122                                      text122      000000
__Htext123                                      text123      000000
__Htext124                                      text124      000000
__Htext125                                      text125      000000
__Htext126                                      text126      000000
__Htext127                                      text127      000000
__Htext128                                      text128      000000
__Htext129                                      text129      000000
__Htext13                                       text13       000000
__Htext130                                      text130      000000
__Htext131                                      text131      000000
__Htext132                                      text132      000000
__Htext133                                      text133      000000
__Htext134                                      text134      000000
__Htext135                                      text135      000000
__Htext136                                      text136      000000
__Htext137                                      text137      000000
__Htext138                                      text138      000000
__Htext139                                      text139      000000
__Htext14                                       text14       000000
__Htext140                                      text140      000000
__Htext141                                      text141      000000
__Htext142                                      text142      000000
__Htext143                                      text143      000000
__Htext144                                      text144      000000
__Htext145                                      text145      000000
__Htext146                                      text146      000000
__Htext147                                      text147      000000
__Htext148                                      text148      000000
__Htext149                                      text149      000000
__Htext15                                       text15       000000
__Htext150                                      text150      000000
__Htext151                                      text151      000000
__Htext152                                      text152      000000
__Htext153                                      text153      000000
__Htext154                                      text154      000000
__Htext155                                      text155      000000
__Htext156                                      text156      000000
__Htext157                                      text157      000000
__Htext158                                      text158      000000
__Htext159                                      text159      000000
__Htext16                                       text16       000000
__Htext160                                      text160      000000
__Htext161                                      text161      000000
__Htext162                                      text162      000000
__Htext163                                      text163      000000
__Htext164                                      text164      000000
__Htext165                                      text165      000000
__Htext166                                      text166      000000
__Htext167                                      text167      000000
__Htext168                                      text168      000000
__Htext169                                      text169      000000
__Htext17                                       text17       000000
__Htext170                                      text170      000000
__Htext171                                      text171      000000
__Htext172                                      text172      000000
__Htext173                                      text173      000000
__Htext174                                      text174      000000
__Htext175                                      text175      000000
__Htext176                                      text176      000000
__Htext177                                      text177      000000
__Htext178                                      text178      000000
__Htext179                                      text179      000000
__Htext18                                       text18       000000
__Htext180                                      text180      000000
__Htext181                                      text181      000000
__Htext182                                      text182      000000
__Htext183                                      text183      000000
__Htext184                                      text184      000000
__Htext185                                      text185      000000
__Htext186                                      text186      000000
__Htext187                                      text187      000000
__Htext188                                      text188      000000
__Htext189                                      text189      000000
__Htext19                                       text19       000000
__Htext190                                      text190      000000
__Htext191                                      text191      000000
__Htext192                                      text192      000000
__Htext193                                      text193      000000
__Htext194                                      text194      000000
__Htext195                                      text195      000000
__Htext196                                      text196      000000
__Htext197                                      text197      000000
__Htext198                                      text198      000000
__Htext199                                      text199      000000
__Htext2                                        text2        000000
__Htext20                                       text20       000000
__Htext200                                      text200      000000
__Htext201                                      text201      000000
__Htext202                                      text202      000000
__Htext203                                      text203      000000
__Htext204                                      text204      000000
__Htext205                                      text205      000000
__Htext206                                      text206      000000
__Htext207                                      text207      000000
__Htext208                                      text208      000000
__Htext209                                      text209      000000
__Htext21                                       text21       000000
__Htext210                                      text210      000000
__Htext211                                      text211      000000
__Htext212                                      text212      000000
__Htext213                                      text213      000000
__Htext214                                      text214      000000
__Htext215                                      text215      000000
__Htext216                                      text216      000000
__Htext217                                      text217      000000
__Htext218                                      text218      000000
__Htext219                                      text219      000000
__Htext22                                       text22       000000
__Htext220                                      text220      000000
__Htext221                                      text221      000000
__Htext222                                      text222      000000
__Htext223                                      text223      000000
__Htext224                                      text224      000000
__Htext225                                      text225      000000
__Htext226                                      text226      000000
__Htext227                                      text227      000000
__Htext228                                      text228      000000
__Htext229                                      text229      000000
__Htext23                                       text23       000000
__Htext230                                      text230      000000
__Htext231                                      text231      000000
__Htext232                                      text232      000000
__Htext233                                      text233      000000
__Htext234                                      text234      000000
__Htext235                                      text235      000000
__Htext236                                      text236      000000
__Htext237                                      text237      000000
__Htext238                                      text238      000000
__Htext239                                      text239      000000
__Htext24                                       text24       000000
__Htext240                                      text240      000000
__Htext241                                      text241      000000
__Htext242                                      text242      000000
__Htext243                                      text243      000000
__Htext244                                      text244      000000
__Htext245                                      text245      000000
__Htext246                                      text246      000000
__Htext247                                      text247      000000
__Htext248                                      text248      000000
__Htext249                                      text249      000000
__Htext25                                       text25       000000
__Htext250                                      text250      000000
__Htext251                                      text251      000000
__Htext252                                      text252      000000
__Htext253                                      text253      000000
__Htext254                                      text254      000000
__Htext255                                      text255      000000
__Htext256                                      text256      000000
__Htext257                                      text257      000000
__Htext258                                      text258      000000
__Htext259                                      text259      000000
__Htext26                                       text26       000000
__Htext260                                      text260      000000
__Htext261                                      text261      000000
__Htext262                                      text262      000000
__Htext263                                      text263      000000
__Htext264                                      text264      000000
__Htext265                                      text265      000000
__Htext266                                      text266      000000
__Htext267                                      text267      000000
__Htext268                                      text268      000000
__Htext269                                      text269      000000
__Htext27                                       text27       000000
__Htext270                                      text270      000000
__Htext271                                      text271      000000
__Htext272                                      text272      000000
__Htext273                                      text273      000000
__Htext274                                      text274      000000
__Htext275                                      text275      000000
__Htext276                                      text276      000000
__Htext277                                      text277      000000
__Htext278                                      text278      000000
__Htext279                                      text279      000000
__Htext28                                       text28       000000
__Htext280                                      text280      000000
__Htext281                                      text281      000000
__Htext282                                      text282      000000
__Htext283                                      text283      000000
__Htext284                                      text284      000000
__Htext285                                      text285      000000
__Htext286                                      text286      000000
__Htext287                                      text287      000000
__Htext288                                      text288      000000
__Htext289                                      text289      000000
__Htext29                                       text29       000000
__Htext290                                      text290      000000
__Htext291                                      text291      000000
__Htext292                                      text292      000000
__Htext293                                      text293      000000
__Htext294                                      text294      000000
__Htext295                                      text295      000000
__Htext296                                      text296      000000
__Htext297                                      text297      000000
__Htext298                                      text298      000000
__Htext299                                      text299      000000
__Htext3                                        text3        000000
__Htext30                                       text30       000000
__Htext300                                      text300      000000
__Htext301                                      text301      000000
__Htext302                                      text302      000000
__Htext303                                      text303      000000
__Htext304                                      text304      000000
__Htext305                                      text305      000000
__Htext306                                      text306      000000
__Htext307                                      text307      000000
__Htext308                                      text308      000000
__Htext309                                      text309      000000
__Htext31                                       text31       000000
__Htext310                                      text310      000000
__Htext311                                      text311      000000
__Htext312                                      text312      000000
__Htext313                                      text313      000000
__Htext314                                      text314      000000
__Htext315                                      text315      000000
__Htext316                                      text316      000000
__Htext317                                      text317      000000
__Htext318                                      text318      000000
__Htext319                                      text319      000000
__Htext32                                       text32       000000
__Htext320                                      text320      000000
__Htext321                                      text321      000000
__Htext322                                      text322      000000
__Htext323                                      text323      000000
__Htext324                                      text324      000000
__Htext325                                      text325      000000
__Htext326                                      text326      000000
__Htext327                                      text327      000000
__Htext328                                      text328      000000
__Htext329                                      text329      000000
__Htext33                                       text33       000000
__Htext330                                      text330      000000
__Htext331                                      text331      000000
__Htext332                                      text332      000000
__Htext333                                      text333      000000
__Htext334                                      text334      000000
__Htext335                                      text335      000000
__Htext336                                      text336      000000
__Htext337                                      text337      000000
__Htext338                                      text338      000000
__Htext339                                      text339      000000
__Htext34                                       text34       000000
__Htext340                                      text340      000000
__Htext341                                      text341      000000
__Htext342                                      text342      000000
__Htext343                                      text343      000000
__Htext344                                      text344      000000
__Htext345                                      text345      000000
__Htext346                                      text346      000000
__Htext347                                      text347      000000
__Htext348                                      text348      000000
__Htext349                                      text349      000000
__Htext35                                       text35       000000
__Htext350                                      text350      000000
__Htext351                                      text351      000000
__Htext352                                      text352      000000
__Htext353                                      text353      000000
__Htext354                                      text354      000000
__Htext355                                      text355      000000
__Htext356                                      text356      000000
__Htext357                                      text357      000000
__Htext358                                      text358      000000
__Htext359                                      text359      000000
__Htext36                                       text36       000000
__Htext360                                      text360      000000
__Htext361                                      text361      000000
__Htext362                                      text362      000000
__Htext363                                      text363      000000
__Htext364                                      text364      000000
__Htext365                                      text365      000000
__Htext366                                      text366      000000
__Htext367                                      text367      000000
__Htext368                                      text368      000000
__Htext369                                      text369      000000
__Htext37                                       text37       000000
__Htext370                                      text370      000000
__Htext371                                      text371      000000
__Htext372                                      text372      000000
__Htext373                                      text373      000000
__Htext374                                      text374      000000
__Htext375                                      text375      000000
__Htext376                                      text376      000000
__Htext377                                      text377      000000
__Htext378                                      text378      000000
__Htext379                                      text379      000000
__Htext38                                       text38       000000
__Htext380                                      text380      000000
__Htext381                                      text381      000000
__Htext382                                      text382      000000
__Htext383                                      text383      000000
__Htext39                                       text39       000000
__Htext4                                        text4        000000
__Htext40                                       text40       000000
__Htext41                                       text41       000000
__Htext42                                       text42       000000
__Htext43                                       text43       000000
__Htext44                                       text44       000000
__Htext45                                       text45       000000
__Htext46                                       text46       000000
__Htext47                                       text47       000000
__Htext48                                       text48       000000
__Htext49                                       text49       000000
__Htext5                                        text5        000000
__Htext50                                       text50       000000
__Htext51                                       text51       000000
__Htext52                                       text52       000000
__Htext53                                       text53       000000
__Htext54                                       text54       000000
__Htext55                                       text55       000000
__Htext56                                       text56       000000
__Htext57                                       text57       000000
__Htext58                                       text58       000000
__Htext59                                       text59       000000
__Htext6                                        text6        000000
__Htext60                                       text60       000000
__Htext61                                       text61       000000
__Htext62                                       text62       000000
__Htext63                                       text63       000000
__Htext64                                       text64       000000
__Htext65                                       text65       000000
__Htext66                                       text66       000000
__Htext67                                       text67       000000
__Htext68                                       text68       000000
__Htext69                                       text69       000000
__Htext7                                        text7        000000
__Htext70                                       text70       000000
__Htext71                                       text71       000000
__Htext72                                       text72       000000
__Htext73                                       text73       000000
__Htext74                                       text74       000000
__Htext75                                       text75       000000
__Htext76                                       text76       000000
__Htext77                                       text77       000000
__Htext78                                       text78       000000
__Htext79                                       text79       000000
__Htext8                                        text8        000000
__Htext80                                       text80       000000
__Htext81                                       text81       000000
__Htext82                                       text82       000000
__Htext83                                       text83       000000
__Htext84                                       text84       000000
__Htext85                                       text85       000000
__Htext86                                       text86       000000
__Htext87                                       text87       000000
__Htext88                                       text88       000000
__Htext89                                       text89       000000
__Htext9                                        text9        000000
__Htext90                                       text90       000000
__Htext91                                       text91       000000
__Htext92                                       text92       000000
__Htext93                                       text93       000000
__Htext94                                       text94       000000
__Htext95                                       text95       000000
__Htext96                                       text96       000000
__Htext97                                       text97       000000
__Htext98                                       text98       000000
__Htext99                                       text99       000000
__LRAM                                          (abs)        000001
__Labs1                                         abs1         000000
__Lbank0                                        bank0        000000
__Lbank1                                        bank1        000000
__Lbank10                                       bank10       000000
__Lbank11                                       bank11       000000
__Lbank12                                       bank12       000000
__Lbank13                                       bank13       000000
__Lbank14                                       bank14       000000
__Lbank15                                       bank15       000000
__Lbank2                                        bank2        000000
__Lbank3                                        bank3        000000
__Lbank4                                        bank4        000000
__Lbank5                                        bank5        000000
__Lbank6                                        bank6        000000
__Lbank7                                        bank7        000000
__Lbank8                                        bank8        000000
__Lbank9                                        bank9        000000
__Lbigbss                                       bigbss       000000
__Lbigdata                                      bigdata      000000
__Lbigram                                       bigram       000000
__Lbss                                          bss          000000
__LbssBANK0                                     bssBANK0     000000
__LbssBANK1                                     bssBANK1     000000
__LbssBANK2                                     bssBANK2     000000
__LbssBANK3                                     bssBANK3     000000
__LbssBANK4                                     bssBANK4     000000
__LbssBIGRAM                                    bssBIGRAM    000000
__Lcinit                                        cinit        000000
__Lclrtext                                      clrtext      000000
__Lcomram                                       comram       000000
__Lconfig                                       config       300000
__Lconst                                        const        000000
__LcstackBANK0                                  cstackBANK0  000000
__LcstackBANK1                                  cstackBANK1  000000
__LcstackBANK2                                  cstackBANK2  000000
__LcstackBANK3                                  cstackBANK3  000000
__LcstackCOMRAM                                 cstackCOMRAM 000000
__Ldata                                         data         000000
__LdataBANK1                                    dataBANK1    000000
__LdataBANK2                                    dataBANK2    000000
__LdataBIGRAM                                   dataBIGRAM   000000
__Leeprom_data                                  eeprom_data  000000
__Lfarbss                                       farbss       000000
__Lfardata                                      fardata      000000
__Libigdata                                     ibigdata     000000
__Lidata                                        idata        000000
__LidataBANK1                                   idataBANK1   000000
__LidataBANK2                                   idataBANK2   000000
__LidataBIGRAM                                  idataBIGRAM  000000
__Lidloc                                        idloc        200000
__Lifardata                                     ifardata     000000
__Linit                                         init         00001A
__Lintsave_regs                                 intsave_regs 000000
__Lirdata                                       irdata       000000
__Livt0x8                                       ivt0x8       000008
__Lmediumconst                                  mediumconst  00FC56
__LnvBANK2                                      nvBANK2      000000
__LnvFARRAM                                     nvFARRAM     000000
__Lnvbit                                        nvbit        000000
__Lnvrram                                       nvrram       000000
__Lparam                                        rparam       000000
__Lpowerup                                      powerup      000000
__Lram                                          ram          000000
__Lramtop                                       ramtop       001000
__Lrbit                                         rbit         000000
__Lrbss                                         rbss         000000
__Lrdata                                        rdata        000000
__Lreset_vec                                    reset_vec    000000
__Lrparam                                       rparam       000000
__Lsfr                                          sfr          000000
__Lsmallconst                                   smallconst   000000
__Lspace_0                                      (abs)        000000
__Lspace_1                                      (abs)        000000
__Lspace_2                                      (abs)        000000
__Lstack                                        stack        000000
__Lstruct                                       struct       000000
__Ltemp                                         temp         000000
__Ltext                                         text         000000
__Ltext0                                        text0        000000
__Ltext1                                        text1        000000
__Ltext10                                       text10       000000
__Ltext100                                      text100      000000
__Ltext101                                      text101      000000
__Ltext102                                      text102      000000
__Ltext103                                      text103      000000
__Ltext104                                      text104      000000
__Ltext105                                      text105      000000
__Ltext106                                      text106      000000
__Ltext107                                      text107      000000
__Ltext108                                      text108      000000
__Ltext109                                      text109      000000
__Ltext11                                       text11       000000
__Ltext110                                      text110      000000
__Ltext111                                      text111      000000
__Ltext112                                      text112      000000
__Ltext113                                      text113      000000
__Ltext114                                      text114      000000
__Ltext115                                      text115      000000
__Ltext116                                      text116      000000
__Ltext117                                      text117      000000
__Ltext118                                      text118      000000
__Ltext119                                      text119      000000
__Ltext12                                       text12       000000
__Ltext120                                      text120      000000
__Ltext121                                      text121      000000
__Ltext122                                      text122      000000
__Ltext123                                      text123      000000
__Ltext124                                      text124      000000
__Ltext125                                      text125      000000
__Ltext126                                      text126      000000
__Ltext127                                      text127      000000
__Ltext128                                      text128      000000
__Ltext129                                      text129      000000
__Ltext13                                       text13       000000
__Ltext130                                      text130      000000
__Ltext131                                      text131      000000
__Ltext132                                      text132      000000
__Ltext133                                      text133      000000
__Ltext134                                      text134      000000
__Ltext135                                      text135      000000
__Ltext136                                      text136      000000
__Ltext137                                      text137      000000
__Ltext138                                      text138      000000
__Ltext139                                      text139      000000
__Ltext14                                       text14       000000
__Ltext140                                      text140      000000
__Ltext141                                      text141      000000
__Ltext142                                      text142      000000
__Ltext143                                      text143      000000
__Ltext144                                      text144      000000
__Ltext145                                      text145      000000
__Ltext146                                      text146      000000
__Ltext147                                      text147      000000
__Ltext148                                      text148      000000
__Ltext149                                      text149      000000
__Ltext15                                       text15       000000
__Ltext150                                      text150      000000
__Ltext151                                      text151      000000
__Ltext152                                      text152      000000
__Ltext153                                      text153      000000
__Ltext154                                      text154      000000
__Ltext155                                      text155      000000
__Ltext156                                      text156      000000
__Ltext157                                      text157      000000
__Ltext158                                      text158      000000
__Ltext159                                      text159      000000
__Ltext16                                       text16       000000
__Ltext160                                      text160      000000
__Ltext161                                      text161      000000
__Ltext162                                      text162      000000
__Ltext163                                      text163      000000
__Ltext164                                      text164      000000
__Ltext165                                      text165      000000
__Ltext166                                      text166      000000
__Ltext167                                      text167      000000
__Ltext168                                      text168      000000
__Ltext169                                      text169      000000
__Ltext17                                       text17       000000
__Ltext170                                      text170      000000
__Ltext171                                      text171      000000
__Ltext172                                      text172      000000
__Ltext173                                      text173      000000
__Ltext174                                      text174      000000
__Ltext175                                      text175      000000
__Ltext176                                      text176      000000
__Ltext177                                      text177      000000
__Ltext178                                      text178      000000
__Ltext179                                      text179      000000
__Ltext18                                       text18       000000
__Ltext180                                      text180      000000
__Ltext181                                      text181      000000
__Ltext182                                      text182      000000
__Ltext183                                      text183      000000
__Ltext184                                      text184      000000
__Ltext185                                      text185      000000
__Ltext186                                      text186      000000
__Ltext187                                      text187      000000
__Ltext188                                      text188      000000
__Ltext189                                      text189      000000
__Ltext19                                       text19       000000
__Ltext190                                      text190      000000
__Ltext191                                      text191      000000
__Ltext192                                      text192      000000
__Ltext193                                      text193      000000
__Ltext194                                      text194      000000
__Ltext195                                      text195      000000
__Ltext196                                      text196      000000
__Ltext197                                      text197      000000
__Ltext198                                      text198      000000
__Ltext199                                      text199      000000
__Ltext2                                        text2        000000
__Ltext20                                       text20       000000
__Ltext200                                      text200      000000
__Ltext201                                      text201      000000
__Ltext202                                      text202      000000
__Ltext203                                      text203      000000
__Ltext204                                      text204      000000
__Ltext205                                      text205      000000
__Ltext206                                      text206      000000
__Ltext207                                      text207      000000
__Ltext208                                      text208      000000
__Ltext209                                      text209      000000
__Ltext21                                       text21       000000
__Ltext210                                      text210      000000
__Ltext211                                      text211      000000
__Ltext212                                      text212      000000
__Ltext213                                      text213      000000
__Ltext214                                      text214      000000
__Ltext215                                      text215      000000
__Ltext216                                      text216      000000
__Ltext217                                      text217      000000
__Ltext218                                      text218      000000
__Ltext219                                      text219      000000
__Ltext22                                       text22       000000
__Ltext220                                      text220      000000
__Ltext221                                      text221      000000
__Ltext222                                      text222      000000
__Ltext223                                      text223      000000
__Ltext224                                      text224      000000
__Ltext225                                      text225      000000
__Ltext226                                      text226      000000
__Ltext227                                      text227      000000
__Ltext228                                      text228      000000
__Ltext229                                      text229      000000
__Ltext23                                       text23       000000
__Ltext230                                      text230      000000
__Ltext231                                      text231      000000
__Ltext232                                      text232      000000
__Ltext233                                      text233      000000
__Ltext234                                      text234      000000
__Ltext235                                      text235      000000
__Ltext236                                      text236      000000
__Ltext237                                      text237      000000
__Ltext238                                      text238      000000
__Ltext239                                      text239      000000
__Ltext24                                       text24       000000
__Ltext240                                      text240      000000
__Ltext241                                      text241      000000
__Ltext242                                      text242      000000
__Ltext243                                      text243      000000
__Ltext244                                      text244      000000
__Ltext245                                      text245      000000
__Ltext246                                      text246      000000
__Ltext247                                      text247      000000
__Ltext248                                      text248      000000
__Ltext249                                      text249      000000
__Ltext25                                       text25       000000
__Ltext250                                      text250      000000
__Ltext251                                      text251      000000
__Ltext252                                      text252      000000
__Ltext253                                      text253      000000
__Ltext254                                      text254      000000
__Ltext255                                      text255      000000
__Ltext256                                      text256      000000
__Ltext257                                      text257      000000
__Ltext258                                      text258      000000
__Ltext259                                      text259      000000
__Ltext26                                       text26       000000
__Ltext260                                      text260      000000
__Ltext261                                      text261      000000
__Ltext262                                      text262      000000
__Ltext263                                      text263      000000
__Ltext264                                      text264      000000
__Ltext265                                      text265      000000
__Ltext266                                      text266      000000
__Ltext267                                      text267      000000
__Ltext268                                      text268      000000
__Ltext269                                      text269      000000
__Ltext27                                       text27       000000
__Ltext270                                      text270      000000
__Ltext271                                      text271      000000
__Ltext272                                      text272      000000
__Ltext273                                      text273      000000
__Ltext274                                      text274      000000
__Ltext275                                      text275      000000
__Ltext276                                      text276      000000
__Ltext277                                      text277      000000
__Ltext278                                      text278      000000
__Ltext279                                      text279      000000
__Ltext28                                       text28       000000
__Ltext280                                      text280      000000
__Ltext281                                      text281      000000
__Ltext282                                      text282      000000
__Ltext283                                      text283      000000
__Ltext284                                      text284      000000
__Ltext285                                      text285      000000
__Ltext286                                      text286      000000
__Ltext287                                      text287      000000
__Ltext288                                      text288      000000
__Ltext289                                      text289      000000
__Ltext29                                       text29       000000
__Ltext290                                      text290      000000
__Ltext291                                      text291      000000
__Ltext292                                      text292      000000
__Ltext293                                      text293      000000
__Ltext294                                      text294      000000
__Ltext295                                      text295      000000
__Ltext296                                      text296      000000
__Ltext297                                      text297      000000
__Ltext298                                      text298      000000
__Ltext299                                      text299      000000
__Ltext3                                        text3        000000
__Ltext30                                       text30       000000
__Ltext300                                      text300      000000
__Ltext301                                      text301      000000
__Ltext302                                      text302      000000
__Ltext303                                      text303      000000
__Ltext304                                      text304      000000
__Ltext305                                      text305      000000
__Ltext306                                      text306      000000
__Ltext307                                      text307      000000
__Ltext308                                      text308      000000
__Ltext309                                      text309      000000
__Ltext31                                       text31       000000
__Ltext310                                      text310      000000
__Ltext311                                      text311      000000
__Ltext312                                      text312      000000
__Ltext313                                      text313      000000
__Ltext314                                      text314      000000
__Ltext315                                      text315      000000
__Ltext316                                      text316      000000
__Ltext317                                      text317      000000
__Ltext318                                      text318      000000
__Ltext319                                      text319      000000
__Ltext32                                       text32       000000
__Ltext320                                      text320      000000
__Ltext321                                      text321      000000
__Ltext322                                      text322      000000
__Ltext323                                      text323      000000
__Ltext324                                      text324      000000
__Ltext325                                      text325      000000
__Ltext326                                      text326      000000
__Ltext327                                      text327      000000
__Ltext328                                      text328      000000
__Ltext329                                      text329      000000
__Ltext33                                       text33       000000
__Ltext330                                      text330      000000
__Ltext331                                      text331      000000
__Ltext332                                      text332      000000
__Ltext333                                      text333      000000
__Ltext334                                      text334      000000
__Ltext335                                      text335      000000
__Ltext336                                      text336      000000
__Ltext337                                      text337      000000
__Ltext338                                      text338      000000
__Ltext339                                      text339      000000
__Ltext34                                       text34       000000
__Ltext340                                      text340      000000
__Ltext341                                      text341      000000
__Ltext342                                      text342      000000
__Ltext343                                      text343      000000
__Ltext344                                      text344      000000
__Ltext345                                      text345      000000
__Ltext346                                      text346      000000
__Ltext347                                      text347      000000
__Ltext348                                      text348      000000
__Ltext349                                      text349      000000
__Ltext35                                       text35       000000
__Ltext350                                      text350      000000
__Ltext351                                      text351      000000
__Ltext352                                      text352      000000
__Ltext353                                      text353      000000
__Ltext354                                      text354      000000
__Ltext355                                      text355      000000
__Ltext356                                      text356      000000
__Ltext357                                      text357      000000
__Ltext358                                      text358      000000
__Ltext359                                      text359      000000
__Ltext36                                       text36       000000
__Ltext360                                      text360      000000
__Ltext361                                      text361      000000
__Ltext362                                      text362      000000
__Ltext363                                      text363      000000
__Ltext364                                      text364      000000
__Ltext365                                      text365      000000
__Ltext366                                      text366      000000
__Ltext367                                      text367      000000
__Ltext368                                      text368      000000
__Ltext369                                      text369      000000
__Ltext37                                       text37       000000
__Ltext370                                      text370      000000
__Ltext371                                      text371      000000
__Ltext372                                      text372      000000
__Ltext373                                      text373      000000
__Ltext374                                      text374      000000
__Ltext375                                      text375      000000
__Ltext376                                      text376      000000
__Ltext377                                      text377      000000
__Ltext378                                      text378      000000
__Ltext379                                      text379      000000
__Ltext38                                       text38       000000
__Ltext380                                      text380      000000
__Ltext381                                      text381      000000
__Ltext382                                      text382      000000
__Ltext383                                      text383      000000
__Ltext39                                       text39       000000
__Ltext4                                        text4        000000
__Ltext40                                       text40       000000
__Ltext41                                       text41       000000
__Ltext42                                       text42       000000
__Ltext43                                       text43       000000
__Ltext44                                       text44       000000
__Ltext45                                       text45       000000
__Ltext46                                       text46       000000
__Ltext47                                       text47       000000
__Ltext48                                       text48       000000
__Ltext49                                       text49       000000
__Ltext5                                        text5        000000
__Ltext50                                       text50       000000
__Ltext51                                       text51       000000
__Ltext52                                       text52       000000
__Ltext53                                       text53       000000
__Ltext54                                       text54       000000
__Ltext55                                       text55       000000
__Ltext56                                       text56       000000
__Ltext57                                       text57       000000
__Ltext58                                       text58       000000
__Ltext59                                       text59       000000
__Ltext6                                        text6        000000
__Ltext60                                       text60       000000
__Ltext61                                       text61       000000
__Ltext62                                       text62       000000
__Ltext63                                       text63       000000
__Ltext64                                       text64       000000
__Ltext65                                       text65       000000
__Ltext66                                       text66       000000
__Ltext67                                       text67       000000
__Ltext68                                       text68       000000
__Ltext69                                       text69       000000
__Ltext7                                        text7        000000
__Ltext70                                       text70       000000
__Ltext71                                       text71       000000
__Ltext72                                       text72       000000
__Ltext73                                       text73       000000
__Ltext74                                       text74       000000
__Ltext75                                       text75       000000
__Ltext76                                       text76       000000
__Ltext77                                       text77       000000
__Ltext78                                       text78       000000
__Ltext79                                       text79       000000
__Ltext8                                        text8        000000
__Ltext80                                       text80       000000
__Ltext81                                       text81       000000
__Ltext82                                       text82       000000
__Ltext83                                       text83       000000
__Ltext84                                       text84       000000
__Ltext85                                       text85       000000
__Ltext86                                       text86       000000
__Ltext87                                       text87       000000
__Ltext88                                       text88       000000
__Ltext89                                       text89       000000
__Ltext9                                        text9        000000
__Ltext90                                       text90       000000
__Ltext91                                       text91       000000
__Ltext92                                       text92       000000
__Ltext93                                       text93       000000
__Ltext94                                       text94       000000
__Ltext95                                       text95       000000
__Ltext96                                       text96       000000
__Ltext97                                       text97       000000
__Ltext98                                       text98       000000
__Ltext99                                       text99       000000
__S0                                            (abs)        30000A
__S1                                            (abs)        000AA3
__S2                                            (abs)        000000
___aldiv                                        text151      006B68
___aldiv@counter                                cstackBANK1  000118
___aldiv@dividend                               cstackBANK1  000110
___aldiv@divisor                                cstackBANK1  000114
___aldiv@quotient                               cstackBANK1  00011A
___aldiv@sign                                   cstackBANK1  000119
___aodiv                                        text174      0059B0
___aodiv@counter                                cstackBANK1  000114
___aodiv@dividend                               cstackBANK1  000104
___aodiv@divisor                                cstackBANK1  00010C
___aodiv@quotient                               cstackBANK1  000116
___aodiv@sign                                   cstackBANK1  000115
___aomod                                        text173      005EE4
___aomod@counter                                cstackBANK1  000114
___aomod@dividend                               cstackBANK1  000104
___aomod@divisor                                cstackBANK1  00010C
___aomod@sign                                   cstackBANK1  000115
___awdiv                                        text198      007F3A
___awdiv@counter                                cstackBANK1  00010E
___awdiv@dividend                               cstackBANK1  00010A
___awdiv@divisor                                cstackBANK1  00010C
___awdiv@quotient                               cstackBANK1  000110
___awdiv@sign                                   cstackBANK1  00010F
___awmod                                        text186      0082C6
___awmod@counter                                cstackBANK1  000108
___awmod@dividend                               cstackBANK1  000104
___awmod@divisor                                cstackBANK1  000106
___awmod@sign                                   cstackBANK1  000109
___inthi_sp                                     stack        000000
___intlo_sp                                     stack        000000
___lldiv                                        text254      007EB0
___lldiv@counter                                cstackCOMRAM 00000D
___lldiv@dividend                               cstackCOMRAM 000001
___lldiv@divisor                                cstackCOMRAM 000005
___lldiv@quotient                               cstackCOMRAM 000009
___llmod                                        text3        008502
___llmod@counter                                cstackBANK1  00010C
___llmod@dividend                               cstackBANK1  000104
___llmod@divisor                                cstackBANK1  000108
___lmul                                         text150      008B26
___lmul@multiplicand                            cstackBANK1  000108
___lmul@multiplier                              cstackBANK1  000104
___lmul@product                                 cstackBANK1  00010C
___lwdiv                                        text253      008C90
___lwdiv@counter                                cstackCOMRAM 000007
___lwdiv@dividend                               cstackCOMRAM 000001
___lwdiv@divisor                                cstackCOMRAM 000003
___lwdiv@quotient                               cstackCOMRAM 000005
___param_bank                                   (abs)        000000
___rparam_used                                  (abs)        000001
___sp                                           stack        000000
___wmul                                         text185      0098C0
___wmul@multiplicand                            cstackBANK1  000106
___wmul@multiplier                              cstackBANK1  000104
___wmul@product                                 cstackBANK1  000108
__accesstop                                     (abs)        000060
__activetblptr                                  (abs)        000003
__end_of_ADCC_DefaultInterruptHandler           text350      00A6BA
__end_of_ADCC_GetConversionResult               text382      00A06E
__end_of_ADCC_Initialize                        text36       008726
__end_of_ADCC_IsConversionDone                  text381      00A3A2
__end_of_ADCC_SetADTIInterruptHandler           text53       00A21A
__end_of_ADCC_StartConversion                   text52       00A12C
__end_of_ADCC_ThresholdISR                      text349      009CCE
__end_of_AdcDataReady                           text157      009A50
__end_of_AdcGetData                             text152      008998
__end_of_AdcHandler                             text351      00614C
__end_of_AdcInit                                text51       0082C6
__end_of_AdcReStartCycle                        text267      008A62
__end_of_AdcReady                               text380      00A634
__end_of_AdcSeeData                             text58       00932E
__end_of_AlarmCheckTask                         text104      004F7A
__end_of_AlarmClear                             text204      009DD6
__end_of_AlarmDisplay                           text160      007AA0
__end_of_AlarmHandler                           text217      008864
__end_of_AlarmInit                              text99       008252
__end_of_AlarmSet                               text203      009DB6
__end_of_AlarmUpdateLCD                         text158      005DA2
__end_of_AnyAlarm                               text202      00951C
__end_of_BaterryLowAlarmHigh                    text114      00A66C
__end_of_BaterryLowAlarmMed                     text115      00A670
__end_of_BatteryFailAlarm                       text122      006A90
__end_of_ButtonInit                             text96       0099FE
__end_of_ButtonTask                             text231      0066D4
__end_of_BuzzerCMPHandler                       text347      009BD0
__end_of_BuzzerCheck                            text95       007D94
__end_of_BuzzerClear                            text141      00A14C
__end_of_BuzzerHandler                          text221      00A5E0
__end_of_BuzzerInit                             text102      009864
__end_of_BuzzerOff                              text143      00A15C
__end_of_BuzzerOn                               text139      009E92
__end_of_BuzzerSet                              text131      009FA4
__end_of_BuzzerTask                             text132      002D48
__end_of_BuzzerTest                             text94       007EB0
__end_of_BuzzerTestHandler                      text220      00994A
__end_of_CMP1_Disable                           text144      00A4E8
__end_of_CMP1_Enable                            text140      00A4E0
__end_of_CMP1_ISR                               text346      009D56
__end_of_CMP1_Initialize                        text35       009D76
__end_of_CMP1_SetIntHandler                     text103      00A2B4
__end_of_CircuitFailureAlarm                    text116      00A674
__end_of_ClearAlarmLED                          text130      00A42A
__end_of_ClearAllAlarm                          text316      00910A
__end_of_ClearBaterryLowAlarmHigh               text156      00A5CE
__end_of_ClearBaterryLowAlarmMed                text155      00A5C8
__end_of_ClearBatteryFailAlarm                  text154      00A4F8
__end_of_ClearCircuitFailureAlarm               text50       00A4A0
__end_of_ClearControlFailAlarm                  text41       00A498
__end_of_ClearEPAboveSetAlarm                   text49       009FEA
__end_of_ClearEPBelowSetAlarm                   text48       00A0AA
__end_of_ClearGasFailureAlarm                   text40       00A490
__end_of_ClearHighPressureAlarmHigh             text39       00A488
__end_of_ClearHighPressureAlarmLow              text335      00A61C
__end_of_ClearIPAboveSetAlarm                   text47       00A096
__end_of_ClearIPBelowSetAlarm                   text46       00A082
__end_of_ClearMonitorFailAlarm                  text138      00A4D8
__end_of_ClearNoPowerSupplyAlarm                text153      00A5C2
__end_of_ClearTdeTooLongAlarm                   text334      00A590
__end_of_ClearTdiTooLongAlarm                   text333      00A588
__end_of_ClearVAboveMaxAlarm                    text332      00A580
__end_of_ClearVBelowMinAlarm                    text331      00A616
__end_of_ClearVars                              text45       004330
__end_of_ClearVeryHighPressureAlarmHigh         text38       00A480
__end_of_ControlFailAlarm                       text120      00A0BE
__end_of_ControllerBuzzerCheck                  text314      00A402
__end_of_ControllerInit                         text78       0092F0
__end_of_ControllerTimerHandler                 text213      0080D0
__end_of_DisableAlarmSV1                        text77       00A4C0
__end_of_DisplayCalibrate                       text266      009700
__end_of_DisplayDisable                         text294      00A11C
__end_of_DisplayEnable                          text293      00A18C
__end_of_DisplayTask                            text70       0075A0
__end_of_DumpI2C                                text69       00A6AA
__end_of_EPAboveSetAlarm                        text112      009F70
__end_of_EPBelowSetAlarm                        text113      009F8A
__end_of_EnableAlarmSV1                         text68       00A4B8
__end_of_FVR_Initialize                         text34       00A478
__end_of_GasFailureAlarm                        text119      00A67C
__end_of_Get12V                                 text149      007A06
__end_of_Get5V                                  text126      00864C
__end_of_GetAlarmState                          text201      008FCE
__end_of_GetBpm                                 text200      00A308
__end_of_GetControllerBuzzerCheck               text292      00A10A
__end_of_GetDisableAlarmSV1                     text199      00A5D4
__end_of_GetEp                                  text197      00991C
__end_of_GetIp                                  text196      0050F6
__end_of_GetMaxPressure                         text129      0093AA
__end_of_GetPmax                                text195      009B38
__end_of_GetPressureV_pa                        text12       007790
__end_of_GetPressure_mbar02                     text265      009664
__end_of_GetPressure_pa                         text11       004DF6
__end_of_GetSpr                                 text194      00A2FA
__end_of_GetTargetEp                            text193      009B12
__end_of_GetTargetIp                            text192      009AEC
__end_of_GetTde                                 text191      00A3DE
__end_of_GetTdi                                 text190      00A2EC
__end_of_GetTe                                  text189      00A0E6
__end_of_GetTi                                  text188      00A0D2
__end_of_GetVolume                              text187      00A2DE
__end_of_HighPressureAlarmHigh                  text117      00A678
__end_of_HighPressureAlarmLow                   text118      0081D4
__end_of_HigherAlarm                            text159      007238
__end_of_HistAlarm                              text66       0065D0
__end_of_I2C2_Initialize                        text33       00A0F8
__end_of_I2C2_Isr                               text268      0088CC
__end_of_I2C2_Open                              text83       008932
__end_of_I2C2_Read                              text341      00A628
__end_of_I2C2_SlaveClearBuff                    text345      00A6A8
__end_of_I2C2_SlaveClearStopFlag                text344      00A6A4
__end_of_I2C2_SlaveDefRdInterruptHandler        text339      00A466
__end_of_I2C2_SlaveEnableIrq                    text93       00A000
__end_of_I2C2_SlaveGetRxData                    text342      00A62E
__end_of_I2C2_SlaveIsRxBufFull                  text343      00A386
__end_of_I2C2_SlaveOpen                         text92       00A420
__end_of_I2C2_SlaveRdCallBack                   text338      009E56
__end_of_I2C2_SlaveReleaseClock                 text337      00A622
__end_of_I2C2_SlaveSetAddrIntHandler            text91       00A28A
__end_of_I2C2_SlaveSetBusColIntHandler          text90       00A27C
__end_of_I2C2_SlaveSetCounter                   text336      00A45C
__end_of_I2C2_SlaveSetIsrHandler                text89       00A26E
__end_of_I2C2_SlaveSetReadIntHandler            text88       00A260
__end_of_I2C2_SlaveSetSlaveAddr                 text87       00A3BA
__end_of_I2C2_SlaveSetSlaveMask                 text86       00A13C
__end_of_I2C2_SlaveSetStopIntHandler            text82       00A236
__end_of_I2C2_SlaveSetWrColIntHandler           text85       00A252
__end_of_I2C2_SlaveSetWriteIntHandler           text84       00A244
__end_of_I2C2_SlaveStopCallBack                 text269      009E36
__end_of_INTERRUPT_Initialize                   text32       00A640
__end_of_INTERRUPT_InterruptManager             text205      0068C8
__end_of_IPAboveSetAlarm                        text110      009F3C
__end_of_IPBelowSetAlarm                        text111      009F56
__end_of_InitDisplay                            text62       00A3AE
__end_of_LCDInit                                text63       0069AC
__end_of_LCDMessage                             text75       007832
__end_of_LCDMessage1                            text73       009D96
__end_of_LCDMessage12                           text72       00936C
__end_of_LCDMessage2                            text71       009AC6
__end_of_LCDOff                                 text61       00A416
__end_of_LCDOn                                  text60       00A40C
__end_of_LCDTest                                text65       007E24
__end_of_LCDWrite4                              text64       0090BC
__end_of_LCDWriteChar                           text76       007CFE
__end_of_LCDWriteCmd                            text74       007C68
__end_of_MonitorDisable                         text59       00A4B0
__end_of_MonitorDump                            text55       003428
__end_of_MonitorEnable                          text54       00A4A8
__end_of_MonitorFailAlarm                       text121      006B68
__end_of_MonitorInit                            text42       008420
__end_of_MonitorPressureTask                    text246      0012AE
__end_of_MuteAlarm                              text37       00476E
__end_of_NoPowerSupplyAlarm                     text105      00A658
__end_of_OSCILLATOR_Initialize                  text31       009FD4
__end_of_PIN_MANAGER_Initialize                 text30       007186
__end_of_PMD_Initialize                         text29       009C3E
__end_of_PWM6_Initialize                        text28       009FBC
__end_of_ReceiveHandler                         text340      009154
__end_of_SYSTEM_Initialize                      text15       0092B0
__end_of_See12V                                 text57       00796C
__end_of_See5V                                  text56       0085DE
__end_of_SeePressureV_pa                        text14       008152
__end_of_SeePressure_pa                         text13       0059B0
__end_of_SetAlarmLED                            text125      00A2C2
__end_of_SetAlarmSV1                            text124      0096CC
__end_of_SetBaterryLowAlarmHigh                 text148      00A5BC
__end_of_SetBaterryLowAlarmMed                  text147      00A5B6
__end_of_SetBatteryFailAlarm                    text146      00A4F0
__end_of_SetCalibrateState                      text8        0064C8
__end_of_SetCircuitFailureAlarm                 text264      00A5F8
__end_of_SetControlFailAlarm                    text291      00A538
__end_of_SetEPAboveSetAlarm                     text263      009ECE
__end_of_SetEPBelowSetAlarm                     text262      009EB0
__end_of_SetGasFailureAlarm                     text261      00A518
__end_of_SetHighPressureAlarmHigh               text128      00A5AA
__end_of_SetIPAboveSetAlarm                     text260      009E16
__end_of_SetIPBelowSetAlarm                     text259      009DF6
__end_of_SetMaxPressure                         text290      00A332
__end_of_SetMonitorFailAlarm                    text137      00A4D0
__end_of_SetNoPowerSupplyAlarm                  text145      00A5B0
__end_of_SetSV1                                 text7        009698
__end_of_SetTarget                              text288      006EA6
__end_of_SetTdeTooLongAlarm                     text258      00A510
__end_of_SetTdiTooLongAlarm                     text257      00A508
__end_of_SetVAboveMaxAlarm                      text256      00A500
__end_of_SetVBelowMinAlarm                      text255      00A5F2
__end_of_SetVeryHighPressureAlarmHigh           text127      00A4C8
__end_of_SetVolumeControl                       text287      00A452
__end_of_StopHandler                            text270      008D3C
__end_of_TMR0_DefaultInterruptHandler           text247      00A6B8
__end_of_TMR0_ISR                               text245      009D34
__end_of_TMR0_Initialize                        text27       009C1A
__end_of_TMR0_SetInterruptHandler               text44       00A20C
__end_of_TMR0_StartTimer                        text43       00A644
__end_of_TMR0_StopTimer                         text10       00A63C
__end_of_TMR1_DefaultInterruptHandler           text232      00A6B6
__end_of_TMR1_ISR                               text229      009834
__end_of_TMR1_Initialize                        text26       008E38
__end_of_TMR1_SetInterruptHandler               text98       00A298
__end_of_TMR1_StartTimer                        text97       00A650
__end_of_TMR1_WriteTimer                        text230      009CAA
__end_of_TMR2_Initialize                        text25       009E74
__end_of_TMR4_DefaultInterruptHandler           text222      00A6B4
__end_of_TMR4_ISR                               text219      009D12
__end_of_TMR4_Initialize                        text24       0098C0
__end_of_TMR4_Period8BitSet                     text136      00A3C6
__end_of_TMR4_SetInterruptHandler               text135      00A2D0
__end_of_TMR4_Start                             text134      00A684
__end_of_TMR4_Stop                              text142      00A688
__end_of_TMR5_DefaultInterruptHandler           text218      00A6B2
__end_of_TMR5_ISR                               text215      009802
__end_of_TMR5_Initialize                        text23       008F7E
__end_of_TMR5_SetInterruptHandler               text101      00A2A6
__end_of_TMR5_StartTimer                        text100      00A654
__end_of_TMR5_StopTimer                         text67       00A648
__end_of_TMR5_WriteTimer                        text216      009C86
__end_of_TMR6_DefaultInterruptHandler           text214      00A6B0
__end_of_TMR6_ISR                               text212      009CF0
__end_of_TMR6_Initialize                        text22       009892
__end_of_TMR6_SetInterruptHandler               text81       00A228
__end_of_TMR6_Start                             text80       00A64C
__end_of_TMR6_StartTimer                        text79       00A5A4
__end_of_TdeTooLongAlarm                        text108      00A664
__end_of_TdiTooLongAlarm                        text109      00A668
__end_of_TestAlarm                              text5        00744A
__end_of_UART1_DefaultErrorHandler              text210      00A5DA
__end_of_UART1_DefaultFramingErrorHandler       text209      00A6AE
__end_of_UART1_DefaultOverrunErrorHandler       text208      00A6AC
__end_of_UART1_Initialize                       text16       006F66
__end_of_UART1_Read                             text2        00919C
__end_of_UART1_Receive_ISR                      text207      0078D2
__end_of_UART1_RxDataHandler                    text211      009C62
__end_of_UART1_SetErrorHandler                  text21       00A1FE
__end_of_UART1_SetFramingErrorHandler           text20       00A1F0
__end_of_UART1_SetOverrunErrorHandler           text19       00A1E2
__end_of_UART1_SetRxInterruptHandler            text18       00A1D4
__end_of_UART1_SetTxInterruptHandler            text17       00A1C6
__end_of_UART1_Transmit_ISR                     text206      0091E4
__end_of_UART1_Write                            text181      008C90
__end_of_UART1_is_rx_ready                      text4        00A1AA
__end_of_UnDisplayCalibrate                     text9        00A1B8
__end_of_UpdateState                            text271      0040E2
__end_of_VAboveMaxAlarm                         text107      00A660
__end_of_VBelowMinAlarm                         text106      00A65C
__end_of_ValueDisplay                           text161      0025F6
__end_of_VeryHighPressureAlarmHigh              text123      00A680
__end_of___aldiv                                text151      006C3C
__end_of___aodiv                                text174      005B08
__end_of___aomod                                text173      006018
__end_of___awdiv                                text198      007FC2
__end_of___awmod                                text186      00833A
__end_of___lldiv                                text254      007F3A
__end_of___llmod                                text3        008570
__end_of___lmul                                 text150      008B84
__end_of___lwdiv                                text253      008CE6
__end_of___wmul                                 text185      0098EE
__end_of__initialization                        cinit        006DD6
__end_of_abs                                    text172      0093E8
__end_of_atoi                                   text182      0056D2
__end_of_ctoa                                   text175      008AC4
__end_of_dtoa                                   text171      003988
__end_of_fputc                                  text179      00701E
__end_of_fputs                                  text178      009426
__end_of_getch                                  text1        00A59E
__end_of_isalpha                                text169      0095F8
__end_of_isdigit                                text184      00962E
__end_of_islower                                text167      00958C
__end_of_isqrt                                  text252      007646
__end_of_isspace                                text183      00922A
__end_of_isupper                                text168      0095C2
__end_of_main                                   text0        0030C8
__end_of_pad                                    text176      0072EA
__end_of_printf                                 text133      009A28
__end_of_putch                                  text180      00A3D2
__end_of_putchar                                text6        009F22
__end_of_sprintf                                text162      008C3A
__end_of_stoa                                   text170      0053EA
__end_of_strlen                                 text177      008DE6
__end_of_toupper                                text166      008E8A
__end_of_vfpfcnvrt                              text164      001E6C
__end_of_vfprintf                               text163      008492
__end_of_xtoa                                   text165      003E88
__end_ofi2_ADCC_Initialize                      text378      008792
__end_ofi2_ADCC_SetADTIInterruptHandler         text379      00A394
__end_ofi2_ADCC_StartConversion                 text377      00A19C
__end_ofi2_AdcDataReady                         text251      009A78
__end_ofi2_AdcGetData                           text280      0089FE
__end_ofi2_AdcInit                              text375      008502
__end_ofi2_AdcSeeData                           text250      009464
__end_ofi2_AlarmDisplay                         text243      007BD2
__end_ofi2_AlarmUpdateLCD                       text241      005EE4
__end_ofi2_AnyAlarm                             text313      009556
__end_ofi2_BuzzerClear                          text235      00A16C
__end_ofi2_BuzzerOff                            text237      00A17C
__end_ofi2_BuzzerOn                             text228      009F08
__end_ofi2_BuzzerTask                           text223      0029A0
__end_ofi2_CMP1_Disable                         text348      00A598
__end_ofi2_CMP1_Enable                          text315      00A540
__end_ofi2_ClearBaterryLowAlarmHigh             text330      00A610
__end_ofi2_ClearBaterryLowAlarmMed              text329      00A60A
__end_ofi2_ClearBatteryFailAlarm                text328      00A578
__end_ofi2_ClearCircuitFailureAlarm             text327      00A570
__end_ofi2_ClearControlFailAlarm                text326      00A568
__end_ofi2_ClearEPAboveSetAlarm                 text325      00A058
__end_ofi2_ClearEPBelowSetAlarm                 text324      00A042
__end_ofi2_ClearGasFailureAlarm                 text323      00A560
__end_ofi2_ClearHighPressureAlarmHigh           text322      00A558
__end_ofi2_ClearIPAboveSetAlarm                 text321      00A02C
__end_ofi2_ClearIPBelowSetAlarm                 text320      00A016
__end_ofi2_ClearMonitorFailAlarm                text319      00A550
__end_ofi2_ClearNoPowerSupplyAlarm              text318      00A604
__end_ofi2_ClearVars                            text281      00457C
__end_ofi2_ClearVeryHighPressureAlarmHigh       text317      00A548
__end_ofi2_DisableAlarmSV1                      text244      00A5EC
__end_ofi2_EnableAlarmSV1                       text286      00A530
__end_ofi2_GetAlarmState                        text312      00901E
__end_ofi2_GetBpm                               text311      00A378
__end_ofi2_GetDisableAlarmSV1                   text310      00A5FE
__end_ofi2_GetEp                                text308      009AA0
__end_ofi2_GetIp                                text307      005272
__end_ofi2_GetPmax                              text306      009BAA
__end_ofi2_GetPressureV_pa                      text279      0076EC
__end_ofi2_GetPressure_pa                       text277      004C72
__end_ofi2_GetSpr                               text305      00A36A
__end_ofi2_GetTargetEp                          text304      009B84
__end_ofi2_GetTargetIp                          text303      009B5E
__end_ofi2_GetTde                               text302      00A3F6
__end_ofi2_GetTdi                               text301      00A35C
__end_ofi2_GetTe                                text300      00A3EA
__end_ofi2_GetTi                                text299      00A34E
__end_ofi2_GetVolume                            text298      00A340
__end_ofi2_HigherAlarm                          text242      00739C
__end_ofi2_HistAlarm                            text238      0067D4
__end_ofi2_LCDOff                               text285      00A448
__end_ofi2_LCDOn                                text284      00A43E
__end_ofi2_MonitorDisable                       text283      00A528
__end_ofi2_MonitorEnable                        text282      00A520
__end_ofi2_MuteAlarm                            text233      00495C
__end_ofi2_See12V                               text249      007B3A
__end_ofi2_See5V                                text248      0086BA
__end_ofi2_SetAlarmSV1                          text234      009978
__end_ofi2_SetCalibrateState                    text273      0063A6
__end_ofi2_SetMonitorFailAlarm                  text227      00A5E6
__end_ofi2_SetSV1                               text272      0099A6
__end_ofi2_TMR0_StartTimer                      text276      00A6A0
__end_ofi2_TMR0_StopTimer                       text275      00A69C
__end_ofi2_TMR4_Period8BitSet                   text226      00A434
__end_ofi2_TMR4_SetInterruptHandler             text225      00A316
__end_ofi2_TMR4_Start                           text224      00A68C
__end_ofi2_TMR4_Stop                            text236      00A690
__end_ofi2_TMR5_StartTimer                      text240      00A698
__end_ofi2_TMR5_StopTimer                       text239      00A694
__end_ofi2_UART1_Write                          text371      008D92
__end_ofi2_UnDisplayCalibrate                   text274      00A324
__end_ofi2_ValueDisplay                         text295      002238
__end_ofi2___aldiv                              text289      006D10
__end_ofi2___aodiv                              text364      005C60
__end_ofi2___aomod                              text363      006280
__end_ofi2___awdiv                              text309      00804A
__end_ofi2___awmod                              text297      0083AE
__end_ofi2___lmul                               text278      008BE2
__end_ofi2___wmul                               text376      0099D4
__end_ofi2_abs                                  text362      0094A2
__end_ofi2_atoi                                 text372      005842
__end_ofi2_ctoa                                 text365      008B26
__end_ofi2_dtoa                                 text361      0036DA
__end_ofi2_fputc                                text369      0074F8
__end_ofi2_fputs                                text368      0094E0
__end_ofi2_isalpha                              text359      00979C
__end_ofi2_isdigit                              text374      0097D0
__end_ofi2_islower                              text357      009734
__end_ofi2_isspace                              text373      00926E
__end_ofi2_isupper                              text358      009768
__end_ofi2_pad                                  text366      0070D4
__end_ofi2_printf                               text352      009BF6
__end_ofi2_putch                                text370      00A470
__end_ofi2_sprintf                              text296      008EDC
__end_ofi2_stoa                                 text360      005562
__end_ofi2_strlen                               text367      00906E
__end_ofi2_toupper                              text356      008F2E
__end_ofi2_vfpfcnvrt                            text354      00189A
__end_ofi2_vfprintf                             text353      0087FC
__end_ofi2_xtoa                                 text355      003C0A
__initialization                                cinit        006D10
__mediumconst                                   mediumconst  00FC56
__pbssBANK0                                     bssBANK0     0000C8
__pbssBANK1                                     bssBANK1     0001C7
__pbssBANK2                                     bssBANK2     000200
__pbssBANK3                                     bssBANK3     000300
__pbssBANK4                                     bssBANK4     000400
__pbssBIGRAM                                    bssBIGRAM    000464
__pcinit                                        cinit        006D10
__pcstackBANK0                                  cstackBANK0  000060
__pcstackBANK1                                  cstackBANK1  000100
__pcstackBANK2                                  cstackBANK2  0002F5
__pcstackBANK3                                  cstackBANK3  0003F9
__pcstackCOMRAM                                 cstackCOMRAM 000001
__pdataBANK1                                    dataBANK1    0001F8
__pdataBANK2                                    dataBANK2    0002BC
__pdataBIGRAM                                   dataBIGRAM   000914
__pidataBANK1                                   idataBANK1   00A634
__pidataBANK2                                   idataBANK2   009ECE
__pidataBIGRAM                                  idataBIGRAM  00495C
__pivt0x8                                       ivt0x8       000008
__pmediumconst                                  mediumconst  00FC56
__pnvBANK2                                      nvBANK2      0002D9
__ptext0                                        text0        002D48
__ptext1                                        text1        00A598
__ptext10                                       text10       00A638
__ptext100                                      text100      00A650
__ptext101                                      text101      00A298
__ptext102                                      text102      009834
__ptext103                                      text103      00A2A6
__ptext104                                      text104      004DF6
__ptext105                                      text105      00A654
__ptext106                                      text106      00A658
__ptext107                                      text107      00A65C
__ptext108                                      text108      00A660
__ptext109                                      text109      00A664
__ptext11                                       text11       004C72
__ptext110                                      text110      009F22
__ptext111                                      text111      009F3C
__ptext112                                      text112      009F56
__ptext113                                      text113      009F70
__ptext114                                      text114      00A668
__ptext115                                      text115      00A66C
__ptext116                                      text116      00A670
__ptext117                                      text117      00A674
__ptext118                                      text118      008152
__ptext119                                      text119      00A678
__ptext12                                       text12       0076EC
__ptext120                                      text120      00A0AA
__ptext121                                      text121      006A90
__ptext122                                      text122      0069AC
__ptext123                                      text123      00A67C
__ptext124                                      text124      009698
__ptext125                                      text125      00A2B4
__ptext126                                      text126      0085DE
__ptext127                                      text127      00A4C0
__ptext128                                      text128      00A5A4
__ptext129                                      text129      00936C
__ptext13                                       text13       005842
__ptext130                                      text130      00A420
__ptext131                                      text131      009F8A
__ptext132                                      text132      0029A0
__ptext133                                      text133      0099FE
__ptext134                                      text134      00A680
__ptext135                                      text135      00A2C2
__ptext136                                      text136      00A3BA
__ptext137                                      text137      00A4C8
__ptext138                                      text138      00A4D0
__ptext139                                      text139      009E74
__ptext14                                       text14       0080D0
__ptext140                                      text140      00A4D8
__ptext141                                      text141      00A13C
__ptext142                                      text142      00A684
__ptext143                                      text143      00A14C
__ptext144                                      text144      00A4E0
__ptext145                                      text145      00A5AA
__ptext146                                      text146      00A4E8
__ptext147                                      text147      00A5B0
__ptext148                                      text148      00A5B6
__ptext149                                      text149      00796C
__ptext15                                       text15       00926E
__ptext150                                      text150      008B26
__ptext151                                      text151      006B68
__ptext152                                      text152      008932
__ptext153                                      text153      00A5BC
__ptext154                                      text154      00A4F0
__ptext155                                      text155      00A5C2
__ptext156                                      text156      00A5C8
__ptext157                                      text157      009A28
__ptext158                                      text158      005C60
__ptext159                                      text159      007186
__ptext16                                       text16       006EA6
__ptext160                                      text160      007A06
__ptext161                                      text161      002238
__ptext162                                      text162      008BE2
__ptext163                                      text163      008420
__ptext164                                      text164      00189A
__ptext165                                      text165      003C0A
__ptext166                                      text166      008E38
__ptext167                                      text167      009556
__ptext168                                      text168      00958C
__ptext169                                      text169      0095C2
__ptext17                                       text17       00A1B8
__ptext170                                      text170      005272
__ptext171                                      text171      0036DA
__ptext172                                      text172      0093AA
__ptext173                                      text173      005EE4
__ptext174                                      text174      0059B0
__ptext175                                      text175      008A62
__ptext176                                      text176      007238
__ptext177                                      text177      008D92
__ptext178                                      text178      0093E8
__ptext179                                      text179      006F66
__ptext18                                       text18       00A1C6
__ptext180                                      text180      00A3C6
__ptext181                                      text181      008C3A
__ptext182                                      text182      005562
__ptext183                                      text183      0091E4
__ptext184                                      text184      0095F8
__ptext185                                      text185      0098C0
__ptext186                                      text186      0082C6
__ptext187                                      text187      00A2D0
__ptext188                                      text188      00A0BE
__ptext189                                      text189      00A0D2
__ptext19                                       text19       00A1D4
__ptext190                                      text190      00A2DE
__ptext191                                      text191      00A3D2
__ptext192                                      text192      009AC6
__ptext193                                      text193      009AEC
__ptext194                                      text194      00A2EC
__ptext195                                      text195      009B12
__ptext196                                      text196      004F7A
__ptext197                                      text197      0098EE
__ptext198                                      text198      007F3A
__ptext199                                      text199      00A5CE
__ptext2                                        text2        009154
__ptext20                                       text20       00A1E2
__ptext200                                      text200      00A2FA
__ptext201                                      text201      008F7E
__ptext202                                      text202      0094E0
__ptext203                                      text203      009D96
__ptext204                                      text204      009DB6
__ptext205                                      text205      0067D4
__ptext206                                      text206      00919C
__ptext207                                      text207      007832
__ptext208                                      text208      00A6AA
__ptext209                                      text209      00A6AC
__ptext21                                       text21       00A1F0
__ptext210                                      text210      00A5D4
__ptext211                                      text211      009C3E
__ptext212                                      text212      009CCE
__ptext213                                      text213      00804A
__ptext214                                      text214      00A6AE
__ptext215                                      text215      0097D0
__ptext216                                      text216      009C62
__ptext217                                      text217      0087FC
__ptext218                                      text218      00A6B0
__ptext219                                      text219      009CF0
__ptext22                                       text22       009864
__ptext220                                      text220      00991C
__ptext221                                      text221      00A5DA
__ptext222                                      text222      00A6B2
__ptext223                                      text223      0025F6
__ptext224                                      text224      00A688
__ptext225                                      text225      00A308
__ptext226                                      text226      00A42A
__ptext227                                      text227      00A5E0
__ptext228                                      text228      009EEC
__ptext229                                      text229      009802
__ptext23                                       text23       008F2E
__ptext230                                      text230      009C86
__ptext231                                      text231      0065D0
__ptext232                                      text232      00A6B4
__ptext233                                      text233      00476E
__ptext234                                      text234      00994A
__ptext235                                      text235      00A15C
__ptext236                                      text236      00A68C
__ptext237                                      text237      00A16C
__ptext238                                      text238      0066D4
__ptext239                                      text239      00A690
__ptext24                                       text24       009892
__ptext240                                      text240      00A694
__ptext241                                      text241      005DA2
__ptext242                                      text242      0072EA
__ptext243                                      text243      007B3A
__ptext244                                      text244      00A5E6
__ptext245                                      text245      009D12
__ptext246                                      text246      00001E
__ptext247                                      text247      00A6B6
__ptext248                                      text248      00864C
__ptext249                                      text249      007AA0
__ptext25                                       text25       009E56
__ptext250                                      text250      009426
__ptext251                                      text251      009A50
__ptext252                                      text252      0075A0
__ptext253                                      text253      008C90
__ptext254                                      text254      007EB0
__ptext255                                      text255      00A5EC
__ptext256                                      text256      00A4F8
__ptext257                                      text257      00A500
__ptext258                                      text258      00A508
__ptext259                                      text259      009DD6
__ptext26                                       text26       008DE6
__ptext260                                      text260      009DF6
__ptext261                                      text261      00A510
__ptext262                                      text262      009E92
__ptext263                                      text263      009EB0
__ptext264                                      text264      00A5F2
__ptext265                                      text265      00962E
__ptext266                                      text266      0096CC
__ptext267                                      text267      0089FE
__ptext268                                      text268      008864
__ptext269                                      text269      009E16
__ptext27                                       text27       009BF6
__ptext270                                      text270      008CE6
__ptext271                                      text271      003E88
__ptext272                                      text272      009978
__ptext273                                      text273      006280
__ptext274                                      text274      00A316
__ptext275                                      text275      00A698
__ptext276                                      text276      00A69C
__ptext277                                      text277      004AEC
__ptext278                                      text278      008B84
__ptext279                                      text279      007646
__ptext28                                       text28       009FA4
__ptext280                                      text280      008998
__ptext281                                      text281      004330
__ptext282                                      text282      00A518
__ptext283                                      text283      00A520
__ptext284                                      text284      00A434
__ptext285                                      text285      00A43E
__ptext286                                      text286      00A528
__ptext287                                      text287      00A448
__ptext288                                      text288      006DDC
__ptext289                                      text289      006C3C
__ptext29                                       text29       009C1A
__ptext290                                      text290      00A324
__ptext291                                      text291      00A530
__ptext292                                      text292      00A0F8
__ptext293                                      text293      00A17C
__ptext294                                      text294      00A10A
__ptext295                                      text295      001E6C
__ptext296                                      text296      008E8A
__ptext297                                      text297      00833A
__ptext298                                      text298      00A332
__ptext299                                      text299      00A340
__ptext3                                        text3        008502
__ptext30                                       text30       0070D4
__ptext300                                      text300      00A3DE
__ptext301                                      text301      00A34E
__ptext302                                      text302      00A3EA
__ptext303                                      text303      009B38
__ptext304                                      text304      009B5E
__ptext305                                      text305      00A35C
__ptext306                                      text306      009B84
__ptext307                                      text307      0050F6
__ptext308                                      text308      009A78
__ptext309                                      text309      007FC2
__ptext31                                       text31       009FBC
__ptext310                                      text310      00A5F8
__ptext311                                      text311      00A36A
__ptext312                                      text312      008FCE
__ptext313                                      text313      00951C
__ptext314                                      text314      00A3F6
__ptext315                                      text315      00A538
__ptext316                                      text316      0090BC
__ptext317                                      text317      00A540
__ptext318                                      text318      00A5FE
__ptext319                                      text319      00A548
__ptext32                                       text32       00A63C
__ptext320                                      text320      00A000
__ptext321                                      text321      00A016
__ptext322                                      text322      00A550
__ptext323                                      text323      00A558
__ptext324                                      text324      00A02C
__ptext325                                      text325      00A042
__ptext326                                      text326      00A560
__ptext327                                      text327      00A568
__ptext328                                      text328      00A570
__ptext329                                      text329      00A604
__ptext33                                       text33       00A0E6
__ptext330                                      text330      00A60A
__ptext331                                      text331      00A610
__ptext332                                      text332      00A578
__ptext333                                      text333      00A580
__ptext334                                      text334      00A588
__ptext335                                      text335      00A616
__ptext336                                      text336      00A452
__ptext337                                      text337      00A61C
__ptext338                                      text338      009E36
__ptext339                                      text339      00A45C
__ptext34                                       text34       00A470
__ptext340                                      text340      00910A
__ptext341                                      text341      00A622
__ptext342                                      text342      00A628
__ptext343                                      text343      00A378
__ptext344                                      text344      00A6A0
__ptext345                                      text345      00A6A4
__ptext346                                      text346      009D34
__ptext347                                      text347      009BAA
__ptext348                                      text348      00A590
__ptext349                                      text349      009CAA
__ptext35                                       text35       009D56
__ptext350                                      text350      00A6B8
__ptext351                                      text351      006018
__ptext352                                      text352      009BD0
__ptext353                                      text353      008792
__ptext354                                      text354      0012AE
__ptext355                                      text355      003988
__ptext356                                      text356      008EDC
__ptext357                                      text357      009700
__ptext358                                      text358      009734
__ptext359                                      text359      009768
__ptext36                                       text36       0086BA
__ptext360                                      text360      0053EA
__ptext361                                      text361      003428
__ptext362                                      text362      009464
__ptext363                                      text363      00614C
__ptext364                                      text364      005B08
__ptext365                                      text365      008AC4
__ptext366                                      text366      00701E
__ptext367                                      text367      00901E
__ptext368                                      text368      0094A2
__ptext369                                      text369      00744A
__ptext37                                       text37       00457C
__ptext370                                      text370      00A466
__ptext371                                      text371      008D3C
__ptext372                                      text372      0056D2
__ptext373                                      text373      00922A
__ptext374                                      text374      00979C
__ptext375                                      text375      008492
__ptext376                                      text376      0099A6
__ptext377                                      text377      00A18C
__ptext378                                      text378      008726
__ptext379                                      text379      00A386
__ptext38                                       text38       00A478
__ptext380                                      text380      00A62E
__ptext381                                      text381      00A394
__ptext382                                      text382      00A058
__ptext383                                      text383      000000
__ptext39                                       text39       00A480
__ptext4                                        text4        00A19C
__ptext40                                       text40       00A488
__ptext41                                       text41       00A490
__ptext42                                       text42       0083AE
__ptext43                                       text43       00A640
__ptext44                                       text44       00A1FE
__ptext45                                       text45       0040E2
__ptext46                                       text46       00A06E
__ptext47                                       text47       00A082
__ptext48                                       text48       00A096
__ptext49                                       text49       009FD4
__ptext5                                        text5        00739C
__ptext50                                       text50       00A498
__ptext51                                       text51       008252
__ptext52                                       text52       00A11C
__ptext53                                       text53       00A20C
__ptext54                                       text54       00A4A0
__ptext55                                       text55       0030C8
__ptext56                                       text56       008570
__ptext57                                       text57       0078D2
__ptext58                                       text58       0092F0
__ptext59                                       text59       00A4A8
__ptext6                                        text6        009F08
__ptext60                                       text60       00A402
__ptext61                                       text61       00A40C
__ptext62                                       text62       00A3A2
__ptext63                                       text63       0068C8
__ptext64                                       text64       00906E
__ptext65                                       text65       007D94
__ptext66                                       text66       0064C8
__ptext67                                       text67       00A644
__ptext68                                       text68       00A4B0
__ptext69                                       text69       00A6A8
__ptext7                                        text7        009664
__ptext70                                       text70       0074F8
__ptext71                                       text71       009AA0
__ptext72                                       text72       00932E
__ptext73                                       text73       009D76
__ptext74                                       text74       007BD2
__ptext75                                       text75       007790
__ptext76                                       text76       007C68
__ptext77                                       text77       00A4B8
__ptext78                                       text78       0092B0
__ptext79                                       text79       00A59E
__ptext8                                        text8        0063A6
__ptext80                                       text80       00A648
__ptext81                                       text81       00A21A
__ptext82                                       text82       00A228
__ptext83                                       text83       0088CC
__ptext84                                       text84       00A236
__ptext85                                       text85       00A244
__ptext86                                       text86       00A12C
__ptext87                                       text87       00A3AE
__ptext88                                       text88       00A252
__ptext89                                       text89       00A260
__ptext9                                        text9        00A1AA
__ptext90                                       text90       00A26E
__ptext91                                       text91       00A27C
__ptext92                                       text92       00A416
__ptext93                                       text93       009FEA
__ptext94                                       text94       007E24
__ptext95                                       text95       007CFE
__ptext96                                       text96       0099D4
__ptext97                                       text97       00A64C
__ptext98                                       text98       00A28A
__ptext99                                       text99       0081D4
__ramtop                                        ramtop       001000
__size_of_ADCC_DefaultInterruptHandler          (abs)        000000
__size_of_ADCC_GetConversionResult              (abs)        000000
__size_of_ADCC_Initialize                       (abs)        000000
__size_of_ADCC_IsConversionDone                 (abs)        000000
__size_of_ADCC_SetADTIInterruptHandler          (abs)        000000
__size_of_ADCC_StartConversion                  (abs)        000000
__size_of_ADCC_ThresholdISR                     (abs)        000000
__size_of_AdcDataReady                          (abs)        000000
__size_of_AdcGetData                            (abs)        000000
__size_of_AdcHandler                            (abs)        000000
__size_of_AdcInit                               (abs)        000000
__size_of_AdcReStartCycle                       (abs)        000000
__size_of_AdcReady                              (abs)        000000
__size_of_AdcSeeData                            (abs)        000000
__size_of_AlarmCheckTask                        (abs)        000000
__size_of_AlarmClear                            (abs)        000000
__size_of_AlarmDisplay                          (abs)        000000
__size_of_AlarmHandler                          (abs)        000000
__size_of_AlarmInit                             (abs)        000000
__size_of_AlarmSet                              (abs)        000000
__size_of_AlarmUpdateLCD                        (abs)        000000
__size_of_AnyAlarm                              (abs)        000000
__size_of_BaterryLowAlarmHigh                   (abs)        000000
__size_of_BaterryLowAlarmMed                    (abs)        000000
__size_of_BatteryFailAlarm                      (abs)        000000
__size_of_ButtonInit                            (abs)        000000
__size_of_ButtonTask                            (abs)        000000
__size_of_BuzzerCMPHandler                      (abs)        000000
__size_of_BuzzerCheck                           (abs)        000000
__size_of_BuzzerClear                           (abs)        000000
__size_of_BuzzerHandler                         (abs)        000000
__size_of_BuzzerInit                            (abs)        000000
__size_of_BuzzerOff                             (abs)        000000
__size_of_BuzzerOn                              (abs)        000000
__size_of_BuzzerSet                             (abs)        000000
__size_of_BuzzerTask                            (abs)        000000
__size_of_BuzzerTest                            (abs)        000000
__size_of_BuzzerTestHandler                     (abs)        000000
__size_of_CMP1_Disable                          (abs)        000000
__size_of_CMP1_Enable                           (abs)        000000
__size_of_CMP1_ISR                              (abs)        000000
__size_of_CMP1_Initialize                       (abs)        000000
__size_of_CMP1_SetIntHandler                    (abs)        000000
__size_of_CircuitFailureAlarm                   (abs)        000000
__size_of_ClearAlarmLED                         (abs)        000000
__size_of_ClearAllAlarm                         (abs)        000000
__size_of_ClearBaterryLowAlarmHigh              (abs)        000000
__size_of_ClearBaterryLowAlarmMed               (abs)        000000
__size_of_ClearBatteryFailAlarm                 (abs)        000000
__size_of_ClearCircuitFailureAlarm              (abs)        000000
__size_of_ClearControlFailAlarm                 (abs)        000000
__size_of_ClearEPAboveSetAlarm                  (abs)        000000
__size_of_ClearEPBelowSetAlarm                  (abs)        000000
__size_of_ClearGasFailureAlarm                  (abs)        000000
__size_of_ClearHighPressureAlarmHigh            (abs)        000000
__size_of_ClearHighPressureAlarmLow             (abs)        000000
__size_of_ClearIPAboveSetAlarm                  (abs)        000000
__size_of_ClearIPBelowSetAlarm                  (abs)        000000
__size_of_ClearMonitorFailAlarm                 (abs)        000000
__size_of_ClearNoPowerSupplyAlarm               (abs)        000000
__size_of_ClearTdeTooLongAlarm                  (abs)        000000
__size_of_ClearTdiTooLongAlarm                  (abs)        000000
__size_of_ClearVAboveMaxAlarm                   (abs)        000000
__size_of_ClearVBelowMinAlarm                   (abs)        000000
__size_of_ClearVars                             (abs)        000000
__size_of_ClearVeryHighPressureAlarmHigh        (abs)        000000
__size_of_ControlFailAlarm                      (abs)        000000
__size_of_ControllerBuzzerCheck                 (abs)        000000
__size_of_ControllerInit                        (abs)        000000
__size_of_ControllerTimerHandler                (abs)        000000
__size_of_DisableAlarmSV1                       (abs)        000000
__size_of_DisplayCalibrate                      (abs)        000000
__size_of_DisplayDisable                        (abs)        000000
__size_of_DisplayEnable                         (abs)        000000
__size_of_DisplayTask                           (abs)        000000
__size_of_DumpI2C                               (abs)        000000
__size_of_EPAboveSetAlarm                       (abs)        000000
__size_of_EPBelowSetAlarm                       (abs)        000000
__size_of_EnableAlarmSV1                        (abs)        000000
__size_of_FVR_Initialize                        (abs)        000000
__size_of_GasFailureAlarm                       (abs)        000000
__size_of_Get12V                                (abs)        000000
__size_of_Get5V                                 (abs)        000000
__size_of_GetAlarmState                         (abs)        000000
__size_of_GetBpm                                (abs)        000000
__size_of_GetControllerBuzzerCheck              (abs)        000000
__size_of_GetDisableAlarmSV1                    (abs)        000000
__size_of_GetEp                                 (abs)        000000
__size_of_GetIp                                 (abs)        000000
__size_of_GetMaxPressure                        (abs)        000000
__size_of_GetPmax                               (abs)        000000
__size_of_GetPressureV_pa                       (abs)        000000
__size_of_GetPressure_mbar02                    (abs)        000000
__size_of_GetPressure_pa                        (abs)        000000
__size_of_GetSpr                                (abs)        000000
__size_of_GetTargetEp                           (abs)        000000
__size_of_GetTargetIp                           (abs)        000000
__size_of_GetTde                                (abs)        000000
__size_of_GetTdi                                (abs)        000000
__size_of_GetTe                                 (abs)        000000
__size_of_GetTi                                 (abs)        000000
__size_of_GetVolume                             (abs)        000000
__size_of_HighPressureAlarmHigh                 (abs)        000000
__size_of_HighPressureAlarmLow                  (abs)        000000
__size_of_HigherAlarm                           (abs)        000000
__size_of_HistAlarm                             (abs)        000000
__size_of_I2C2_Initialize                       (abs)        000000
__size_of_I2C2_Isr                              (abs)        000000
__size_of_I2C2_Open                             (abs)        000000
__size_of_I2C2_Read                             (abs)        000000
__size_of_I2C2_SlaveClearBuff                   (abs)        000000
__size_of_I2C2_SlaveClearStopFlag               (abs)        000000
__size_of_I2C2_SlaveDefRdInterruptHandler       (abs)        000000
__size_of_I2C2_SlaveEnableIrq                   (abs)        000000
__size_of_I2C2_SlaveGetRxData                   (abs)        000000
__size_of_I2C2_SlaveIsRxBufFull                 (abs)        000000
__size_of_I2C2_SlaveOpen                        (abs)        000000
__size_of_I2C2_SlaveRdCallBack                  (abs)        000000
__size_of_I2C2_SlaveReleaseClock                (abs)        000000
__size_of_I2C2_SlaveSetAddrIntHandler           (abs)        000000
__size_of_I2C2_SlaveSetBusColIntHandler         (abs)        000000
__size_of_I2C2_SlaveSetCounter                  (abs)        000000
__size_of_I2C2_SlaveSetIsrHandler               (abs)        000000
__size_of_I2C2_SlaveSetReadIntHandler           (abs)        000000
__size_of_I2C2_SlaveSetSlaveAddr                (abs)        000000
__size_of_I2C2_SlaveSetSlaveMask                (abs)        000000
__size_of_I2C2_SlaveSetStopIntHandler           (abs)        000000
__size_of_I2C2_SlaveSetWrColIntHandler          (abs)        000000
__size_of_I2C2_SlaveSetWriteIntHandler          (abs)        000000
__size_of_I2C2_SlaveStopCallBack                (abs)        000000
__size_of_INTERRUPT_Initialize                  (abs)        000000
__size_of_INTERRUPT_InterruptManager            (abs)        000000
__size_of_IPAboveSetAlarm                       (abs)        000000
__size_of_IPBelowSetAlarm                       (abs)        000000
__size_of_InitDisplay                           (abs)        000000
__size_of_LCDInit                               (abs)        000000
__size_of_LCDMessage                            (abs)        000000
__size_of_LCDMessage1                           (abs)        000000
__size_of_LCDMessage12                          (abs)        000000
__size_of_LCDMessage2                           (abs)        000000
__size_of_LCDOff                                (abs)        000000
__size_of_LCDOn                                 (abs)        000000
__size_of_LCDTest                               (abs)        000000
__size_of_LCDWrite4                             (abs)        000000
__size_of_LCDWriteChar                          (abs)        000000
__size_of_LCDWriteCmd                           (abs)        000000
__size_of_MonitorDisable                        (abs)        000000
__size_of_MonitorDump                           (abs)        000000
__size_of_MonitorEnable                         (abs)        000000
__size_of_MonitorFailAlarm                      (abs)        000000
__size_of_MonitorInit                           (abs)        000000
__size_of_MonitorPressureTask                   (abs)        000000
__size_of_MuteAlarm                             (abs)        000000
__size_of_NoPowerSupplyAlarm                    (abs)        000000
__size_of_OSCILLATOR_Initialize                 (abs)        000000
__size_of_PIN_MANAGER_Initialize                (abs)        000000
__size_of_PMD_Initialize                        (abs)        000000
__size_of_PWM6_Initialize                       (abs)        000000
__size_of_ReceiveHandler                        (abs)        000000
__size_of_SYSTEM_Initialize                     (abs)        000000
__size_of_See12V                                (abs)        000000
__size_of_See5V                                 (abs)        000000
__size_of_SeePressureV_pa                       (abs)        000000
__size_of_SeePressure_pa                        (abs)        000000
__size_of_SetAlarmLED                           (abs)        000000
__size_of_SetAlarmSV1                           (abs)        000000
__size_of_SetBaterryLowAlarmHigh                (abs)        000000
__size_of_SetBaterryLowAlarmMed                 (abs)        000000
__size_of_SetBatteryFailAlarm                   (abs)        000000
__size_of_SetCalibrateState                     (abs)        000000
__size_of_SetCircuitFailureAlarm                (abs)        000000
__size_of_SetControlFailAlarm                   (abs)        000000
__size_of_SetEPAboveSetAlarm                    (abs)        000000
__size_of_SetEPBelowSetAlarm                    (abs)        000000
__size_of_SetGasFailureAlarm                    (abs)        000000
__size_of_SetHighPressureAlarmHigh              (abs)        000000
__size_of_SetIPAboveSetAlarm                    (abs)        000000
__size_of_SetIPBelowSetAlarm                    (abs)        000000
__size_of_SetMaxPressure                        (abs)        000000
__size_of_SetMonitorFailAlarm                   (abs)        000000
__size_of_SetNoPowerSupplyAlarm                 (abs)        000000
__size_of_SetSV1                                (abs)        000000
__size_of_SetTarget                             (abs)        000000
__size_of_SetTdeTooLongAlarm                    (abs)        000000
__size_of_SetTdiTooLongAlarm                    (abs)        000000
__size_of_SetVAboveMaxAlarm                     (abs)        000000
__size_of_SetVBelowMinAlarm                     (abs)        000000
__size_of_SetVeryHighPressureAlarmHigh          (abs)        000000
__size_of_SetVolumeControl                      (abs)        000000
__size_of_StopHandler                           (abs)        000000
__size_of_TMR0_DefaultInterruptHandler          (abs)        000000
__size_of_TMR0_ISR                              (abs)        000000
__size_of_TMR0_Initialize                       (abs)        000000
__size_of_TMR0_SetInterruptHandler              (abs)        000000
__size_of_TMR0_StartTimer                       (abs)        000000
__size_of_TMR0_StopTimer                        (abs)        000000
__size_of_TMR1_DefaultInterruptHandler          (abs)        000000
__size_of_TMR1_ISR                              (abs)        000000
__size_of_TMR1_Initialize                       (abs)        000000
__size_of_TMR1_SetInterruptHandler              (abs)        000000
__size_of_TMR1_StartTimer                       (abs)        000000
__size_of_TMR1_WriteTimer                       (abs)        000000
__size_of_TMR2_Initialize                       (abs)        000000
__size_of_TMR4_DefaultInterruptHandler          (abs)        000000
__size_of_TMR4_ISR                              (abs)        000000
__size_of_TMR4_Initialize                       (abs)        000000
__size_of_TMR4_Period8BitSet                    (abs)        000000
__size_of_TMR4_SetInterruptHandler              (abs)        000000
__size_of_TMR4_Start                            (abs)        000000
__size_of_TMR4_Stop                             (abs)        000000
__size_of_TMR5_DefaultInterruptHandler          (abs)        000000
__size_of_TMR5_ISR                              (abs)        000000
__size_of_TMR5_Initialize                       (abs)        000000
__size_of_TMR5_SetInterruptHandler              (abs)        000000
__size_of_TMR5_StartTimer                       (abs)        000000
__size_of_TMR5_StopTimer                        (abs)        000000
__size_of_TMR5_WriteTimer                       (abs)        000000
__size_of_TMR6_DefaultInterruptHandler          (abs)        000000
__size_of_TMR6_ISR                              (abs)        000000
__size_of_TMR6_Initialize                       (abs)        000000
__size_of_TMR6_SetInterruptHandler              (abs)        000000
__size_of_TMR6_Start                            (abs)        000000
__size_of_TMR6_StartTimer                       (abs)        000000
__size_of_TdeTooLongAlarm                       (abs)        000000
__size_of_TdiTooLongAlarm                       (abs)        000000
__size_of_TestAlarm                             (abs)        000000
__size_of_UART1_DefaultErrorHandler             (abs)        000000
__size_of_UART1_DefaultFramingErrorHandler      (abs)        000000
__size_of_UART1_DefaultOverrunErrorHandler      (abs)        000000
__size_of_UART1_Initialize                      (abs)        000000
__size_of_UART1_Read                            (abs)        000000
__size_of_UART1_Receive_ISR                     (abs)        000000
__size_of_UART1_RxDataHandler                   (abs)        000000
__size_of_UART1_SetErrorHandler                 (abs)        000000
__size_of_UART1_SetFramingErrorHandler          (abs)        000000
__size_of_UART1_SetOverrunErrorHandler          (abs)        000000
__size_of_UART1_SetRxInterruptHandler           (abs)        000000
__size_of_UART1_SetTxInterruptHandler           (abs)        000000
__size_of_UART1_Transmit_ISR                    (abs)        000000
__size_of_UART1_Write                           (abs)        000000
__size_of_UART1_is_rx_ready                     (abs)        000000
__size_of_UnDisplayCalibrate                    (abs)        000000
__size_of_UpdateState                           (abs)        000000
__size_of_VAboveMaxAlarm                        (abs)        000000
__size_of_VBelowMinAlarm                        (abs)        000000
__size_of_ValueDisplay                          (abs)        000000
__size_of_VeryHighPressureAlarmHigh             (abs)        000000
__size_of___aldiv                               (abs)        000000
__size_of___aodiv                               (abs)        000000
__size_of___aomod                               (abs)        000000
__size_of___awdiv                               (abs)        000000
__size_of___awmod                               (abs)        000000
__size_of___lldiv                               (abs)        000000
__size_of___llmod                               (abs)        000000
__size_of___lmul                                (abs)        000000
__size_of___lwdiv                               (abs)        000000
__size_of___wmul                                (abs)        000000
__size_of_abs                                   (abs)        000000
__size_of_atoi                                  (abs)        000000
__size_of_ctoa                                  (abs)        000000
__size_of_dtoa                                  (abs)        000000
__size_of_fputc                                 (abs)        000000
__size_of_fputs                                 (abs)        000000
__size_of_getch                                 (abs)        000000
__size_of_isalpha                               (abs)        000000
__size_of_isdigit                               (abs)        000000
__size_of_islower                               (abs)        000000
__size_of_isqrt                                 (abs)        000000
__size_of_isspace                               (abs)        000000
__size_of_isupper                               (abs)        000000
__size_of_main                                  (abs)        000000
__size_of_pad                                   (abs)        000000
__size_of_printf                                (abs)        000000
__size_of_putch                                 (abs)        000000
__size_of_putchar                               (abs)        000000
__size_of_sprintf                               (abs)        000000
__size_of_stoa                                  (abs)        000000
__size_of_strlen                                (abs)        000000
__size_of_toupper                               (abs)        000000
__size_of_vfpfcnvrt                             (abs)        000000
__size_of_vfprintf                              (abs)        000000
__size_of_xtoa                                  (abs)        000000
__size_ofi2_ADCC_Initialize                     (abs)        000000
__size_ofi2_ADCC_SetADTIInterruptHandler        (abs)        000000
__size_ofi2_ADCC_StartConversion                (abs)        000000
__size_ofi2_AdcDataReady                        (abs)        000000
__size_ofi2_AdcGetData                          (abs)        000000
__size_ofi2_AdcInit                             (abs)        000000
__size_ofi2_AdcSeeData                          (abs)        000000
__size_ofi2_AlarmDisplay                        (abs)        000000
__size_ofi2_AlarmUpdateLCD                      (abs)        000000
__size_ofi2_AnyAlarm                            (abs)        000000
__size_ofi2_BuzzerClear                         (abs)        000000
__size_ofi2_BuzzerOff                           (abs)        000000
__size_ofi2_BuzzerOn                            (abs)        000000
__size_ofi2_BuzzerTask                          (abs)        000000
__size_ofi2_CMP1_Disable                        (abs)        000000
__size_ofi2_CMP1_Enable                         (abs)        000000
__size_ofi2_ClearBaterryLowAlarmHigh            (abs)        000000
__size_ofi2_ClearBaterryLowAlarmMed             (abs)        000000
__size_ofi2_ClearBatteryFailAlarm               (abs)        000000
__size_ofi2_ClearCircuitFailureAlarm            (abs)        000000
__size_ofi2_ClearControlFailAlarm               (abs)        000000
__size_ofi2_ClearEPAboveSetAlarm                (abs)        000000
__size_ofi2_ClearEPBelowSetAlarm                (abs)        000000
__size_ofi2_ClearGasFailureAlarm                (abs)        000000
__size_ofi2_ClearHighPressureAlarmHigh          (abs)        000000
__size_ofi2_ClearIPAboveSetAlarm                (abs)        000000
__size_ofi2_ClearIPBelowSetAlarm                (abs)        000000
__size_ofi2_ClearMonitorFailAlarm               (abs)        000000
__size_ofi2_ClearNoPowerSupplyAlarm             (abs)        000000
__size_ofi2_ClearVars                           (abs)        000000
__size_ofi2_ClearVeryHighPressureAlarmHigh      (abs)        000000
__size_ofi2_DisableAlarmSV1                     (abs)        000000
__size_ofi2_EnableAlarmSV1                      (abs)        000000
__size_ofi2_GetAlarmState                       (abs)        000000
__size_ofi2_GetBpm                              (abs)        000000
__size_ofi2_GetDisableAlarmSV1                  (abs)        000000
__size_ofi2_GetEp                               (abs)        000000
__size_ofi2_GetIp                               (abs)        000000
__size_ofi2_GetPmax                             (abs)        000000
__size_ofi2_GetPressureV_pa                     (abs)        000000
__size_ofi2_GetPressure_pa                      (abs)        000000
__size_ofi2_GetSpr                              (abs)        000000
__size_ofi2_GetTargetEp                         (abs)        000000
__size_ofi2_GetTargetIp                         (abs)        000000
__size_ofi2_GetTde                              (abs)        000000
__size_ofi2_GetTdi                              (abs)        000000
__size_ofi2_GetTe                               (abs)        000000
__size_ofi2_GetTi                               (abs)        000000
__size_ofi2_GetVolume                           (abs)        000000
__size_ofi2_HigherAlarm                         (abs)        000000
__size_ofi2_HistAlarm                           (abs)        000000
__size_ofi2_LCDOff                              (abs)        000000
__size_ofi2_LCDOn                               (abs)        000000
__size_ofi2_MonitorDisable                      (abs)        000000
__size_ofi2_MonitorEnable                       (abs)        000000
__size_ofi2_MuteAlarm                           (abs)        000000
__size_ofi2_See12V                              (abs)        000000
__size_ofi2_See5V                               (abs)        000000
__size_ofi2_SetAlarmSV1                         (abs)        000000
__size_ofi2_SetCalibrateState                   (abs)        000000
__size_ofi2_SetMonitorFailAlarm                 (abs)        000000
__size_ofi2_SetSV1                              (abs)        000000
__size_ofi2_TMR0_StartTimer                     (abs)        000000
__size_ofi2_TMR0_StopTimer                      (abs)        000000
__size_ofi2_TMR4_Period8BitSet                  (abs)        000000
__size_ofi2_TMR4_SetInterruptHandler            (abs)        000000
__size_ofi2_TMR4_Start                          (abs)        000000
__size_ofi2_TMR4_Stop                           (abs)        000000
__size_ofi2_TMR5_StartTimer                     (abs)        000000
__size_ofi2_TMR5_StopTimer                      (abs)        000000
__size_ofi2_UART1_Write                         (abs)        000000
__size_ofi2_UnDisplayCalibrate                  (abs)        000000
__size_ofi2_ValueDisplay                        (abs)        000000
__size_ofi2___aldiv                             (abs)        000000
__size_ofi2___aodiv                             (abs)        000000
__size_ofi2___aomod                             (abs)        000000
__size_ofi2___awdiv                             (abs)        000000
__size_ofi2___awmod                             (abs)        000000
__size_ofi2___lmul                              (abs)        000000
__size_ofi2___wmul                              (abs)        000000
__size_ofi2_abs                                 (abs)        000000
__size_ofi2_atoi                                (abs)        000000
__size_ofi2_ctoa                                (abs)        000000
__size_ofi2_dtoa                                (abs)        000000
__size_ofi2_fputc                               (abs)        000000
__size_ofi2_fputs                               (abs)        000000
__size_ofi2_isalpha                             (abs)        000000
__size_ofi2_isdigit                             (abs)        000000
__size_ofi2_islower                             (abs)        000000
__size_ofi2_isspace                             (abs)        000000
__size_ofi2_isupper                             (abs)        000000
__size_ofi2_pad                                 (abs)        000000
__size_ofi2_printf                              (abs)        000000
__size_ofi2_putch                               (abs)        000000
__size_ofi2_sprintf                             (abs)        000000
__size_ofi2_stoa                                (abs)        000000
__size_ofi2_strlen                              (abs)        000000
__size_ofi2_toupper                             (abs)        000000
__size_ofi2_vfpfcnvrt                           (abs)        000000
__size_ofi2_vfprintf                            (abs)        000000
__size_ofi2_xtoa                                (abs)        000000
__smallconst                                    smallconst   000000
_a                                              bssBANK3     00034C
_abs                                            text172      0093AA
_adcChannels                                    dataBANK2    0002BC
_adcOffset                                      bssBANK1     0001F6
_adcVOffset                                     bssBANK1     0001F4
_alarmCheck                                     bssBANK2     0002A3
_alarmData                                      dataBIGRAM   000914
_alarmMaxPressure                               bssBANK2     000250
_alarmPmax                                      dataBANK2    0002D7
_alarmSV1                                       bssBANK2     0002A0
_alarmState                                     bssBANK0     0000FA
_alarmStep                                      bssBANK1     0001EF
_alarms                                         bssBANK3     000300
_atoi                                           text182      005562
_atoi$5674                                      cstackBANK1  000113
_atoi$5675                                      cstackBANK1  000117
_atoi$5676                                      cstackBANK1  000115
_baterryLowAlarmHigh                            bssBANK2     0002A9
_baterryLowAlarmMed                             bssBANK2     0002AA
_batteryFailAlarm                               bssBANK0     0000F7
_batterySV1                                     dataBANK1    0001FA
_bp                                             bssBANK2     0002BA
_bpm                                            bssBANK2     000256
_buzzerState                                    bssBANK2     0002B3
_calibrate                                      bssBANK0     0000FF
_checkController                                bssBANK2     0002B2
_circuitFailureAlarm                            bssBANK2     0002AB
_cntByte                                        bssBANK0     0000CC
_commandReceived                                bssBANK2     00029B
_controlFailAlarm                               bssBANK0     0000F6
_controlSV1                                     dataBANK1    0001F9
_controllerDetected                             bssBANK2     0002B1
_count                                          bssBANK2     000244
_ctoa                                           text175      008A62
_currentChannel                                 bssBANK1     0001E5
_dbuf                                           bssBANK3     000389
_detected                                       bssBANK0     0000F8
_disableAlarmSV1                                bssBANK0     0000F3
_displayStatus                                  bssBANK0     0000E0
_dtoa                                           text171      0036DA
_dtoa$5178                                      cstackBANK1  000133
_enable                                         bssBANK0     0000FE
_enableAlarms                                   bssBANK0     0000F4
_epAboveSetAlarm                                bssBANK0     0000E6
_epBelowSetAlarm                                bssBANK0     0000E8
_flags                                          bssBANK1     0001CB
_fputc                                          text179      006F66
_fputs                                          text178      0093E8
_gasFailureAlarm                                bssBANK2     0002AF
_getch                                          text1        00A598
_hiLimit                                        bssBANK1     0001CF
_highPressureAlarmHigh                          bssBANK2     0002AD
_highPressureAlarmLow                           bssBANK2     0002AE
_hist                                           bssBANK1     0001E7
_histButton                                     bssBANK0     0000FC
_histSec                                        bssBANK1     0001E9
_i2c2RdData                                     bssBANK2     0002B6
_i2c2SlaveAddr                                  bssBANK2     0002B5
_i2c2State                                      bssBANK2     0002B8
_i2c2WrData                                     bssBANK2     0002B7
_init                                           bssBANK2     00029A
_ipAboveSetAlarm                                bssBANK0     0000E2
_ipBelowSetAlarm                                bssBANK0     0000E4
_isalpha                                        text169      0095C2
_isdigit                                        text184      0095F8
_islower                                        text167      009556
_isqrt                                          text252      0075A0
_isspace                                        text183      0091E4
_isspace$5701                                   cstackBANK1  00010A
_isupper                                        text168      00958C
_ledCnt                                         bssBANK0     0000EA
_ledType                                        bssBANK0     0000FB
_loLimit                                        bssBANK1     0001CD
_lrpe                                           bssBANK0     0000D4
_lrpi                                           bssBANK1     0001D1
_main                                           text0        002D48
_maxPressure                                    bssBANK2     000252
_minPressure                                    bssBANK0     0000D6
_monitorFailAlarm                               bssBANK2     0002B0
_monitorSV1                                     dataBANK1    0001F8
_msg                                            bssBANK2     000200
_msg1                                           bssBANK3     0003E5
_msg2                                           bssBANK3     0003D1
_msg3                                           bssBANK3     0003BD
_msg4                                           bssBANK3     0003A9
_muteButton                                     bssBANK0     0000FD
_muteSec                                        bssBANK1     0001EB
_noPowerSupplyAlarm                             bssBANK2     0002A4
_normalSV1                                      bssBANK2     00029F
_nout                                           bssBANK2     00022A
_numHigh                                        bssBANK2     00024C
_numLow                                         bssBANK2     00024A
_numtde                                         bssBANK0     0000D0
_numtdi                                         bssBANK0     0000D2
_on                                             bssBANK0     0000F9
_pHigh                                          bssBANK1     0001D3
_pHighAcc                                       bssBANK2     00021E
_pLow                                           bssBANK2     00024E
_pLowAcc                                        bssBANK2     00021A
_pad                                            text176      007238
_pe                                             bssBANK0     0000DA
_pi                                             bssBANK1     0001D5
_pmax                                           bssBANK0     0000D8
_pmin                                           bssBANK2     000254
_prFast                                         bssBANK2     00023E
_prFastBuffer                                   bssBANK4     000400
_prSlow                                         bssBANK0     0000CE
_prSlowBuffer                                   bssBANK4     000432
_prSlowDev                                      bssBANK2     000242
_prSlowNumStable                                bssBANK2     000240
_prec                                           bssBANK1     0001C9
_printf                                         text133      0099FE
_putch                                          text180      00A3C6
_putchar                                        text6        009F08
_rpe                                            bssBANK2     000246
_rpi                                            bssBANK2     000248
_run                                            bssBANK0     0000F0
_spr                                            bssBANK2     000232
_sprintf                                        text162      008BE2
_state                                          bssBANK1     0001DF
_stoa                                           text170      005272
_strlen                                         text177      008D92
_targetBp                                       bssBANK2     00026C
_targetHigh                                     bssBANK1     0001E3
_targetLow                                      bssBANK1     0001E1
_targetPmax                                     bssBANK2     00026E
_tde                                            bssBANK1     0001D7
_tdeBuffer                                      bssBANK3     000375
_tdeTooLongAlarm                                bssBANK2     0002A7
_tdi                                            bssBANK1     0001D9
_tdiBuffer                                      bssBANK3     000361
_tdiTooLongAlarm                                bssBANK2     0002A8
_te                                             bssBANK2     000258
_testAlarm                                      bssBANK3     000326
_ti                                             bssBANK2     00025A
_timer1ReloadVal                                nvBANK2      0002DD
_timer5ReloadVal                                nvBANK2      0002E3
_toupper                                        text166      008E38
_toupper$5789                                   cstackBANK1  000110
_tt                                             bssBANK0     0000C8
_tt1                                            bssBANK2     000266
_tt12                                           bssBANK2     000262
_tt2                                            bssBANK0     0000DE
_tt3                                            bssBANK1     0001DB
_tt34                                           bssBANK2     000260
_tt4                                            bssBANK0     0000DC
_ttAlarm                                        bssBANK2     00025C
_ttExt                                          bssBANK2     000264
_ttNoAlarm                                      bssBANK2     00025E
_uart1RxBuffer                                  bssBANK2     000212
_uart1RxCount                                   bssBANK1     0001F1
_uart1RxHead                                    bssBANK1     0001F3
_uart1RxLastError                               bssBANK2     0002B9
_uart1RxStatusBuffer                            bssBANK2     00020A
_uart1RxTail                                    bssBANK1     0001F2
_uart1TxBuffer                                  bssBIGRAM    000464
_uart1TxBufferRemaining                         nvBANK2      0002EB
_uart1TxHead                                    bssBANK1     0001ED
_uart1TxTail                                    bssBANK0     0000EC
_vAboveMaxAlarm                                 bssBANK2     0002A5
_vBelowMinAlarm                                 bssBANK2     0002A6
_veryHighPressureAlarmHigh                      bssBANK2     0002AC
_veryHighSV1                                    dataBANK1    0001FB
_vfpfcnvrt                                      text164      00189A
_vfpfcnvrt$5214                                 cstackBANK1  000166
_vfprintf                                       text163      008420
_volume                                         bssBANK1     0001DD
_volumeAcc                                      bssBANK2     000222
_volumeControl                                  bssBANK2     0002A1
_volumeMax                                      bssBANK2     00026A
_volumeMin                                      bssBANK2     000268
_width                                          bssBANK1     0001C7
_xtoa                                           text165      003C0A
_xtoa$5199                                      cstackBANK1  000134
_xtoa$5200                                      cstackBANK1  000136
abs@a                                           cstackBANK1  000116
atoi@n                                          cstackBANK1  000118
atoi@neg                                        cstackBANK1  000111
atoi@s                                          cstackBANK1  00010B
controller@volumeControl                        bssBANK2     000299
ctoa@c                                          cstackBANK1  000123
ctoa@fp                                         cstackBANK1  000121
ctoa@w                                          cstackBANK1  000124
dtoa@d                                          cstackBANK1  000123
dtoa@fp                                         cstackBANK1  000121
dtoa@i                                          cstackBANK1  000143
dtoa@n                                          cstackBANK1  00013B
dtoa@p                                          cstackBANK1  000135
dtoa@s                                          cstackBANK1  000139
dtoa@w                                          cstackBANK1  000137
end_of_initialization                           cinit        006DD6
fputc@c                                         cstackBANK1  000106
fputc@fp                                        cstackBANK1  000108
fputs@c                                         cstackBANK1  000113
fputs@fp                                        cstackBANK1  000111
fputs@i                                         cstackBANK1  000114
fputs@s                                         cstackBANK1  00010F
i2ADCC_SetADTIInterruptHandler@InterruptHandler cstackCOMRAM 000001
i2ADCC_StartConversion@channel                  cstackCOMRAM 000001
i2AdcDataReady@id                               cstackCOMRAM 000007
i2AdcGetData@data                               cstackCOMRAM 000009
i2AdcGetData@id                                 cstackCOMRAM 000007
i2AdcSeeData@data                               cstackCOMRAM 000009
i2AdcSeeData@id                                 cstackCOMRAM 000007
i2AlarmDisplay@alarm                            cstackBANK0  0000BF
i2AlarmDisplay@t                                cstackCOMRAM 000057
i2AlarmDisplay@type                             cstackBANK0  0000BD
i2AlarmUpdateLCD@id                             cstackBANK0  0000C1
i2AnyAlarm@i                                    cstackCOMRAM 000003
i2BuzzerOn@period                               cstackCOMRAM 000001
i2ClearVars@i                                   cstackCOMRAM 000001
i2ClearVars@i_4906                              cstackCOMRAM 000003
i2GetPressureV_pa@adcv                          cstackCOMRAM 000013
i2GetPressureV_pa@mv                            cstackCOMRAM 000015
i2GetPressureV_pa@p                             cstackCOMRAM 000019
i2GetPressure_pa@adc                            cstackCOMRAM 000023
i2GetPressure_pa@mv                             cstackCOMRAM 000027
i2GetPressure_pa@p                              cstackCOMRAM 000025
i2GetPressure_pa@p32                            cstackCOMRAM 00001F
i2HigherAlarm@i                                 cstackCOMRAM 000010
i2HigherAlarm@max                               cstackCOMRAM 00000E
i2HistAlarm@i                                   cstackCOMRAM 00005E
i2MuteAlarm@high                                cstackBANK0  000082
i2See12V@adc                                    cstackCOMRAM 000021
i2See12V@mv                                     cstackCOMRAM 00001D
i2See12V@v12                                    cstackCOMRAM 000023
i2See5V@adc                                     cstackCOMRAM 000021
i2See5V@mv                                      cstackCOMRAM 00001D
i2See5V@v12                                     cstackCOMRAM 000023
i2SetAlarmSV1@value                             cstackCOMRAM 00005B
i2SetCalibrateState@calib                       cstackCOMRAM 00005B
i2SetSV1@value                                  cstackCOMRAM 00005B
i2TMR4_Period8BitSet@periodVal                  cstackCOMRAM 000001
i2TMR4_SetInterruptHandler@InterruptHandler     cstackCOMRAM 000001
i2UART1_Write@txData                            cstackCOMRAM 000001
i2ValueDisplay@dr                               cstackBANK0  0000AB
i2ValueDisplay@dtde                             cstackBANK0  0000AA
i2ValueDisplay@dtdi                             cstackBANK0  0000A9
i2ValueDisplay@er                               cstackBANK0  0000B6
i2ValueDisplay@etde                             cstackBANK0  0000B5
i2ValueDisplay@etdi                             cstackBANK0  0000B4
i2ValueDisplay@ete                              cstackBANK0  0000A8
i2ValueDisplay@eti                              cstackBANK0  0000A7
i2ValueDisplay@pe                               cstackBANK0  00009D
i2ValueDisplay@pi                               cstackBANK0  00009B
i2ValueDisplay@pmax                             cstackBANK0  0000A1
i2ValueDisplay@r                                cstackBANK0  0000B7
i2ValueDisplay@spr                              cstackBANK0  0000A3
i2ValueDisplay@tde                              cstackBANK0  0000B2
i2ValueDisplay@tdi                              cstackBANK0  0000B0
i2ValueDisplay@te                               cstackBANK0  0000B9
i2ValueDisplay@ti                               cstackBANK0  0000BB
i2ValueDisplay@vol                              cstackBANK0  00009F
i2_ADCC_Initialize                              text378      008726
i2_ADCC_SetADTIInterruptHandler                 text379      00A386
i2_ADCC_StartConversion                         text377      00A18C
i2_AdcDataReady                                 text251      009A50
i2_AdcGetData                                   text280      008998
i2_AdcInit                                      text375      008492
i2_AdcSeeData                                   text250      009426
i2_AlarmDisplay                                 text243      007B3A
i2_AlarmDisplay$4015                            cstackCOMRAM 000058
i2_AlarmDisplay$4016                            cstackCOMRAM 00005A
i2_AlarmUpdateLCD                               text241      005DA2
i2_AlarmUpdateLCD$7131                          cstackBANK0  0000C3
i2_AlarmUpdateLCD$7132                          cstackBANK0  0000C5
i2_AnyAlarm                                     text313      00951C
i2_BuzzerClear                                  text235      00A15C
i2_BuzzerOff                                    text237      00A16C
i2_BuzzerOn                                     text228      009EEC
i2_BuzzerTask                                   text223      0025F6
i2_CMP1_Disable                                 text348      00A590
i2_CMP1_Enable                                  text315      00A538
i2_ClearBaterryLowAlarmHigh                     text330      00A60A
i2_ClearBaterryLowAlarmMed                      text329      00A604
i2_ClearBatteryFailAlarm                        text328      00A570
i2_ClearCircuitFailureAlarm                     text327      00A568
i2_ClearControlFailAlarm                        text326      00A560
i2_ClearEPAboveSetAlarm                         text325      00A042
i2_ClearEPBelowSetAlarm                         text324      00A02C
i2_ClearGasFailureAlarm                         text323      00A558
i2_ClearHighPressureAlarmHigh                   text322      00A550
i2_ClearIPAboveSetAlarm                         text321      00A016
i2_ClearIPBelowSetAlarm                         text320      00A000
i2_ClearMonitorFailAlarm                        text319      00A548
i2_ClearNoPowerSupplyAlarm                      text318      00A5FE
i2_ClearVars                                    text281      004330
i2_ClearVeryHighPressureAlarmHigh               text317      00A540
i2_DisableAlarmSV1                              text244      00A5E6
i2_EnableAlarmSV1                               text286      00A528
i2_GetAlarmState                                text312      008FCE
i2_GetBpm                                       text311      00A36A
i2_GetDisableAlarmSV1                           text310      00A5F8
i2_GetEp                                        text308      009A78
i2_GetIp                                        text307      0050F6
i2_GetIp$4809                                   cstackCOMRAM 000014
i2_GetIp$4810                                   cstackCOMRAM 000016
i2_GetPmax                                      text306      009B84
i2_GetPressureV_pa                              text279      007646
i2_GetPressure_pa                               text277      004AEC
i2_GetSpr                                       text305      00A35C
i2_GetTargetEp                                  text304      009B5E
i2_GetTargetIp                                  text303      009B38
i2_GetTde                                       text302      00A3EA
i2_GetTdi                                       text301      00A34E
i2_GetTe                                        text300      00A3DE
i2_GetTi                                        text299      00A340
i2_GetVolume                                    text298      00A332
i2_HigherAlarm                                  text242      0072EA
i2_HistAlarm                                    text238      0066D4
i2_LCDOff                                       text285      00A43E
i2_LCDOn                                        text284      00A434
i2_MonitorDisable                               text283      00A520
i2_MonitorEnable                                text282      00A518
i2_MuteAlarm                                    text233      00476E
i2_MuteAlarm$4543                               cstackBANK0  000081
i2_See12V                                       text249      007AA0
i2_See5V                                        text248      00864C
i2_SetAlarmSV1                                  text234      00994A
i2_SetCalibrateState                            text273      006280
i2_SetMonitorFailAlarm                          text227      00A5E0
i2_SetSV1                                       text272      009978
i2_TMR0_StartTimer                              text276      00A69C
i2_TMR0_StopTimer                               text275      00A698
i2_TMR4_Period8BitSet                           text226      00A42A
i2_TMR4_SetInterruptHandler                     text225      00A308
i2_TMR4_Start                                   text224      00A688
i2_TMR4_Stop                                    text236      00A68C
i2_TMR5_StartTimer                              text240      00A694
i2_TMR5_StopTimer                               text239      00A690
i2_UART1_Write                                  text371      008D3C
i2_UnDisplayCalibrate                           text274      00A316
i2_ValueDisplay                                 text295      001E6C
i2_ValueDisplay$4007                            cstackBANK0  0000AC
i2_ValueDisplay$4008                            cstackBANK0  0000AE
i2_ValueDisplay$7130                            cstackBANK0  0000A5
i2___aldiv                                      text289      006C3C
i2___aldiv@counter                              cstackCOMRAM 000015
i2___aldiv@dividend                             cstackCOMRAM 00000D
i2___aldiv@divisor                              cstackCOMRAM 000011
i2___aldiv@quotient                             cstackCOMRAM 000017
i2___aldiv@sign                                 cstackCOMRAM 000016
i2___aodiv                                      text364      005B08
i2___aodiv@counter                              cstackCOMRAM 000011
i2___aodiv@dividend                             cstackCOMRAM 000001
i2___aodiv@divisor                              cstackCOMRAM 000009
i2___aodiv@quotient                             cstackCOMRAM 000013
i2___aodiv@sign                                 cstackCOMRAM 000012
i2___aomod                                      text363      00614C
i2___aomod@counter                              cstackCOMRAM 000011
i2___aomod@dividend                             cstackCOMRAM 000001
i2___aomod@divisor                              cstackCOMRAM 000009
i2___aomod@sign                                 cstackCOMRAM 000012
i2___awdiv                                      text309      007FC2
i2___awdiv@counter                              cstackCOMRAM 00000B
i2___awdiv@dividend                             cstackCOMRAM 000007
i2___awdiv@divisor                              cstackCOMRAM 000009
i2___awdiv@quotient                             cstackCOMRAM 00000D
i2___awdiv@sign                                 cstackCOMRAM 00000C
i2___awmod                                      text297      00833A
i2___awmod@counter                              cstackCOMRAM 000005
i2___awmod@dividend                             cstackCOMRAM 000001
i2___awmod@divisor                              cstackCOMRAM 000003
i2___awmod@sign                                 cstackCOMRAM 000006
i2___lmul                                       text278      008B84
i2___lmul@multiplicand                          cstackCOMRAM 000005
i2___lmul@multiplier                            cstackCOMRAM 000001
i2___lmul@product                               cstackCOMRAM 000009
i2___wmul                                       text376      0099A6
i2___wmul@multiplicand                          cstackCOMRAM 000003
i2___wmul@multiplier                            cstackCOMRAM 000001
i2___wmul@product                               cstackCOMRAM 000005
i2_abs                                          text362      009464
i2_atoi                                         text372      0056D2
i2_atoi$5674                                    cstackCOMRAM 000010
i2_atoi$5675                                    cstackCOMRAM 000014
i2_atoi$5676                                    cstackCOMRAM 000012
i2_ctoa                                         text365      008AC4
i2_dtoa                                         text361      003428
i2_dtoa$5178                                    cstackCOMRAM 000030
i2_fputc                                        text369      00744A
i2_fputs                                        text368      0094A2
i2_isalpha                                      text359      009768
i2_isdigit                                      text374      00979C
i2_islower                                      text357      009700
i2_isspace                                      text373      00922A
i2_isspace$5701                                 cstackCOMRAM 000007
i2_isupper                                      text358      009734
i2_pad                                          text366      00701E
i2_printf                                       text352      009BD0
i2_putch                                        text370      00A466
i2_sprintf                                      text296      008E8A
i2_stoa                                         text360      0053EA
i2_strlen                                       text367      00901E
i2_toupper                                      text356      008EDC
i2_toupper$5789                                 cstackCOMRAM 00000D
i2_vfpfcnvrt                                    text354      0012AE
i2_vfpfcnvrt$5214                               cstackBANK0  000074
i2_vfprintf                                     text353      008792
i2_xtoa                                         text355      003988
i2_xtoa$5199                                    cstackCOMRAM 000031
i2_xtoa$5200                                    cstackCOMRAM 000033
i2abs@a                                         cstackCOMRAM 000013
i2atoi@n                                        cstackCOMRAM 000015
i2atoi@neg                                      cstackCOMRAM 00000E
i2atoi@s                                        cstackCOMRAM 000008
i2ctoa@c                                        cstackCOMRAM 000020
i2ctoa@fp                                       cstackCOMRAM 00001E
i2ctoa@w                                        cstackCOMRAM 000021
i2dtoa@d                                        cstackCOMRAM 000020
i2dtoa@fp                                       cstackCOMRAM 00001E
i2dtoa@i                                        cstackCOMRAM 000040
i2dtoa@n                                        cstackCOMRAM 000038
i2dtoa@p                                        cstackCOMRAM 000032
i2dtoa@s                                        cstackCOMRAM 000036
i2dtoa@w                                        cstackCOMRAM 000034
i2fputc@c                                       cstackCOMRAM 000003
i2fputc@fp                                      cstackCOMRAM 000005
i2fputs@c                                       cstackCOMRAM 000010
i2fputs@fp                                      cstackCOMRAM 00000E
i2fputs@i                                       cstackCOMRAM 000011
i2fputs@s                                       cstackCOMRAM 00000C
i2isalpha@c                                     cstackCOMRAM 000001
i2isdigit@c                                     cstackCOMRAM 000001
i2islower@c                                     cstackCOMRAM 000001
i2isspace@c                                     cstackCOMRAM 000001
i2isupper@c                                     cstackCOMRAM 000001
i2pad@buf                                       cstackCOMRAM 000015
i2pad@fp                                        cstackCOMRAM 000013
i2pad@i                                         cstackCOMRAM 00001A
i2pad@p                                         cstackCOMRAM 000017
i2pad@w                                         cstackCOMRAM 00001C
i2printf@ap                                     cstackCOMRAM 000059
i2printf@fmt                                    cstackBANK0  000077
i2putch@txData                                  cstackCOMRAM 000002
i2sprintf@ap                                    cstackBANK0  00008B
i2sprintf@f                                     cstackBANK0  00008D
i2sprintf@fmt                                   cstackBANK0  000079
i2sprintf@s                                     cstackBANK0  000077
i2stoa@cp                                       cstackCOMRAM 00001C
i2stoa@fp                                       cstackCOMRAM 00000C
i2stoa@i                                        cstackCOMRAM 000018
i2stoa@l                                        cstackCOMRAM 000020
i2stoa@nuls                                     cstackCOMRAM 000011
i2stoa@p                                        cstackCOMRAM 00001E
i2stoa@s                                        cstackCOMRAM 00000E
i2stoa@w                                        cstackCOMRAM 00001A
i2strlen@a                                      cstackCOMRAM 000003
i2strlen@s                                      cstackCOMRAM 000001
i2toupper@c                                     cstackCOMRAM 000007
i2vfpfcnvrt@ap                                  cstackCOMRAM 000049
i2vfpfcnvrt@c                                   cstackBANK0  000076
i2vfpfcnvrt@cp                                  cstackBANK0  000070
i2vfpfcnvrt@done                                cstackBANK0  000072
i2vfpfcnvrt@fmt                                 cstackCOMRAM 000047
i2vfpfcnvrt@fp                                  cstackCOMRAM 000045
i2vfpfcnvrt@ll                                  cstackBANK0  000060
i2vfpfcnvrt@llu                                 cstackBANK0  000068
i2vfprintf@ap                                   cstackCOMRAM 000053
i2vfprintf@cfmt                                 cstackCOMRAM 000055
i2vfprintf@fmt                                  cstackCOMRAM 000051
i2vfprintf@fp                                   cstackCOMRAM 00004F
i2xtoa@c                                        cstackCOMRAM 000043
i2xtoa@d                                        cstackCOMRAM 000020
i2xtoa@fp                                       cstackCOMRAM 00001E
i2xtoa@i                                        cstackCOMRAM 000041
i2xtoa@n                                        cstackCOMRAM 000039
i2xtoa@p                                        cstackCOMRAM 000035
i2xtoa@w                                        cstackCOMRAM 000037
i2xtoa@x                                        cstackCOMRAM 000028
intlevel0                                       text         000000
intlevel1                                       text         000000
intlevel2                                       text         000000
intlevel3                                       text         000000
isalpha@c                                       cstackBANK1  000104
isdigit@c                                       cstackBANK1  000104
islower@c                                       cstackBANK1  000104
isqrt@one                                       cstackCOMRAM 000009
isqrt@op                                        cstackCOMRAM 000005
isqrt@res                                       cstackCOMRAM 000007
isqrt@x                                         cstackCOMRAM 000001
isspace@c                                       cstackBANK1  000104
isupper@c                                       cstackBANK1  000104
ivt0x8_base                                     ivt0x8       000008
main@ch                                         cstackBANK3  0003F9
main@cnt                                        bssBANK2     000226
monitor@enable                                  bssBANK2     0002A2
pad@buf                                         cstackBANK1  000118
pad@fp                                          cstackBANK1  000116
pad@i                                           cstackBANK1  00011D
pad@p                                           cstackBANK1  00011A
pad@w                                           cstackBANK1  00011F
printf@ap                                       cstackBANK1  000181
printf@fmt                                      cstackBANK1  000171
putch@txData                                    cstackBANK1  000105
putchar@c                                       cstackBANK1  00010F
sprintf@ap                                      cstackBANK1  000185
sprintf@f                                       cstackBANK1  000187
sprintf@fmt                                     cstackBANK1  000173
sprintf@s                                       cstackBANK1  000171
stackhi                                         (abs)        000FFF
stacklo                                         (abs)        000AA3
start                                           init         00001A
start_initialization                            cinit        006D10
stoa@F1144                                      dataBANK2    0002D0
stoa@cp                                         cstackBANK1  00011F
stoa@fp                                         cstackBANK1  00010F
stoa@i                                          cstackBANK1  00011B
stoa@l                                          cstackBANK1  000123
stoa@nuls                                       cstackBANK1  000114
stoa@p                                          cstackBANK1  000121
stoa@s                                          cstackBANK1  000111
stoa@w                                          cstackBANK1  00011D
strlen@a                                        cstackBANK1  000106
strlen@s                                        cstackBANK1  000104
toupper@c                                       cstackBANK1  00010A
vfpfcnvrt@ap                                    cstackBANK1  00014C
vfpfcnvrt@c                                     cstackBANK1  000168
vfpfcnvrt@cp                                    cstackBANK1  000162
vfpfcnvrt@done                                  cstackBANK1  000164
vfpfcnvrt@fmt                                   cstackBANK1  00014A
vfpfcnvrt@fp                                    cstackBANK1  000148
vfpfcnvrt@ll                                    cstackBANK1  000152
vfpfcnvrt@llu                                   cstackBANK1  00015A
vfprintf@ap                                     cstackBANK1  00016D
vfprintf@cfmt                                   cstackBANK1  00016F
vfprintf@fmt                                    cstackBANK1  00016B
vfprintf@fp                                     cstackBANK1  000169
xtoa@c                                          cstackBANK1  000146
xtoa@d                                          cstackBANK1  000123
xtoa@fp                                         cstackBANK1  000121
xtoa@i                                          cstackBANK1  000144
xtoa@n                                          cstackBANK1  00013C
xtoa@p                                          cstackBANK1  000138
xtoa@w                                          cstackBANK1  00013A
xtoa@x                                          cstackBANK1  00012B


FUNCTION INFORMATION:

 *************** function _main *****************
 Defined at:
		line 75 in file "main.c"
 Parameters:    Size  Location     Type
		None
 Auto vars:     Size  Location     Type
  ch              1    0[BANK3 ] unsigned char 
 Return value:  Size  Location     Type
                  1    wreg      void 
 Registers used:
		wreg, fsr1l, fsr1h, fsr2l, fsr2h, status,2, status,0, pclath, tosl, tblptrl, tblptrh, tblptru, prodl, prodh, cstack
 Tracked objects:
		On entry : 
		On exit  : 
		Unchanged: 
 Data sizes:     COMRAM   BANK0   BANK1   BANK2   BANK3   BANK4   BANK5   BANK6   BANK7   BANK8   BANK9  BANK10  BANK11  BANK12  BANK13  BANK14  BANK15
      Params:         0       0       0       0       0       0       0       0       0       0       0       0       0       0       0       0       0
      Locals:         0       0       0       0       1       0       0       0       0       0       0       0       0       0       0       0       0
      Temps:          0       0       1       0       0       0       0       0       0       0       0       0       0       0       0       0       0
      Totals:         0       0       1       0       1       0       0       0       0       0       0       0       0       0       0       0       0
Total ram usage:        2 bytes
 Hardware stack levels required when called:   29
 This function calls:
		_AlarmCheckTask
		_AlarmInit
		_ButtonInit
		_BuzzerCheck
		_BuzzerTest
		_ControllerInit
		_DisableAlarmSV1
		_DisplayTask
		_DumpI2C
		_EnableAlarmSV1
		_HistAlarm
		_InitDisplay
		_LCDOff
		_LCDOn
		_MonitorDisable
		_MonitorDump
		_MonitorEnable
		_MonitorInit
		_MuteAlarm
		_SYSTEM_Initialize
		_See12V
		_See5V
		_SeePressureV_pa
		_SeePressure_pa
		_SetAlarmSV1
		_SetCalibrateState
		_SetSV1
		_TestAlarm
		_UART1_is_rx_ready
		___llmod
		_getch
		_printf
 This function is called by:
		Startup code after reset
 This function uses a non-reentrant model


 *************** function _getch *****************
 Defined at:
		line 224 in file "mcc_generated_files/uart1.c"
 Parameters:    Size  Location     Type
		None
 Auto vars:     Size  Location     Type
		None
 Return value:  Size  Location     Type
                  1    wreg      unsigned char 
 Registers used:
		wreg, fsr2l, fsr2h, status,2, status,0, cstack
 Tracked objects:
		On entry : 
		On exit  : 
		Unchanged: 
 Data sizes:     COMRAM   BANK0   BANK1   BANK2   BANK3   BANK4   BANK5   BANK6   BANK7   BANK8   BANK9  BANK10  BANK11  BANK12  BANK13  BANK14  BANK15
      Params:         0       0       0       0       0       0       0       0       0       0       0       0       0       0       0       0       0
      Locals:         0       0       0       0       0       0       0       0       0       0       0       0       0       0       0       0       0
      Temps:          0       0       0       0       0       0       0       0       0       0       0       0       0       0       0       0       0
      Totals:         0       0       0       0       0       0       0       0       0       0       0       0       0       0       0       0       0
Total ram usage:        0 bytes
 Hardware stack levels used:    1
 Hardware stack levels required when called:   17
 This function calls:
		_UART1_Read
 This function is called by:
		_main
 This function uses a non-reentrant model


 *************** function _UART1_Read *****************
 Defined at:
		line 179 in file "mcc_generated_files/uart1.c"
 Parameters:    Size  Location     Type
		None
 Auto vars:     Size  Location     Type
  readValue       1    4[BANK1 ] unsigned char 
 Return value:  Size  Location     Type
                  1    wreg      unsigned char 
 Registers used:
		wreg, fsr2l, fsr2h, status,2, status,0
 Tracked objects:
		On entry : 
		On exit  : 
		Unchanged: 
 Data sizes:     COMRAM   BANK0   BANK1   BANK2   BANK3   BANK4   BANK5   BANK6   BANK7   BANK8   BANK9  BANK10  BANK11  BANK12  BANK13  BANK14  BANK15
      Params:         0       0       0       0       0       0       0       0       0       0       0       0       0       0       0       0       0
      Locals:         0       0       1       0       0       0       0       0       0       0       0       0       0       0       0       0       0
      Temps:          0       0       0       0       0       0       0       0       0       0       0       0       0       0       0       0       0
      Totals:         0       0       1       0       0       0       0       0       0       0       0       0       0       0       0       0       0
Total ram usage:        1 bytes
 Hardware stack levels used:    1
 Hardware stack levels required when called:   16
 This function calls:
		Nothing
 This function is called by:
		_getch
 This function uses a non-reentrant model


 *************** function ___llmod *****************
 Defined at:
		line 7 in file "/Applications/microchip/xc8/v2.10/pic/sources/c99/common/llmod.c"
 Parameters:    Size  Location     Type
  dividend        4    4[BANK1 ] unsigned long 
  divisor         4    8[BANK1 ] unsigned long 
 Auto vars:     Size  Location     Type
  counter         1   12[BANK1 ] unsigned char 
 Return value:  Size  Location     Type
                  4    4[BANK1 ] unsigned long 
 Registers used:
		wreg, status,2, status,0
 Tracked objects:
		On entry : 
		On exit  : 
		Unchanged: 
 Data sizes:     COMRAM   BANK0   BANK1   BANK2   BANK3   BANK4   BANK5   BANK6   BANK7   BANK8   BANK9  BANK10  BANK11  BANK12  BANK13  BANK14  BANK15
      Params:         0       0       8       0       0       0       0       0       0       0       0       0       0       0       0       0       0
      Locals:         0       0       1       0       0       0       0       0       0       0       0       0       0       0       0       0       0
      Temps:          0       0       0       0       0       0       0       0       0       0       0       0       0       0       0       0       0
      Totals:         0       0       9       0       0       0       0       0       0       0       0       0       0       0       0       0       0
Total ram usage:        9 bytes
 Hardware stack levels used:    1
 Hardware stack levels required when called:   16
 This function calls:
		Nothing
 This function is called by:
		_main
 This function uses a non-reentrant model


 *************** function _UART1_is_rx_ready *****************
 Defined at:
		line 160 in file "mcc_generated_files/uart1.c"
 Parameters:    Size  Location     Type
		None
 Auto vars:     Size  Location     Type
		None
 Return value:  Size  Location     Type
                  1    wreg      _Bool 
 Registers used:
		wreg, status,2
 Tracked objects:
		On entry : 
		On exit  : 
		Unchanged: 
 Data sizes:     COMRAM   BANK0   BANK1   BANK2   BANK3   BANK4   BANK5   BANK6   BANK7   BANK8   BANK9  BANK10  BANK11  BANK12  BANK13  BANK14  BANK15
      Params:         0       0       0       0       0       0       0       0       0       0       0       0       0       0       0       0       0
      Locals:         0       0       0       0       0       0       0       0       0       0       0       0       0       0       0       0       0
      Temps:          0       0       0       0       0       0       0       0       0       0       0       0       0       0       0       0       0
      Totals:         0       0       0       0       0       0       0       0       0       0       0       0       0       0       0       0       0
Total ram usage:        0 bytes
 Hardware stack levels used:    1
 Hardware stack levels required when called:   16
 This function calls:
		Nothing
 This function is called by:
		_main
 This function uses a non-reentrant model


 *************** function _TestAlarm *****************
 Defined at:
		line 341 in file "alarm.c"
 Parameters:    Size  Location     Type
  id              2  131[BANK1 ] int 
 Auto vars:     Size  Location     Type
  i               2  137[BANK1 ] int 
 Return value:  Size  Location     Type
                  1    wreg      void 
 Registers used:
		wreg, fsr1l, fsr1h, fsr2l, fsr2h, status,2, status,0, tblptrl, tblptrh, tblptru, prodl, prodh, cstack
 Tracked objects:
		On entry : 
		On exit  : 
		Unchanged: 
 Data sizes:     COMRAM   BANK0   BANK1   BANK2   BANK3   BANK4   BANK5   BANK6   BANK7   BANK8   BANK9  BANK10  BANK11  BANK12  BANK13  BANK14  BANK15
      Params:         0       0       2       0       0       0       0       0       0       0       0       0       0       0       0       0       0
      Locals:         0       0       2       0       0       0       0       0       0       0       0       0       0       0       0       0       0
      Temps:          0       0       4       0       0       0       0       0       0       0       0       0       0       0       0       0       0
      Totals:         0       0       8       0       0       0       0       0       0       0       0       0       0       0       0       0       0
Total ram usage:        8 bytes
 Hardware stack levels used:    1
 Hardware stack levels required when called:   25
 This function calls:
		_printf
		_putchar
 This function is called by:
		_main
 This function uses a non-reentrant model


 *************** function _putchar *****************
 Defined at:
		line 4 in file "/Applications/microchip/xc8/v2.10/pic/sources/c99/common/putchar.c"
 Parameters:    Size  Location     Type
  c               2   15[BANK1 ] int 
 Auto vars:     Size  Location     Type
		None
 Return value:  Size  Location     Type
                  2   15[BANK1 ] int 
 Registers used:
		wreg, fsr1l, fsr1h, fsr2l, fsr2h, status,2, status,0, cstack
 Tracked objects:
		On entry : 
		On exit  : 
		Unchanged: 
 Data sizes:     COMRAM   BANK0   BANK1   BANK2   BANK3   BANK4   BANK5   BANK6   BANK7   BANK8   BANK9  BANK10  BANK11  BANK12  BANK13  BANK14  BANK15
      Params:         0       0       2       0       0       0       0       0       0       0       0       0       0       0       0       0       0
      Locals:         0       0       0       0       0       0       0       0       0       0       0       0       0       0       0       0       0
      Temps:          0       0       0       0       0       0       0       0       0       0       0       0       0       0       0       0       0
      Totals:         0       0       2       0       0       0       0       0       0       0       0       0       0       0       0       0       0
Total ram usage:        2 bytes
 Hardware stack levels used:    1
 Hardware stack levels required when called:   19
 This function calls:
		_fputc
 This function is called by:
		_TestAlarm
 This function uses a non-reentrant model


 *************** function _SetSV1 *****************
 Defined at:
		line 890 in file "monitor.c"
 Parameters:    Size  Location     Type
  value           1    wreg     _Bool 
 Auto vars:     Size  Location     Type
  value           1  131[BANK1 ] _Bool 
 Return value:  Size  Location     Type
                  1    wreg      void 
 Registers used:
		wreg, fsr1l, fsr1h, fsr2l, fsr2h, status,2, status,0, tblptrl, tblptrh, tblptru, prodl, prodh, cstack
 Tracked objects:
		On entry : 
		On exit  : 
		Unchanged: 
 Data sizes:     COMRAM   BANK0   BANK1   BANK2   BANK3   BANK4   BANK5   BANK6   BANK7   BANK8   BANK9  BANK10  BANK11  BANK12  BANK13  BANK14  BANK15
      Params:         0       0       0       0       0       0       0       0       0       0       0       0       0       0       0       0       0
      Locals:         0       0       1       0       0       0       0       0       0       0       0       0       0       0       0       0       0
      Temps:          0       0       0       0       0       0       0       0       0       0       0       0       0       0       0       0       0
      Totals:         0       0       1       0       0       0       0       0       0       0       0       0       0       0       0       0       0
Total ram usage:        1 bytes
 Hardware stack levels used:    1
 Hardware stack levels required when called:   25
 This function calls:
		_printf
 This function is called by:
		_main
 This function uses a non-reentrant model


 *************** function _SetCalibrateState *****************
 Defined at:
		line 245 in file "monitor.c"
 Parameters:    Size  Location     Type
  calib           1    wreg     _Bool 
 Auto vars:     Size  Location     Type
  calib           1  131[BANK1 ] _Bool 
 Return value:  Size  Location     Type
                  1    wreg      void 
 Registers used:
		wreg, fsr1l, fsr1h, fsr2l, fsr2h, status,2, status,0, tblptrl, tblptrh, tblptru, prodl, prodh, cstack
 Tracked objects:
		On entry : 
		On exit  : 
		Unchanged: 
 Data sizes:     COMRAM   BANK0   BANK1   BANK2   BANK3   BANK4   BANK5   BANK6   BANK7   BANK8   BANK9  BANK10  BANK11  BANK12  BANK13  BANK14  BANK15
      Params:         0       0       0       0       0       0       0       0       0       0       0       0       0       0       0       0       0
      Locals:         0       0       1       0       0       0       0       0       0       0       0       0       0       0       0       0       0
      Temps:          0       0       0       0       0       0       0       0       0       0       0       0       0       0       0       0       0
      Totals:         0       0       1       0       0       0       0       0       0       0       0       0       0       0       0       0       0
Total ram usage:        1 bytes
 Hardware stack levels used:    1
 Hardware stack levels required when called:   25
 This function calls:
		_ClearVars
		_GetPressureV_pa
		_GetPressure_pa
		_TMR0_StartTimer
		_TMR0_StopTimer
		_UnDisplayCalibrate
		___awdiv
		_printf
 This function is called by:
		_main
 This function uses a non-reentrant model


 *************** function _UnDisplayCalibrate *****************
 Defined at:
		line 61 in file "display.c"
 Parameters:    Size  Location     Type
		None
 Auto vars:     Size  Location     Type
		None
 Return value:  Size  Location     Type
                  1    wreg      void 
 Registers used:
		wreg, status,2
 Tracked objects:
		On entry : 
		On exit  : 
		Unchanged: 
 Data sizes:     COMRAM   BANK0   BANK1   BANK2   BANK3   BANK4   BANK5   BANK6   BANK7   BANK8   BANK9  BANK10  BANK11  BANK12  BANK13  BANK14  BANK15
      Params:         0       0       0       0       0       0       0       0       0       0       0       0       0       0       0       0       0
      Locals:         0       0       0       0       0       0       0       0       0       0       0       0       0       0       0       0       0
      Temps:          0       0       0       0       0       0       0       0       0       0       0       0       0       0       0       0       0
      Totals:         0       0       0       0       0       0       0       0       0       0       0       0       0       0       0       0       0
Total ram usage:        0 bytes
 Hardware stack levels used:    1
 Hardware stack levels required when called:   16
 This function calls:
		Nothing
 This function is called by:
		_SetCalibrateState
 This function uses a non-reentrant model


 *************** function _TMR0_StopTimer *****************
 Defined at:
		line 93 in file "mcc_generated_files/tmr0.c"
 Parameters:    Size  Location     Type
		None
 Auto vars:     Size  Location     Type
		None
 Return value:  Size  Location     Type
                  1    wreg      void 
 Registers used:
		None
 Tracked objects:
		On entry : 
		On exit  : 
		Unchanged: 
 Data sizes:     COMRAM   BANK0   BANK1   BANK2   BANK3   BANK4   BANK5   BANK6   BANK7   BANK8   BANK9  BANK10  BANK11  BANK12  BANK13  BANK14  BANK15
      Params:         0       0       0       0       0       0       0       0       0       0       0       0       0       0       0       0       0
      Locals:         0       0       0       0       0       0       0       0       0       0       0       0       0       0       0       0       0
      Temps:          0       0       0       0       0       0       0       0       0       0       0       0       0       0       0       0       0
      Totals:         0       0       0       0       0       0       0       0       0       0       0       0       0       0       0       0       0
Total ram usage:        0 bytes
 Hardware stack levels used:    1
 Hardware stack levels required when called:   16
 This function calls:
		Nothing
 This function is called by:
		_SetCalibrateState
 This function uses a non-reentrant model


 *************** function _GetPressure_pa *****************
 Defined at:
		line 787 in file "monitor.c"
 Parameters:    Size  Location     Type
		None
 Auto vars:     Size  Location     Type
  mv              4   42[BANK1 ] long 
  p32             4   34[BANK1 ] long 
  p               2   40[BANK1 ] short 
  adc             2   38[BANK1 ] unsigned short 
 Return value:  Size  Location     Type
                  2   30[BANK1 ] short 
 Registers used:
		wreg, fsr2l, fsr2h, status,2, status,0, prodl, prodh, cstack
 Tracked objects:
		On entry : 
		On exit  : 
		Unchanged: 
 Data sizes:     COMRAM   BANK0   BANK1   BANK2   BANK3   BANK4   BANK5   BANK6   BANK7   BANK8   BANK9  BANK10  BANK11  BANK12  BANK13  BANK14  BANK15
      Params:         0       0       2       0       0       0       0       0       0       0       0       0       0       0       0       0       0
      Locals:         0       0      12       0       0       0       0       0       0       0       0       0       0       0       0       0       0
      Temps:          0       0       2       0       0       0       0       0       0       0       0       0       0       0       0       0       0
      Totals:         0       0      16       0       0       0       0       0       0       0       0       0       0       0       0       0       0
Total ram usage:       16 bytes
 Hardware stack levels used:    1
 Hardware stack levels required when called:   18
 This function calls:
		_AdcGetData
		___aldiv
		___awdiv
		___lmul
 This function is called by:
		_SetCalibrateState
 This function uses a non-reentrant model


 *************** function _GetPressureV_pa *****************
 Defined at:
		line 814 in file "monitor.c"
 Parameters:    Size  Location     Type
		None
 Auto vars:     Size  Location     Type
  mv              4   24[BANK1 ] long 
  p               2   28[BANK1 ] short 
  adcv            2   22[BANK1 ] unsigned short 
 Return value:  Size  Location     Type
                  2   18[BANK1 ] short 
 Registers used:
		wreg, fsr2l, fsr2h, status,2, status,0, prodl, prodh, cstack
 Tracked objects:
		On entry : 
		On exit  : 
		Unchanged: 
 Data sizes:     COMRAM   BANK0   BANK1   BANK2   BANK3   BANK4   BANK5   BANK6   BANK7   BANK8   BANK9  BANK10  BANK11  BANK12  BANK13  BANK14  BANK15
      Params:         0       0       2       0       0       0       0       0       0       0       0       0       0       0       0       0       0
      Locals:         0       0       8       0       0       0       0       0       0       0       0       0       0       0       0       0       0
      Temps:          0       0       2       0       0       0       0       0       0       0       0       0       0       0       0       0       0
      Totals:         0       0      12       0       0       0       0       0       0       0       0       0       0       0       0       0       0
Total ram usage:       12 bytes
 Hardware stack levels used:    1
 Hardware stack levels required when called:   18
 This function calls:
		_AdcGetData
		___awdiv
 This function is called by:
		_SetCalibrateState
 This function uses a non-reentrant model


 *************** function _SeePressure_pa *****************
 Defined at:
		line 803 in file "monitor.c"
 Parameters:    Size  Location     Type
		None
 Auto vars:     Size  Location     Type
  mv              4   42[BANK1 ] long 
  p32             4   34[BANK1 ] long 
  p               2   40[BANK1 ] short 
  adc             2   38[BANK1 ] unsigned short 
 Return value:  Size  Location     Type
                  2   30[BANK1 ] short 
 Registers used:
		wreg, fsr2l, fsr2h, status,2, status,0, prodl, prodh, cstack
 Tracked objects:
		On entry : 
		On exit  : 
		Unchanged: 
 Data sizes:     COMRAM   BANK0   BANK1   BANK2   BANK3   BANK4   BANK5   BANK6   BANK7   BANK8   BANK9  BANK10  BANK11  BANK12  BANK13  BANK14  BANK15
      Params:         0       0       2       0       0       0       0       0       0       0       0       0       0       0       0       0       0
      Locals:         0       0      12       0       0       0       0       0       0       0       0       0       0       0       0       0       0
      Temps:          0       0       2       0       0       0       0       0       0       0       0       0       0       0       0       0       0
      Totals:         0       0      16       0       0       0       0       0       0       0       0       0       0       0       0       0       0
Total ram usage:       16 bytes
 Hardware stack levels used:    1
 Hardware stack levels required when called:   18
 This function calls:
		_AdcSeeData
		___aldiv
		___awdiv
		___lmul
 This function is called by:
		_main
 This function uses a non-reentrant model


 *************** function _SeePressureV_pa *****************
 Defined at:
		line 831 in file "monitor.c"
 Parameters:    Size  Location     Type
		None
 Auto vars:     Size  Location     Type
  mv              4   26[BANK1 ] long 
  p               2   24[BANK1 ] short 
  adcv            2   22[BANK1 ] unsigned short 
 Return value:  Size  Location     Type
                  2   18[BANK1 ] short 
 Registers used:
		wreg, fsr2l, fsr2h, status,2, status,0, prodl, prodh, cstack
 Tracked objects:
		On entry : 
		On exit  : 
		Unchanged: 
 Data sizes:     COMRAM   BANK0   BANK1   BANK2   BANK3   BANK4   BANK5   BANK6   BANK7   BANK8   BANK9  BANK10  BANK11  BANK12  BANK13  BANK14  BANK15
      Params:         0       0       2       0       0       0       0       0       0       0       0       0       0       0       0       0       0
      Locals:         0       0       8       0       0       0       0       0       0       0       0       0       0       0       0       0       0
      Temps:          0       0       2       0       0       0       0       0       0       0       0       0       0       0       0       0       0
      Totals:         0       0      12       0       0       0       0       0       0       0       0       0       0       0       0       0       0
Total ram usage:       12 bytes
 Hardware stack levels used:    1
 Hardware stack levels required when called:   18
 This function calls:
		_AdcSeeData
		___awdiv
 This function is called by:
		_main
 This function uses a non-reentrant model


 *************** function _SYSTEM_Initialize *****************
 Defined at:
		line 50 in file "mcc_generated_files/mcc.c"
 Parameters:    Size  Location     Type
		None
 Auto vars:     Size  Location     Type
		None
 Return value:  Size  Location     Type
                  1    wreg      void 
 Registers used:
		wreg, status,2, status,0, cstack
 Tracked objects:
		On entry : 
		On exit  : 
		Unchanged: 
 Data sizes:     COMRAM   BANK0   BANK1   BANK2   BANK3   BANK4   BANK5   BANK6   BANK7   BANK8   BANK9  BANK10  BANK11  BANK12  BANK13  BANK14  BANK15
      Params:         0       0       0       0       0       0       0       0       0       0       0       0       0       0       0       0       0
      Locals:         0       0       0       0       0       0       0       0       0       0       0       0       0       0       0       0       0
      Temps:          0       0       0       0       0       0       0       0       0       0       0       0       0       0       0       0       0
      Totals:         0       0       0       0       0       0       0       0       0       0       0       0       0       0       0       0       0
Total ram usage:        0 bytes
 Hardware stack levels used:    1
 Hardware stack levels required when called:   18
 This function calls:
		_ADCC_Initialize
		_CMP1_Initialize
		_FVR_Initialize
		_I2C2_Initialize
		_INTERRUPT_Initialize
		_OSCILLATOR_Initialize
		_PIN_MANAGER_Initialize
		_PMD_Initialize
		_PWM6_Initialize
		_TMR0_Initialize
		_TMR1_Initialize
		_TMR2_Initialize
		_TMR4_Initialize
		_TMR5_Initialize
		_TMR6_Initialize
		_UART1_Initialize
 This function is called by:
		_main
 This function uses a non-reentrant model


 *************** function _UART1_Initialize *****************
 Defined at:
		line 86 in file "mcc_generated_files/uart1.c"
 Parameters:    Size  Location     Type
		None
 Auto vars:     Size  Location     Type
		None
 Return value:  Size  Location     Type
                  1    wreg      void 
 Registers used:
		wreg, status,2, status,0, cstack
 Tracked objects:
		On entry : 
		On exit  : 
		Unchanged: 
 Data sizes:     COMRAM   BANK0   BANK1   BANK2   BANK3   BANK4   BANK5   BANK6   BANK7   BANK8   BANK9  BANK10  BANK11  BANK12  BANK13  BANK14  BANK15
      Params:         0       0       0       0       0       0       0       0       0       0       0       0       0       0       0       0       0
      Locals:         0       0       0       0       0       0       0       0       0       0       0       0       0       0       0       0       0
      Temps:          0       0       0       0       0       0       0       0       0       0       0       0       0       0       0       0       0
      Totals:         0       0       0       0       0       0       0       0       0       0       0       0       0       0       0       0       0
Total ram usage:        0 bytes
 Hardware stack levels used:    1
 Hardware stack levels required when called:   17
 This function calls:
		_UART1_SetErrorHandler
		_UART1_SetFramingErrorHandler
		_UART1_SetOverrunErrorHandler
		_UART1_SetRxInterruptHandler
		_UART1_SetTxInterruptHandler
 This function is called by:
		_SYSTEM_Initialize
 This function uses a non-reentrant model


 *************** function _UART1_SetTxInterruptHandler *****************
 Defined at:
		line 318 in file "mcc_generated_files/uart1.c"
 Parameters:    Size  Location     Type
  InterruptHan    2    4[BANK1 ] PTR FTN()void 
		 -> UART1_Transmit_ISR(1), 
 Auto vars:     Size  Location     Type
		None
 Return value:  Size  Location     Type
                  1    wreg      void 
 Registers used:
		wreg, status,2, status,0
 Tracked objects:
		On entry : 
		On exit  : 
		Unchanged: 
 Data sizes:     COMRAM   BANK0   BANK1   BANK2   BANK3   BANK4   BANK5   BANK6   BANK7   BANK8   BANK9  BANK10  BANK11  BANK12  BANK13  BANK14  BANK15
      Params:         0       0       2       0       0       0       0       0       0       0       0       0       0       0       0       0       0
      Locals:         0       0       0       0       0       0       0       0       0       0       0       0       0       0       0       0       0
      Temps:          0       0       0       0       0       0       0       0       0       0       0       0       0       0       0       0       0
      Totals:         0       0       2       0       0       0       0       0       0       0       0       0       0       0       0       0       0
Total ram usage:        2 bytes
 Hardware stack levels used:    1
 Hardware stack levels required when called:   16
 This function calls:
		Nothing
 This function is called by:
		_UART1_Initialize
 This function uses a non-reentrant model


 *************** function _UART1_SetRxInterruptHandler *****************
 Defined at:
		line 314 in file "mcc_generated_files/uart1.c"
 Parameters:    Size  Location     Type
  InterruptHan    2    4[BANK1 ] PTR FTN()void 
		 -> UART1_Receive_ISR(1), 
 Auto vars:     Size  Location     Type
		None
 Return value:  Size  Location     Type
                  1    wreg      void 
 Registers used:
		wreg, status,2, status,0
 Tracked objects:
		On entry : 
		On exit  : 
		Unchanged: 
 Data sizes:     COMRAM   BANK0   BANK1   BANK2   BANK3   BANK4   BANK5   BANK6   BANK7   BANK8   BANK9  BANK10  BANK11  BANK12  BANK13  BANK14  BANK15
      Params:         0       0       2       0       0       0       0       0       0       0       0       0       0       0       0       0       0
      Locals:         0       0       0       0       0       0       0       0       0       0       0       0       0       0       0       0       0
      Temps:          0       0       0       0       0       0       0       0       0       0       0       0       0       0       0       0       0
      Totals:         0       0       2       0       0       0       0       0       0       0       0       0       0       0       0       0       0
Total ram usage:        2 bytes
 Hardware stack levels used:    1
 Hardware stack levels required when called:   16
 This function calls:
		Nothing
 This function is called by:
		_UART1_Initialize
 This function uses a non-reentrant model


 *************** function _UART1_SetOverrunErrorHandler *****************
 Defined at:
		line 304 in file "mcc_generated_files/uart1.c"
 Parameters:    Size  Location     Type
  interruptHan    2    4[BANK1 ] PTR FTN()void 
		 -> UART1_DefaultOverrunErrorHandler(1), 
 Auto vars:     Size  Location     Type
		None
 Return value:  Size  Location     Type
                  1    wreg      void 
 Registers used:
		wreg, status,2, status,0
 Tracked objects:
		On entry : 
		On exit  : 
		Unchanged: 
 Data sizes:     COMRAM   BANK0   BANK1   BANK2   BANK3   BANK4   BANK5   BANK6   BANK7   BANK8   BANK9  BANK10  BANK11  BANK12  BANK13  BANK14  BANK15
      Params:         0       0       2       0       0       0       0       0       0       0       0       0       0       0       0       0       0
      Locals:         0       0       0       0       0       0       0       0       0       0       0       0       0       0       0       0       0
      Temps:          0       0       0       0       0       0       0       0       0       0       0       0       0       0       0       0       0
      Totals:         0       0       2       0       0       0       0       0       0       0       0       0       0       0       0       0       0
Total ram usage:        2 bytes
 Hardware stack levels used:    1
 Hardware stack levels required when called:   16
 This function calls:
		Nothing
 This function is called by:
		_UART1_Initialize
 This function uses a non-reentrant model


 *************** function _UART1_SetFramingErrorHandler *****************
 Defined at:
		line 300 in file "mcc_generated_files/uart1.c"
 Parameters:    Size  Location     Type
  interruptHan    2    4[BANK1 ] PTR FTN()void 
		 -> UART1_DefaultFramingErrorHandler(1), 
 Auto vars:     Size  Location     Type
		None
 Return value:  Size  Location     Type
                  1    wreg      void 
 Registers used:
		wreg, status,2, status,0
 Tracked objects:
		On entry : 
		On exit  : 
		Unchanged: 
 Data sizes:     COMRAM   BANK0   BANK1   BANK2   BANK3   BANK4   BANK5   BANK6   BANK7   BANK8   BANK9  BANK10  BANK11  BANK12  BANK13  BANK14  BANK15
      Params:         0       0       2       0       0       0       0       0       0       0       0       0       0       0       0       0       0
      Locals:         0       0       0       0       0       0       0       0       0       0       0       0       0       0       0       0       0
      Temps:          0       0       0       0       0       0       0       0       0       0       0       0       0       0       0       0       0
      Totals:         0       0       2       0       0       0       0       0       0       0       0       0       0       0       0       0       0
Total ram usage:        2 bytes
 Hardware stack levels used:    1
 Hardware stack levels required when called:   16
 This function calls:
		Nothing
 This function is called by:
		_UART1_Initialize
 This function uses a non-reentrant model


 *************** function _UART1_SetErrorHandler *****************
 Defined at:
		line 308 in file "mcc_generated_files/uart1.c"
 Parameters:    Size  Location     Type
  interruptHan    2    4[BANK1 ] PTR FTN()void 
		 -> UART1_DefaultErrorHandler(1), 
 Auto vars:     Size  Location     Type
		None
 Return value:  Size  Location     Type
                  1    wreg      void 
 Registers used:
		wreg, status,2, status,0
 Tracked objects:
		On entry : 
		On exit  : 
		Unchanged: 
 Data sizes:     COMRAM   BANK0   BANK1   BANK2   BANK3   BANK4   BANK5   BANK6   BANK7   BANK8   BANK9  BANK10  BANK11  BANK12  BANK13  BANK14  BANK15
      Params:         0       0       2       0       0       0       0       0       0       0       0       0       0       0       0       0       0
      Locals:         0       0       0       0       0       0       0       0       0       0       0       0       0       0       0       0       0
      Temps:          0       0       0       0       0       0       0       0       0       0       0       0       0       0       0       0       0
      Totals:         0       0       2       0       0       0       0       0       0       0       0       0       0       0       0       0       0
Total ram usage:        2 bytes
 Hardware stack levels used:    1
 Hardware stack levels required when called:   16
 This function calls:
		Nothing
 This function is called by:
		_UART1_Initialize
 This function uses a non-reentrant model


 *************** function _TMR6_Initialize *****************
 Defined at:
		line 64 in file "mcc_generated_files/tmr6.c"
 Parameters:    Size  Location     Type
		None
 Auto vars:     Size  Location     Type
		None
 Return value:  Size  Location     Type
                  1    wreg      void 
 Registers used:
		wreg, status,2, status,0, cstack
 Tracked objects:
		On entry : 
		On exit  : 
		Unchanged: 
 Data sizes:     COMRAM   BANK0   BANK1   BANK2   BANK3   BANK4   BANK5   BANK6   BANK7   BANK8   BANK9  BANK10  BANK11  BANK12  BANK13  BANK14  BANK15
      Params:         0       0       0       0       0       0       0       0       0       0       0       0       0       0       0       0       0
      Locals:         0       0       0       0       0       0       0       0       0       0       0       0       0       0       0       0       0
      Temps:          0       0       0       0       0       0       0       0       0       0       0       0       0       0       0       0       0
      Totals:         0       0       0       0       0       0       0       0       0       0       0       0       0       0       0       0       0
Total ram usage:        0 bytes
 Hardware stack levels used:    1
 Hardware stack levels required when called:   17
 This function calls:
		_TMR6_SetInterruptHandler
 This function is called by:
		_SYSTEM_Initialize
 This function uses a non-reentrant model


 *************** function _TMR5_Initialize *****************
 Defined at:
		line 64 in file "mcc_generated_files/tmr5.c"
 Parameters:    Size  Location     Type
		None
 Auto vars:     Size  Location     Type
		None
 Return value:  Size  Location     Type
                  1    wreg      void 
 Registers used:
		wreg, status,2, status,0, cstack
 Tracked objects:
		On entry : 
		On exit  : 
		Unchanged: 
 Data sizes:     COMRAM   BANK0   BANK1   BANK2   BANK3   BANK4   BANK5   BANK6   BANK7   BANK8   BANK9  BANK10  BANK11  BANK12  BANK13  BANK14  BANK15
      Params:         0       0       0       0       0       0       0       0       0       0       0       0       0       0       0       0       0
      Locals:         0       0       0       0       0       0       0       0       0       0       0       0       0       0       0       0       0
      Temps:          0       0       2       0       0       0       0       0       0       0       0       0       0       0       0       0       0
      Totals:         0       0       2       0       0       0       0       0       0       0       0       0       0       0       0       0       0
Total ram usage:        2 bytes
 Hardware stack levels used:    1
 Hardware stack levels required when called:   17
 This function calls:
		_TMR5_SetInterruptHandler
 This function is called by:
		_SYSTEM_Initialize
 This function uses a non-reentrant model


 *************** function _TMR4_Initialize *****************
 Defined at:
		line 64 in file "mcc_generated_files/tmr4.c"
 Parameters:    Size  Location     Type
		None
 Auto vars:     Size  Location     Type
		None
 Return value:  Size  Location     Type
                  1    wreg      void 
 Registers used:
		wreg, status,2, status,0, cstack
 Tracked objects:
		On entry : 
		On exit  : 
		Unchanged: 
 Data sizes:     COMRAM   BANK0   BANK1   BANK2   BANK3   BANK4   BANK5   BANK6   BANK7   BANK8   BANK9  BANK10  BANK11  BANK12  BANK13  BANK14  BANK15
      Params:         0       0       0       0       0       0       0       0       0       0       0       0       0       0       0       0       0
      Locals:         0       0       0       0       0       0       0       0       0       0       0       0       0       0       0       0       0
      Temps:          0       0       0       0       0       0       0       0       0       0       0       0       0       0       0       0       0
      Totals:         0       0       0       0       0       0       0       0       0       0       0       0       0       0       0       0       0
Total ram usage:        0 bytes
 Hardware stack levels used:    1
 Hardware stack levels required when called:   17
 This function calls:
		_TMR4_SetInterruptHandler
 This function is called by:
		_SYSTEM_Initialize
 This function uses a non-reentrant model


 *************** function _TMR2_Initialize *****************
 Defined at:
		line 62 in file "mcc_generated_files/tmr2.c"
 Parameters:    Size  Location     Type
		None
 Auto vars:     Size  Location     Type
		None
 Return value:  Size  Location     Type
                  1    wreg      void 
 Registers used:
		wreg, status,2
 Tracked objects:
		On entry : 
		On exit  : 
		Unchanged: 
 Data sizes:     COMRAM   BANK0   BANK1   BANK2   BANK3   BANK4   BANK5   BANK6   BANK7   BANK8   BANK9  BANK10  BANK11  BANK12  BANK13  BANK14  BANK15
      Params:         0       0       0       0       0       0       0       0       0       0       0       0       0       0       0       0       0
      Locals:         0       0       0       0       0       0       0       0       0       0       0       0       0       0       0       0       0
      Temps:          0       0       0       0       0       0       0       0       0       0       0       0       0       0       0       0       0
      Totals:         0       0       0       0       0       0       0       0       0       0       0       0       0       0       0       0       0
Total ram usage:        0 bytes
 Hardware stack levels used:    1
 Hardware stack levels required when called:   16
 This function calls:
		Nothing
 This function is called by:
		_SYSTEM_Initialize
 This function uses a non-reentrant model


 *************** function _TMR1_Initialize *****************
 Defined at:
		line 64 in file "mcc_generated_files/tmr1.c"
 Parameters:    Size  Location     Type
		None
 Auto vars:     Size  Location     Type
		None
 Return value:  Size  Location     Type
                  1    wreg      void 
 Registers used:
		wreg, status,2, status,0, cstack
 Tracked objects:
		On entry : 
		On exit  : 
		Unchanged: 
 Data sizes:     COMRAM   BANK0   BANK1   BANK2   BANK3   BANK4   BANK5   BANK6   BANK7   BANK8   BANK9  BANK10  BANK11  BANK12  BANK13  BANK14  BANK15
      Params:         0       0       0       0       0       0       0       0       0       0       0       0       0       0       0       0       0
      Locals:         0       0       0       0       0       0       0       0       0       0       0       0       0       0       0       0       0
      Temps:          0       0       2       0       0       0       0       0       0       0       0       0       0       0       0       0       0
      Totals:         0       0       2       0       0       0       0       0       0       0       0       0       0       0       0       0       0
Total ram usage:        2 bytes
 Hardware stack levels used:    1
 Hardware stack levels required when called:   17
 This function calls:
		_TMR1_SetInterruptHandler
 This function is called by:
		_SYSTEM_Initialize
 This function uses a non-reentrant model


 *************** function _TMR0_Initialize *****************
 Defined at:
		line 61 in file "mcc_generated_files/tmr0.c"
 Parameters:    Size  Location     Type
		None
 Auto vars:     Size  Location     Type
		None
 Return value:  Size  Location     Type
                  1    wreg      void 
 Registers used:
		wreg, status,2, status,0, cstack
 Tracked objects:
		On entry : 
		On exit  : 
		Unchanged: 
 Data sizes:     COMRAM   BANK0   BANK1   BANK2   BANK3   BANK4   BANK5   BANK6   BANK7   BANK8   BANK9  BANK10  BANK11  BANK12  BANK13  BANK14  BANK15
      Params:         0       0       0       0       0       0       0       0       0       0       0       0       0       0       0       0       0
      Locals:         0       0       0       0       0       0       0       0       0       0       0       0       0       0       0       0       0
      Temps:          0       0       0       0       0       0       0       0       0       0       0       0       0       0       0       0       0
      Totals:         0       0       0       0       0       0       0       0       0       0       0       0       0       0       0       0       0
Total ram usage:        0 bytes
 Hardware stack levels used:    1
 Hardware stack levels required when called:   17
 This function calls:
		_TMR0_SetInterruptHandler
 This function is called by:
		_SYSTEM_Initialize
 This function uses a non-reentrant model


 *************** function _PWM6_Initialize *****************
 Defined at:
		line 58 in file "mcc_generated_files/pwm6.c"
 Parameters:    Size  Location     Type
		None
 Auto vars:     Size  Location     Type
		None
 Return value:  Size  Location     Type
                  1    wreg      void 
 Registers used:
		wreg, status,2
 Tracked objects:
		On entry : 
		On exit  : 
		Unchanged: 
 Data sizes:     COMRAM   BANK0   BANK1   BANK2   BANK3   BANK4   BANK5   BANK6   BANK7   BANK8   BANK9  BANK10  BANK11  BANK12  BANK13  BANK14  BANK15
      Params:         0       0       0       0       0       0       0       0       0       0       0       0       0       0       0       0       0
      Locals:         0       0       0       0       0       0       0       0       0       0       0       0       0       0       0       0       0
      Temps:          0       0       0       0       0       0       0       0       0       0       0       0       0       0       0       0       0
      Totals:         0       0       0       0       0       0       0       0       0       0       0       0       0       0       0       0       0
Total ram usage:        0 bytes
 Hardware stack levels used:    1
 Hardware stack levels required when called:   16
 This function calls:
		Nothing
 This function is called by:
		_SYSTEM_Initialize
 This function uses a non-reentrant model


 *************** function _PMD_Initialize *****************
 Defined at:
		line 84 in file "mcc_generated_files/mcc.c"
 Parameters:    Size  Location     Type
		None
 Auto vars:     Size  Location     Type
		None
 Return value:  Size  Location     Type
                  1    wreg      void 
 Registers used:
		wreg, status,2
 Tracked objects:
		On entry : 
		On exit  : 
		Unchanged: 
 Data sizes:     COMRAM   BANK0   BANK1   BANK2   BANK3   BANK4   BANK5   BANK6   BANK7   BANK8   BANK9  BANK10  BANK11  BANK12  BANK13  BANK14  BANK15
      Params:         0       0       0       0       0       0       0       0       0       0       0       0       0       0       0       0       0
      Locals:         0       0       0       0       0       0       0       0       0       0       0       0       0       0       0       0       0
      Temps:          0       0       0       0       0       0       0       0       0       0       0       0       0       0       0       0       0
      Totals:         0       0       0       0       0       0       0       0       0       0       0       0       0       0       0       0       0
Total ram usage:        0 bytes
 Hardware stack levels used:    1
 Hardware stack levels required when called:   16
 This function calls:
		Nothing
 This function is called by:
		_SYSTEM_Initialize
 This function uses a non-reentrant model


 *************** function _PIN_MANAGER_Initialize *****************
 Defined at:
		line 55 in file "mcc_generated_files/pin_manager.c"
 Parameters:    Size  Location     Type
		None
 Auto vars:     Size  Location     Type
		None
 Return value:  Size  Location     Type
                  1    wreg      void 
 Registers used:
		wreg, status,2
 Tracked objects:
		On entry : 
		On exit  : 
		Unchanged: 
 Data sizes:     COMRAM   BANK0   BANK1   BANK2   BANK3   BANK4   BANK5   BANK6   BANK7   BANK8   BANK9  BANK10  BANK11  BANK12  BANK13  BANK14  BANK15
      Params:         0       0       0       0       0       0       0       0       0       0       0       0       0       0       0       0       0
      Locals:         0       0       0       0       0       0       0       0       0       0       0       0       0       0       0       0       0
      Temps:          0       0       0       0       0       0       0       0       0       0       0       0       0       0       0       0       0
      Totals:         0       0       0       0       0       0       0       0       0       0       0       0       0       0       0       0       0
Total ram usage:        0 bytes
 Hardware stack levels used:    1
 Hardware stack levels required when called:   16
 This function calls:
		Nothing
 This function is called by:
		_SYSTEM_Initialize
 This function uses a non-reentrant model


 *************** function _OSCILLATOR_Initialize *****************
 Defined at:
		line 70 in file "mcc_generated_files/mcc.c"
 Parameters:    Size  Location     Type
		None
 Auto vars:     Size  Location     Type
		None
 Return value:  Size  Location     Type
                  1    wreg      void 
 Registers used:
		wreg, status,2
 Tracked objects:
		On entry : 
		On exit  : 
		Unchanged: 
 Data sizes:     COMRAM   BANK0   BANK1   BANK2   BANK3   BANK4   BANK5   BANK6   BANK7   BANK8   BANK9  BANK10  BANK11  BANK12  BANK13  BANK14  BANK15
      Params:         0       0       0       0       0       0       0       0       0       0       0       0       0       0       0       0       0
      Locals:         0       0       0       0       0       0       0       0       0       0       0       0       0       0       0       0       0
      Temps:          0       0       0       0       0       0       0       0       0       0       0       0       0       0       0       0       0
      Totals:         0       0       0       0       0       0       0       0       0       0       0       0       0       0       0       0       0
Total ram usage:        0 bytes
 Hardware stack levels used:    1
 Hardware stack levels required when called:   16
 This function calls:
		Nothing
 This function is called by:
		_SYSTEM_Initialize
 This function uses a non-reentrant model


 *************** function _INTERRUPT_Initialize *****************
 Defined at:
		line 52 in file "mcc_generated_files/interrupt_manager.c"
 Parameters:    Size  Location     Type
		None
 Auto vars:     Size  Location     Type
		None
 Return value:  Size  Location     Type
                  1    wreg      void 
 Registers used:
		None
 Tracked objects:
		On entry : 
		On exit  : 
		Unchanged: 
 Data sizes:     COMRAM   BANK0   BANK1   BANK2   BANK3   BANK4   BANK5   BANK6   BANK7   BANK8   BANK9  BANK10  BANK11  BANK12  BANK13  BANK14  BANK15
      Params:         0       0       0       0       0       0       0       0       0       0       0       0       0       0       0       0       0
      Locals:         0       0       0       0       0       0       0       0       0       0       0       0       0       0       0       0       0
      Temps:          0       0       0       0       0       0       0       0       0       0       0       0       0       0       0       0       0
      Totals:         0       0       0       0       0       0       0       0       0       0       0       0       0       0       0       0       0
Total ram usage:        0 bytes
 Hardware stack levels used:    1
 Hardware stack levels required when called:   16
 This function calls:
		Nothing
 This function is called by:
		_SYSTEM_Initialize
 This function uses a non-reentrant model


 *************** function _I2C2_Initialize *****************
 Defined at:
		line 115 in file "mcc_generated_files/i2c2_slave.c"
 Parameters:    Size  Location     Type
		None
 Auto vars:     Size  Location     Type
		None
 Return value:  Size  Location     Type
                  1    wreg      void 
 Registers used:
		wreg, status,2
 Tracked objects:
		On entry : 
		On exit  : 
		Unchanged: 
 Data sizes:     COMRAM   BANK0   BANK1   BANK2   BANK3   BANK4   BANK5   BANK6   BANK7   BANK8   BANK9  BANK10  BANK11  BANK12  BANK13  BANK14  BANK15
      Params:         0       0       0       0       0       0       0       0       0       0       0       0       0       0       0       0       0
      Locals:         0       0       0       0       0       0       0       0       0       0       0       0       0       0       0       0       0
      Temps:          0       0       0       0       0       0       0       0       0       0       0       0       0       0       0       0       0
      Totals:         0       0       0       0       0       0       0       0       0       0       0       0       0       0       0       0       0
Total ram usage:        0 bytes
 Hardware stack levels used:    1
 Hardware stack levels required when called:   16
 This function calls:
		Nothing
 This function is called by:
		_SYSTEM_Initialize
 This function uses a non-reentrant model


 *************** function _FVR_Initialize *****************
 Defined at:
		line 58 in file "mcc_generated_files/fvr.c"
 Parameters:    Size  Location     Type
		None
 Auto vars:     Size  Location     Type
		None
 Return value:  Size  Location     Type
                  1    wreg      void 
 Registers used:
		wreg, status,2
 Tracked objects:
		On entry : 
		On exit  : 
		Unchanged: 
 Data sizes:     COMRAM   BANK0   BANK1   BANK2   BANK3   BANK4   BANK5   BANK6   BANK7   BANK8   BANK9  BANK10  BANK11  BANK12  BANK13  BANK14  BANK15
      Params:         0       0       0       0       0       0       0       0       0       0       0       0       0       0       0       0       0
      Locals:         0       0       0       0       0       0       0       0       0       0       0       0       0       0       0       0       0
      Temps:          0       0       0       0       0       0       0       0       0       0       0       0       0       0       0       0       0
      Totals:         0       0       0       0       0       0       0       0       0       0       0       0       0       0       0       0       0
Total ram usage:        0 bytes
 Hardware stack levels used:    1
 Hardware stack levels required when called:   16
 This function calls:
		Nothing
 This function is called by:
		_SYSTEM_Initialize
 This function uses a non-reentrant model


 *************** function _CMP1_Initialize *****************
 Defined at:
		line 60 in file "mcc_generated_files/cmp1.c"
 Parameters:    Size  Location     Type
		None
 Auto vars:     Size  Location     Type
		None
 Return value:  Size  Location     Type
                  1    wreg      void 
 Registers used:
		wreg, status,2, cstack
 Tracked objects:
		On entry : 
		On exit  : 
		Unchanged: 
 Data sizes:     COMRAM   BANK0   BANK1   BANK2   BANK3   BANK4   BANK5   BANK6   BANK7   BANK8   BANK9  BANK10  BANK11  BANK12  BANK13  BANK14  BANK15
      Params:         0       0       0       0       0       0       0       0       0       0       0       0       0       0       0       0       0
      Locals:         0       0       0       0       0       0       0       0       0       0       0       0       0       0       0       0       0
      Temps:          0       0       0       0       0       0       0       0       0       0       0       0       0       0       0       0       0
      Totals:         0       0       0       0       0       0       0       0       0       0       0       0       0       0       0       0       0
Total ram usage:        0 bytes
 Hardware stack levels used:    1
 Hardware stack levels required when called:   17
 This function calls:
		_CMP1_Disable
		_CMP1_Enable
 This function is called by:
		_SYSTEM_Initialize
 This function uses a non-reentrant model


 *************** function _ADCC_Initialize *****************
 Defined at:
		line 63 in file "mcc_generated_files/adcc.c"
 Parameters:    Size  Location     Type
		None
 Auto vars:     Size  Location     Type
		None
 Return value:  Size  Location     Type
                  1    wreg      void 
 Registers used:
		wreg, status,2, status,0, cstack
 Tracked objects:
		On entry : 
		On exit  : 
		Unchanged: 
 Data sizes:     COMRAM   BANK0   BANK1   BANK2   BANK3   BANK4   BANK5   BANK6   BANK7   BANK8   BANK9  BANK10  BANK11  BANK12  BANK13  BANK14  BANK15
      Params:         0       0       0       0       0       0       0       0       0       0       0       0       0       0       0       0       0
      Locals:         0       0       0       0       0       0       0       0       0       0       0       0       0       0       0       0       0
      Temps:          0       0       0       0       0       0       0       0       0       0       0       0       0       0       0       0       0
      Totals:         0       0       0       0       0       0       0       0       0       0       0       0       0       0       0       0       0
Total ram usage:        0 bytes
 Hardware stack levels used:    1
 Hardware stack levels required when called:   17
 This function calls:
		_ADCC_SetADTIInterruptHandler
 This function is called by:
		_SYSTEM_Initialize
 This function uses a non-reentrant model


 *************** function _MuteAlarm *****************
 Defined at:
		line 377 in file "alarm.c"
 Parameters:    Size  Location     Type
		None
 Auto vars:     Size  Location     Type
  high            2  135[BANK1 ] int 
 Return value:  Size  Location     Type
                  1    wreg      void 
 Registers used:
		wreg, fsr1l, fsr1h, fsr2l, fsr2h, status,2, status,0, tblptrl, tblptrh, tblptru, prodl, prodh, cstack
 Tracked objects:
		On entry : 
		On exit  : 
		Unchanged: 
 Data sizes:     COMRAM   BANK0   BANK1   BANK2   BANK3   BANK4   BANK5   BANK6   BANK7   BANK8   BANK9  BANK10  BANK11  BANK12  BANK13  BANK14  BANK15
      Params:         0       0       0       0       0       0       0       0       0       0       0       0       0       0       0       0       0
      Locals:         0       0       3       0       0       0       0       0       0       0       0       0       0       0       0       0       0
      Temps:          0       0       2       0       0       0       0       0       0       0       0       0       0       0       0       0       0
      Totals:         0       0       5       0       0       0       0       0       0       0       0       0       0       0       0       0       0
Total ram usage:        5 bytes
 Hardware stack levels used:    1
 Hardware stack levels required when called:   26
 This function calls:
		_AnyAlarm
		_BuzzerClear
		_ClearCircuitFailureAlarm
		_ClearControlFailAlarm
		_ClearGasFailureAlarm
		_ClearHighPressureAlarmHigh
		_ClearMonitorFailAlarm
		_ClearVeryHighPressureAlarmHigh
		_HigherAlarm
		_SetAlarmSV1
		___wmul
		_printf
 This function is called by:
		_main
 This function uses a non-reentrant model


 *************** function _ClearVeryHighPressureAlarmHigh *****************
 Defined at:
		line 278 in file "alarm.c"
 Parameters:    Size  Location     Type
		None
 Auto vars:     Size  Location     Type
		None
 Return value:  Size  Location     Type
                  1    wreg      void 
 Registers used:
		wreg, status,2
 Tracked objects:
		On entry : 
		On exit  : 
		Unchanged: 
 Data sizes:     COMRAM   BANK0   BANK1   BANK2   BANK3   BANK4   BANK5   BANK6   BANK7   BANK8   BANK9  BANK10  BANK11  BANK12  BANK13  BANK14  BANK15
      Params:         0       0       0       0       0       0       0       0       0       0       0       0       0       0       0       0       0
      Locals:         0       0       0       0       0       0       0       0       0       0       0       0       0       0       0       0       0
      Temps:          0       0       0       0       0       0       0       0       0       0       0       0       0       0       0       0       0
      Totals:         0       0       0       0       0       0       0       0       0       0       0       0       0       0       0       0       0
Total ram usage:        0 bytes
 Hardware stack levels used:    1
 Hardware stack levels required when called:   16
 This function calls:
		Nothing
 This function is called by:
		_MuteAlarm
 This function uses a non-reentrant model


 *************** function _ClearHighPressureAlarmHigh *****************
 Defined at:
		line 277 in file "alarm.c"
 Parameters:    Size  Location     Type
		None
 Auto vars:     Size  Location     Type
		None
 Return value:  Size  Location     Type
                  1    wreg      void 
 Registers used:
		wreg, status,2
 Tracked objects:
		On entry : 
		On exit  : 
		Unchanged: 
 Data sizes:     COMRAM   BANK0   BANK1   BANK2   BANK3   BANK4   BANK5   BANK6   BANK7   BANK8   BANK9  BANK10  BANK11  BANK12  BANK13  BANK14  BANK15
      Params:         0       0       0       0       0       0       0       0       0       0       0       0       0       0       0       0       0
      Locals:         0       0       0       0       0       0       0       0       0       0       0       0       0       0       0       0       0
      Temps:          0       0       0       0       0       0       0       0       0       0       0       0       0       0       0       0       0
      Totals:         0       0       0       0       0       0       0       0       0       0       0       0       0       0       0       0       0
Total ram usage:        0 bytes
 Hardware stack levels used:    1
 Hardware stack levels required when called:   16
 This function calls:
		Nothing
 This function is called by:
		_MuteAlarm
 This function uses a non-reentrant model


 *************** function _ClearGasFailureAlarm *****************
 Defined at:
		line 275 in file "alarm.c"
 Parameters:    Size  Location     Type
		None
 Auto vars:     Size  Location     Type
		None
 Return value:  Size  Location     Type
                  1    wreg      void 
 Registers used:
		wreg, status,2
 Tracked objects:
		On entry : 
		On exit  : 
		Unchanged: 
 Data sizes:     COMRAM   BANK0   BANK1   BANK2   BANK3   BANK4   BANK5   BANK6   BANK7   BANK8   BANK9  BANK10  BANK11  BANK12  BANK13  BANK14  BANK15
      Params:         0       0       0       0       0       0       0       0       0       0       0       0       0       0       0       0       0
      Locals:         0       0       0       0       0       0       0       0       0       0       0       0       0       0       0       0       0
      Temps:          0       0       0       0       0       0       0       0       0       0       0       0       0       0       0       0       0
      Totals:         0       0       0       0       0       0       0       0       0       0       0       0       0       0       0       0       0
Total ram usage:        0 bytes
 Hardware stack levels used:    1
 Hardware stack levels required when called:   16
 This function calls:
		Nothing
 This function is called by:
		_MuteAlarm
 This function uses a non-reentrant model


 *************** function _ClearControlFailAlarm *****************
 Defined at:
		line 274 in file "alarm.c"
 Parameters:    Size  Location     Type
		None
 Auto vars:     Size  Location     Type
		None
 Return value:  Size  Location     Type
                  1    wreg      void 
 Registers used:
		wreg, status,2
 Tracked objects:
		On entry : 
		On exit  : 
		Unchanged: 
 Data sizes:     COMRAM   BANK0   BANK1   BANK2   BANK3   BANK4   BANK5   BANK6   BANK7   BANK8   BANK9  BANK10  BANK11  BANK12  BANK13  BANK14  BANK15
      Params:         0       0       0       0       0       0       0       0       0       0       0       0       0       0       0       0       0
      Locals:         0       0       0       0       0       0       0       0       0       0       0       0       0       0       0       0       0
      Temps:          0       0       0       0       0       0       0       0       0       0       0       0       0       0       0       0       0
      Totals:         0       0       0       0       0       0       0       0       0       0       0       0       0       0       0       0       0
Total ram usage:        0 bytes
 Hardware stack levels used:    1
 Hardware stack levels required when called:   16
 This function calls:
		Nothing
 This function is called by:
		_MuteAlarm
 This function uses a non-reentrant model


 *************** function _MonitorInit *****************
 Defined at:
		line 752 in file "monitor.c"
 Parameters:    Size  Location     Type
		None
 Auto vars:     Size  Location     Type
		None
 Return value:  Size  Location     Type
                  1    wreg      void 
 Registers used:
		wreg, fsr2l, fsr2h, status,2, status,0, prodl, prodh, cstack
 Tracked objects:
		On entry : 
		On exit  : 
		Unchanged: 
 Data sizes:     COMRAM   BANK0   BANK1   BANK2   BANK3   BANK4   BANK5   BANK6   BANK7   BANK8   BANK9  BANK10  BANK11  BANK12  BANK13  BANK14  BANK15
      Params:         0       0       0       0       0       0       0       0       0       0       0       0       0       0       0       0       0
      Locals:         0       0       0       0       0       0       0       0       0       0       0       0       0       0       0       0       0
      Temps:          0       0       0       0       0       0       0       0       0       0       0       0       0       0       0       0       0
      Totals:         0       0       0       0       0       0       0       0       0       0       0       0       0       0       0       0       0
Total ram usage:        0 bytes
 Hardware stack levels used:    1
 Hardware stack levels required when called:   18
 This function calls:
		_AdcInit
		_ClearVars
		_TMR0_SetInterruptHandler
		_TMR0_StartTimer
 This function is called by:
		_main
 This function uses a non-reentrant model


 *************** function _TMR0_StartTimer *****************
 Defined at:
		line 87 in file "mcc_generated_files/tmr0.c"
 Parameters:    Size  Location     Type
		None
 Auto vars:     Size  Location     Type
		None
 Return value:  Size  Location     Type
                  1    wreg      void 
 Registers used:
		None
 Tracked objects:
		On entry : 
		On exit  : 
		Unchanged: 
 Data sizes:     COMRAM   BANK0   BANK1   BANK2   BANK3   BANK4   BANK5   BANK6   BANK7   BANK8   BANK9  BANK10  BANK11  BANK12  BANK13  BANK14  BANK15
      Params:         0       0       0       0       0       0       0       0       0       0       0       0       0       0       0       0       0
      Locals:         0       0       0       0       0       0       0       0       0       0       0       0       0       0       0       0       0
      Temps:          0       0       0       0       0       0       0       0       0       0       0       0       0       0       0       0       0
      Totals:         0       0       0       0       0       0       0       0       0       0       0       0       0       0       0       0       0
Total ram usage:        0 bytes
 Hardware stack levels used:    1
 Hardware stack levels required when called:   16
 This function calls:
		Nothing
 This function is called by:
		_SetCalibrateState
		_MonitorInit
 This function uses a non-reentrant model


 *************** function _TMR0_SetInterruptHandler *****************
 Defined at:
		line 134 in file "mcc_generated_files/tmr0.c"
 Parameters:    Size  Location     Type
  InterruptHan    2    4[BANK1 ] PTR FTN()void 
		 -> MonitorPressureTask(1), TMR0_DefaultInterruptHandler(1), 
 Auto vars:     Size  Location     Type
		None
 Return value:  Size  Location     Type
                  1    wreg      void 
 Registers used:
		wreg, status,2, status,0
 Tracked objects:
		On entry : 
		On exit  : 
		Unchanged: 
 Data sizes:     COMRAM   BANK0   BANK1   BANK2   BANK3   BANK4   BANK5   BANK6   BANK7   BANK8   BANK9  BANK10  BANK11  BANK12  BANK13  BANK14  BANK15
      Params:         0       0       2       0       0       0       0       0       0       0       0       0       0       0       0       0       0
      Locals:         0       0       0       0       0       0       0       0       0       0       0       0       0       0       0       0       0
      Temps:          0       0       0       0       0       0       0       0       0       0       0       0       0       0       0       0       0
      Totals:         0       0       2       0       0       0       0       0       0       0       0       0       0       0       0       0       0
Total ram usage:        2 bytes
 Hardware stack levels used:    1
 Hardware stack levels required when called:   16
 This function calls:
		Nothing
 This function is called by:
		_TMR0_Initialize
		_MonitorInit
 This function uses a non-reentrant model


 *************** function _ClearVars *****************
 Defined at:
		line 692 in file "monitor.c"
 Parameters:    Size  Location     Type
		None
 Auto vars:     Size  Location     Type
  i               2    6[BANK1 ] int 
  i               2    4[BANK1 ] int 
 Return value:  Size  Location     Type
                  1    wreg      void 
 Registers used:
		wreg, fsr2l, fsr2h, status,2, status,0, cstack
 Tracked objects:
		On entry : 
		On exit  : 
		Unchanged: 
 Data sizes:     COMRAM   BANK0   BANK1   BANK2   BANK3   BANK4   BANK5   BANK6   BANK7   BANK8   BANK9  BANK10  BANK11  BANK12  BANK13  BANK14  BANK15
      Params:         0       0       0       0       0       0       0       0       0       0       0       0       0       0       0       0       0
      Locals:         0       0       4       0       0       0       0       0       0       0       0       0       0       0       0       0       0
      Temps:          0       0       0       0       0       0       0       0       0       0       0       0       0       0       0       0       0
      Totals:         0       0       4       0       0       0       0       0       0       0       0       0       0       0       0       0       0
Total ram usage:        4 bytes
 Hardware stack levels used:    1
 Hardware stack levels required when called:   17
 This function calls:
		_ClearCircuitFailureAlarm
		_ClearEPAboveSetAlarm
		_ClearEPBelowSetAlarm
		_ClearIPAboveSetAlarm
		_ClearIPBelowSetAlarm
 This function is called by:
		_SetCalibrateState
		_MonitorInit
 This function uses a non-reentrant model


 *************** function _ClearIPBelowSetAlarm *****************
 Defined at:
		line 284 in file "alarm.c"
 Parameters:    Size  Location     Type
		None
 Auto vars:     Size  Location     Type
		None
 Return value:  Size  Location     Type
                  1    wreg      void 
 Registers used:
		wreg, status,2, status,0
 Tracked objects:
		On entry : 
		On exit  : 
		Unchanged: 
 Data sizes:     COMRAM   BANK0   BANK1   BANK2   BANK3   BANK4   BANK5   BANK6   BANK7   BANK8   BANK9  BANK10  BANK11  BANK12  BANK13  BANK14  BANK15
      Params:         0       0       0       0       0       0       0       0       0       0       0       0       0       0       0       0       0
      Locals:         0       0       0       0       0       0       0       0       0       0       0       0       0       0       0       0       0
      Temps:          0       0       0       0       0       0       0       0       0       0       0       0       0       0       0       0       0
      Totals:         0       0       0       0       0       0       0       0       0       0       0       0       0       0       0       0       0
Total ram usage:        0 bytes
 Hardware stack levels used:    1
 Hardware stack levels required when called:   16
 This function calls:
		Nothing
 This function is called by:
		_ClearVars
 This function uses a non-reentrant model


 *************** function _ClearIPAboveSetAlarm *****************
 Defined at:
		line 285 in file "alarm.c"
 Parameters:    Size  Location     Type
		None
 Auto vars:     Size  Location     Type
		None
 Return value:  Size  Location     Type
                  1    wreg      void 
 Registers used:
		wreg, status,2, status,0
 Tracked objects:
		On entry : 
		On exit  : 
		Unchanged: 
 Data sizes:     COMRAM   BANK0   BANK1   BANK2   BANK3   BANK4   BANK5   BANK6   BANK7   BANK8   BANK9  BANK10  BANK11  BANK12  BANK13  BANK14  BANK15
      Params:         0       0       0       0       0       0       0       0       0       0       0       0       0       0       0       0       0
      Locals:         0       0       0       0       0       0       0       0       0       0       0       0       0       0       0       0       0
      Temps:          0       0       0       0       0       0       0       0       0       0       0       0       0       0       0       0       0
      Totals:         0       0       0       0       0       0       0       0       0       0       0       0       0       0       0       0       0
Total ram usage:        0 bytes
 Hardware stack levels used:    1
 Hardware stack levels required when called:   16
 This function calls:
		Nothing
 This function is called by:
		_ClearVars
 This function uses a non-reentrant model


 *************** function _ClearEPBelowSetAlarm *****************
 Defined at:
		line 282 in file "alarm.c"
 Parameters:    Size  Location     Type
		None
 Auto vars:     Size  Location     Type
		None
 Return value:  Size  Location     Type
                  1    wreg      void 
 Registers used:
		wreg, status,2, status,0
 Tracked objects:
		On entry : 
		On exit  : 
		Unchanged: 
 Data sizes:     COMRAM   BANK0   BANK1   BANK2   BANK3   BANK4   BANK5   BANK6   BANK7   BANK8   BANK9  BANK10  BANK11  BANK12  BANK13  BANK14  BANK15
      Params:         0       0       0       0       0       0       0       0       0       0       0       0       0       0       0       0       0
      Locals:         0       0       0       0       0       0       0       0       0       0       0       0       0       0       0       0       0
      Temps:          0       0       0       0       0       0       0       0       0       0       0       0       0       0       0       0       0
      Totals:         0       0       0       0       0       0       0       0       0       0       0       0       0       0       0       0       0
Total ram usage:        0 bytes
 Hardware stack levels used:    1
 Hardware stack levels required when called:   16
 This function calls:
		Nothing
 This function is called by:
		_ClearVars
 This function uses a non-reentrant model


 *************** function _ClearEPAboveSetAlarm *****************
 Defined at:
		line 283 in file "alarm.c"
 Parameters:    Size  Location     Type
		None
 Auto vars:     Size  Location     Type
		None
 Return value:  Size  Location     Type
                  1    wreg      void 
 Registers used:
		wreg, status,2, status,0
 Tracked objects:
		On entry : 
		On exit  : 
		Unchanged: 
 Data sizes:     COMRAM   BANK0   BANK1   BANK2   BANK3   BANK4   BANK5   BANK6   BANK7   BANK8   BANK9  BANK10  BANK11  BANK12  BANK13  BANK14  BANK15
      Params:         0       0       0       0       0       0       0       0       0       0       0       0       0       0       0       0       0
      Locals:         0       0       0       0       0       0       0       0       0       0       0       0       0       0       0       0       0
      Temps:          0       0       0       0       0       0       0       0       0       0       0       0       0       0       0       0       0
      Totals:         0       0       0       0       0       0       0       0       0       0       0       0       0       0       0       0       0
Total ram usage:        0 bytes
 Hardware stack levels used:    1
 Hardware stack levels required when called:   16
 This function calls:
		Nothing
 This function is called by:
		_ClearVars
 This function uses a non-reentrant model


 *************** function _ClearCircuitFailureAlarm *****************
 Defined at:
		line 279 in file "alarm.c"
 Parameters:    Size  Location     Type
		None
 Auto vars:     Size  Location     Type
		None
 Return value:  Size  Location     Type
                  1    wreg      void 
 Registers used:
		wreg, status,2
 Tracked objects:
		On entry : 
		On exit  : 
		Unchanged: 
 Data sizes:     COMRAM   BANK0   BANK1   BANK2   BANK3   BANK4   BANK5   BANK6   BANK7   BANK8   BANK9  BANK10  BANK11  BANK12  BANK13  BANK14  BANK15
      Params:         0       0       0       0       0       0       0       0       0       0       0       0       0       0       0       0       0
      Locals:         0       0       0       0       0       0       0       0       0       0       0       0       0       0       0       0       0
      Temps:          0       0       0       0       0       0       0       0       0       0       0       0       0       0       0       0       0
      Totals:         0       0       0       0       0       0       0       0       0       0       0       0       0       0       0       0       0
Total ram usage:        0 bytes
 Hardware stack levels used:    1
 Hardware stack levels required when called:   16
 This function calls:
		Nothing
 This function is called by:
		_MuteAlarm
		_ClearVars
 This function uses a non-reentrant model


 *************** function _AdcInit *****************
 Defined at:
		line 57 in file "monitor.c"
 Parameters:    Size  Location     Type
		None
 Auto vars:     Size  Location     Type
		None
 Return value:  Size  Location     Type
                  1    wreg      void 
 Registers used:
		wreg, fsr2l, fsr2h, status,2, status,0, prodl, prodh, cstack
 Tracked objects:
		On entry : 
		On exit  : 
		Unchanged: 
 Data sizes:     COMRAM   BANK0   BANK1   BANK2   BANK3   BANK4   BANK5   BANK6   BANK7   BANK8   BANK9  BANK10  BANK11  BANK12  BANK13  BANK14  BANK15
      Params:         0       0       0       0       0       0       0       0       0       0       0       0       0       0       0       0       0
      Locals:         0       0       0       0       0       0       0       0       0       0       0       0       0       0       0       0       0
      Temps:          0       0       0       0       0       0       0       0       0       0       0       0       0       0       0       0       0
      Totals:         0       0       0       0       0       0       0       0       0       0       0       0       0       0       0       0       0
Total ram usage:        0 bytes
 Hardware stack levels used:    1
 Hardware stack levels required when called:   17
 This function calls:
		_ADCC_SetADTIInterruptHandler
		_ADCC_StartConversion
		___wmul
 This function is called by:
		_MonitorInit
 This function uses a non-reentrant model


 *************** function _ADCC_StartConversion *****************
 Defined at:
		line 120 in file "mcc_generated_files/adcc.c"
 Parameters:    Size  Location     Type
  channel         1    wreg     enum E16053
 Auto vars:     Size  Location     Type
  channel         1    4[BANK1 ] enum E16053
 Return value:  Size  Location     Type
                  1    wreg      void 
 Registers used:
		wreg
 Tracked objects:
		On entry : 
		On exit  : 
		Unchanged: 
 Data sizes:     COMRAM   BANK0   BANK1   BANK2   BANK3   BANK4   BANK5   BANK6   BANK7   BANK8   BANK9  BANK10  BANK11  BANK12  BANK13  BANK14  BANK15
      Params:         0       0       0       0       0       0       0       0       0       0       0       0       0       0       0       0       0
      Locals:         0       0       1       0       0       0       0       0       0       0       0       0       0       0       0       0       0
      Temps:          0       0       0       0       0       0       0       0       0       0       0       0       0       0       0       0       0
      Totals:         0       0       1       0       0       0       0       0       0       0       0       0       0       0       0       0       0
Total ram usage:        1 bytes
 Hardware stack levels used:    1
 Hardware stack levels required when called:   16
 This function calls:
		Nothing
 This function is called by:
		_AdcInit
 This function uses a non-reentrant model


 *************** function _ADCC_SetADTIInterruptHandler *****************
 Defined at:
		line 316 in file "mcc_generated_files/adcc.c"
 Parameters:    Size  Location     Type
  InterruptHan    2    4[BANK1 ] PTR FTN()void 
		 -> AdcHandler(1), ADCC_DefaultInterruptHandler(1), 
 Auto vars:     Size  Location     Type
		None
 Return value:  Size  Location     Type
                  1    wreg      void 
 Registers used:
		wreg, status,2, status,0
 Tracked objects:
		On entry : 
		On exit  : 
		Unchanged: 
 Data sizes:     COMRAM   BANK0   BANK1   BANK2   BANK3   BANK4   BANK5   BANK6   BANK7   BANK8   BANK9  BANK10  BANK11  BANK12  BANK13  BANK14  BANK15
      Params:         0       0       2       0       0       0       0       0       0       0       0       0       0       0       0       0       0
      Locals:         0       0       0       0       0       0       0       0       0       0       0       0       0       0       0       0       0
      Temps:          0       0       0       0       0       0       0       0       0       0       0       0       0       0       0       0       0
      Totals:         0       0       2       0       0       0       0       0       0       0       0       0       0       0       0       0       0
Total ram usage:        2 bytes
 Hardware stack levels used:    1
 Hardware stack levels required when called:   16
 This function calls:
		Nothing
 This function is called by:
		_ADCC_Initialize
		_AdcInit
 This function uses a non-reentrant model


 *************** function _MonitorEnable *****************
 Defined at:
		line 272 in file "monitor.c"
 Parameters:    Size  Location     Type
		None
 Auto vars:     Size  Location     Type
		None
 Return value:  Size  Location     Type
                  1    wreg      void 
 Registers used:
		wreg, status,2
 Tracked objects:
		On entry : 
		On exit  : 
		Unchanged: 
 Data sizes:     COMRAM   BANK0   BANK1   BANK2   BANK3   BANK4   BANK5   BANK6   BANK7   BANK8   BANK9  BANK10  BANK11  BANK12  BANK13  BANK14  BANK15
      Params:         0       0       0       0       0       0       0       0       0       0       0       0       0       0       0       0       0
      Locals:         0       0       0       0       0       0       0       0       0       0       0       0       0       0       0       0       0
      Temps:          0       0       0       0       0       0       0       0       0       0       0       0       0       0       0       0       0
      Totals:         0       0       0       0       0       0       0       0       0       0       0       0       0       0       0       0       0
Total ram usage:        0 bytes
 Hardware stack levels used:    1
 Hardware stack levels required when called:   16
 This function calls:
		Nothing
 This function is called by:
		_main
 This function uses a non-reentrant model


 *************** function _MonitorDump *****************
 Defined at:
		line 214 in file "monitor.c"
 Parameters:    Size  Location     Type
		None
 Auto vars:     Size  Location     Type
		None
 Return value:  Size  Location     Type
                  1    wreg      void 
 Registers used:
		wreg, fsr1l, fsr1h, fsr2l, fsr2h, status,2, status,0, tblptrl, tblptrh, tblptru, prodl, prodh, cstack
 Tracked objects:
		On entry : 
		On exit  : 
		Unchanged: 
 Data sizes:     COMRAM   BANK0   BANK1   BANK2   BANK3   BANK4   BANK5   BANK6   BANK7   BANK8   BANK9  BANK10  BANK11  BANK12  BANK13  BANK14  BANK15
      Params:         0       0       0       0       0       0       0       0       0       0       0       0       0       0       0       0       0
      Locals:         0       0       0       0       0       0       0       0       0       0       0       0       0       0       0       0       0
      Temps:          0       0       0       0       0       0       0       0       0       0       0       0       0       0       0       0       0
      Totals:         0       0       0       0       0       0       0       0       0       0       0       0       0       0       0       0       0
Total ram usage:        0 bytes
 Hardware stack levels used:    1
 Hardware stack levels required when called:   25
 This function calls:
		_See12V
		_See5V
		___awdiv
		_printf
 This function is called by:
		_main
 This function uses a non-reentrant model


 *************** function _See5V *****************
 Defined at:
		line 840 in file "monitor.c"
 Parameters:    Size  Location     Type
		None
 Auto vars:     Size  Location     Type
  mv              4   32[BANK1 ] long 
  v12             2   38[BANK1 ] short 
  adc             2   36[BANK1 ] unsigned short 
 Return value:  Size  Location     Type
                  2   30[BANK1 ] short 
 Registers used:
		wreg, fsr2l, fsr2h, status,2, status,0, prodl, prodh, cstack
 Tracked objects:
		On entry : 
		On exit  : 
		Unchanged: 
 Data sizes:     COMRAM   BANK0   BANK1   BANK2   BANK3   BANK4   BANK5   BANK6   BANK7   BANK8   BANK9  BANK10  BANK11  BANK12  BANK13  BANK14  BANK15
      Params:         0       0       2       0       0       0       0       0       0       0       0       0       0       0       0       0       0
      Locals:         0       0       8       0       0       0       0       0       0       0       0       0       0       0       0       0       0
      Temps:          0       0       0       0       0       0       0       0       0       0       0       0       0       0       0       0       0
      Totals:         0       0      10       0       0       0       0       0       0       0       0       0       0       0       0       0       0
Total ram usage:       10 bytes
 Hardware stack levels used:    1
 Hardware stack levels required when called:   18
 This function calls:
		_AdcSeeData
		___aldiv
 This function is called by:
		_main
		_MonitorDump
 This function uses a non-reentrant model


 *************** function _See12V *****************
 Defined at:
		line 857 in file "monitor.c"
 Parameters:    Size  Location     Type
		None
 Auto vars:     Size  Location     Type
  mv              4   32[BANK1 ] long 
  v12             2   38[BANK1 ] short 
  adc             2   36[BANK1 ] unsigned short 
 Return value:  Size  Location     Type
                  2   30[BANK1 ] short 
 Registers used:
		wreg, fsr2l, fsr2h, status,2, status,0, prodl, prodh, cstack
 Tracked objects:
		On entry : 
		On exit  : 
		Unchanged: 
 Data sizes:     COMRAM   BANK0   BANK1   BANK2   BANK3   BANK4   BANK5   BANK6   BANK7   BANK8   BANK9  BANK10  BANK11  BANK12  BANK13  BANK14  BANK15
      Params:         0       0       2       0       0       0       0       0       0       0       0       0       0       0       0       0       0
      Locals:         0       0       8       0       0       0       0       0       0       0       0       0       0       0       0       0       0
      Temps:          0       0       0       0       0       0       0       0       0       0       0       0       0       0       0       0       0
      Totals:         0       0      10       0       0       0       0       0       0       0       0       0       0       0       0       0       0
Total ram usage:       10 bytes
 Hardware stack levels used:    1
 Hardware stack levels required when called:   18
 This function calls:
		_AdcSeeData
		___aldiv
		___lmul
 This function is called by:
		_main
		_MonitorDump
 This function uses a non-reentrant model


 *************** function _AdcSeeData *****************
 Defined at:
		line 82 in file "monitor.c"
 Parameters:    Size  Location     Type
  id              2   10[BANK1 ] int 
 Auto vars:     Size  Location     Type
  data            2   12[BANK1 ] unsigned short 
 Return value:  Size  Location     Type
                  2   10[BANK1 ] unsigned short 
 Registers used:
		wreg, fsr2l, fsr2h, status,2, status,0, prodl, prodh, cstack
 Tracked objects:
		On entry : 
		On exit  : 
		Unchanged: 
 Data sizes:     COMRAM   BANK0   BANK1   BANK2   BANK3   BANK4   BANK5   BANK6   BANK7   BANK8   BANK9  BANK10  BANK11  BANK12  BANK13  BANK14  BANK15
      Params:         0       0       2       0       0       0       0       0       0       0       0       0       0       0       0       0       0
      Locals:         0       0       2       0       0       0       0       0       0       0       0       0       0       0       0       0       0
      Temps:          0       0       0       0       0       0       0       0       0       0       0       0       0       0       0       0       0
      Totals:         0       0       4       0       0       0       0       0       0       0       0       0       0       0       0       0       0
Total ram usage:        4 bytes
 Hardware stack levels used:    1
 Hardware stack levels required when called:   17
 This function calls:
		___wmul
 This function is called by:
		_SeePressure_pa
		_SeePressureV_pa
		_See5V
		_See12V
 This function uses a non-reentrant model


 *************** function _MonitorDisable *****************
 Defined at:
		line 273 in file "monitor.c"
 Parameters:    Size  Location     Type
		None
 Auto vars:     Size  Location     Type
		None
 Return value:  Size  Location     Type
                  1    wreg      void 
 Registers used:
		wreg, status,2
 Tracked objects:
		On entry : 
		On exit  : 
		Unchanged: 
 Data sizes:     COMRAM   BANK0   BANK1   BANK2   BANK3   BANK4   BANK5   BANK6   BANK7   BANK8   BANK9  BANK10  BANK11  BANK12  BANK13  BANK14  BANK15
      Params:         0       0       0       0       0       0       0       0       0       0       0       0       0       0       0       0       0
      Locals:         0       0       0       0       0       0       0       0       0       0       0       0       0       0       0       0       0
      Temps:          0       0       0       0       0       0       0       0       0       0       0       0       0       0       0       0       0
      Totals:         0       0       0       0       0       0       0       0       0       0       0       0       0       0       0       0       0
Total ram usage:        0 bytes
 Hardware stack levels used:    1
 Hardware stack levels required when called:   16
 This function calls:
		Nothing
 This function is called by:
		_main
 This function uses a non-reentrant model


 *************** function _LCDOn *****************
 Defined at:
		line 119 in file "lcd.c"
 Parameters:    Size  Location     Type
		None
 Auto vars:     Size  Location     Type
		None
 Return value:  Size  Location     Type
                  1    wreg      void 
 Registers used:
		wreg, status,2
 Tracked objects:
		On entry : 
		On exit  : 
		Unchanged: 
 Data sizes:     COMRAM   BANK0   BANK1   BANK2   BANK3   BANK4   BANK5   BANK6   BANK7   BANK8   BANK9  BANK10  BANK11  BANK12  BANK13  BANK14  BANK15
      Params:         0       0       0       0       0       0       0       0       0       0       0       0       0       0       0       0       0
      Locals:         0       0       0       0       0       0       0       0       0       0       0       0       0       0       0       0       0
      Temps:          0       0       0       0       0       0       0       0       0       0       0       0       0       0       0       0       0
      Totals:         0       0       0       0       0       0       0       0       0       0       0       0       0       0       0       0       0
Total ram usage:        0 bytes
 Hardware stack levels used:    1
 Hardware stack levels required when called:   16
 This function calls:
		Nothing
 This function is called by:
		_main
 This function uses a non-reentrant model


 *************** function _LCDOff *****************
 Defined at:
		line 112 in file "lcd.c"
 Parameters:    Size  Location     Type
		None
 Auto vars:     Size  Location     Type
		None
 Return value:  Size  Location     Type
                  1    wreg      void 
 Registers used:
		wreg, status,2
 Tracked objects:
		On entry : 
		On exit  : 
		Unchanged: 
 Data sizes:     COMRAM   BANK0   BANK1   BANK2   BANK3   BANK4   BANK5   BANK6   BANK7   BANK8   BANK9  BANK10  BANK11  BANK12  BANK13  BANK14  BANK15
      Params:         0       0       0       0       0       0       0       0       0       0       0       0       0       0       0       0       0
      Locals:         0       0       0       0       0       0       0       0       0       0       0       0       0       0       0       0       0
      Temps:          0       0       0       0       0       0       0       0       0       0       0       0       0       0       0       0       0
      Totals:         0       0       0       0       0       0       0       0       0       0       0       0       0       0       0       0       0
Total ram usage:        0 bytes
 Hardware stack levels used:    1
 Hardware stack levels required when called:   16
 This function calls:
		Nothing
 This function is called by:
		_main
 This function uses a non-reentrant model


 *************** function _InitDisplay *****************
 Defined at:
		line 40 in file "display.c"
 Parameters:    Size  Location     Type
		None
 Auto vars:     Size  Location     Type
		None
 Return value:  Size  Location     Type
                  1    wreg      void 
 Registers used:
		wreg, fsr1l, fsr1h, fsr2l, fsr2h, status,2, status,0, tblptrl, tblptrh, tblptru, cstack
 Tracked objects:
		On entry : 
		On exit  : 
		Unchanged: 
 Data sizes:     COMRAM   BANK0   BANK1   BANK2   BANK3   BANK4   BANK5   BANK6   BANK7   BANK8   BANK9  BANK10  BANK11  BANK12  BANK13  BANK14  BANK15
      Params:         0       0       0       0       0       0       0       0       0       0       0       0       0       0       0       0       0
      Locals:         0       0       0       0       0       0       0       0       0       0       0       0       0       0       0       0       0
      Temps:          0       0       0       0       0       0       0       0       0       0       0       0       0       0       0       0       0
      Totals:         0       0       0       0       0       0       0       0       0       0       0       0       0       0       0       0       0
Total ram usage:        0 bytes
 Hardware stack levels used:    1
 Hardware stack levels required when called:   21
 This function calls:
		_LCDInit
 This function is called by:
		_main
 This function uses a non-reentrant model


 *************** function _LCDInit *****************
 Defined at:
		line 38 in file "lcd.c"
 Parameters:    Size  Location     Type
		None
 Auto vars:     Size  Location     Type
		None
 Return value:  Size  Location     Type
                  1    wreg      void 
 Registers used:
		wreg, fsr1l, fsr1h, fsr2l, fsr2h, status,2, status,0, tblptrl, tblptrh, tblptru, cstack
 Tracked objects:
		On entry : 
		On exit  : 
		Unchanged: 
 Data sizes:     COMRAM   BANK0   BANK1   BANK2   BANK3   BANK4   BANK5   BANK6   BANK7   BANK8   BANK9  BANK10  BANK11  BANK12  BANK13  BANK14  BANK15
      Params:         0       0       0       0       0       0       0       0       0       0       0       0       0       0       0       0       0
      Locals:         0       0       0       0       0       0       0       0       0       0       0       0       0       0       0       0       0
      Temps:          0       0       2       0       0       0       0       0       0       0       0       0       0       0       0       0       0
      Totals:         0       0       2       0       0       0       0       0       0       0       0       0       0       0       0       0       0
Total ram usage:        2 bytes
 Hardware stack levels used:    1
 Hardware stack levels required when called:   20
 This function calls:
		_LCDMessage
		_LCDTest
		_LCDWrite4
		_LCDWriteCmd
 This function is called by:
		_InitDisplay
 This function uses a non-reentrant model


 *************** function _LCDWrite4 *****************
 Defined at:
		line 196 in file "lcd.c"
 Parameters:    Size  Location     Type
  chr             1    wreg     unsigned char 
 Auto vars:     Size  Location     Type
  chr             1    4[BANK1 ] unsigned char 
 Return value:  Size  Location     Type
                  1    wreg      void 
 Registers used:
		wreg, status,2, cstack
 Tracked objects:
		On entry : 
		On exit  : 
		Unchanged: 
 Data sizes:     COMRAM   BANK0   BANK1   BANK2   BANK3   BANK4   BANK5   BANK6   BANK7   BANK8   BANK9  BANK10  BANK11  BANK12  BANK13  BANK14  BANK15
      Params:         0       0       0       0       0       0       0       0       0       0       0       0       0       0       0       0       0
      Locals:         0       0       1       0       0       0       0       0       0       0       0       0       0       0       0       0       0
      Temps:          0       0       0       0       0       0       0       0       0       0       0       0       0       0       0       0       0
      Totals:         0       0       1       0       0       0       0       0       0       0       0       0       0       0       0       0       0
Total ram usage:        1 bytes
 Hardware stack levels used:    1
 Hardware stack levels required when called:   16
 This function calls:
		Nothing
 This function is called by:
		_LCDInit
 This function uses a non-reentrant model


 *************** function _LCDTest *****************
 Defined at:
		line 77 in file "lcd.c"
 Parameters:    Size  Location     Type
		None
 Auto vars:     Size  Location     Type
  j               2   58[BANK1 ] int 
  i               2   56[BANK1 ] int 
  msg2           17   39[BANK1 ] unsigned char [17]
  msg1           17   22[BANK1 ] unsigned char [17]
 Return value:  Size  Location     Type
                  1    wreg      void 
 Registers used:
		wreg, fsr1l, fsr1h, fsr2l, fsr2h, status,2, status,0, tblptrl, tblptrh, tblptru, cstack
 Tracked objects:
		On entry : 
		On exit  : 
		Unchanged: 
 Data sizes:     COMRAM   BANK0   BANK1   BANK2   BANK3   BANK4   BANK5   BANK6   BANK7   BANK8   BANK9  BANK10  BANK11  BANK12  BANK13  BANK14  BANK15
      Params:         0       0       0       0       0       0       0       0       0       0       0       0       0       0       0       0       0
      Locals:         0       0      38       0       0       0       0       0       0       0       0       0       0       0       0       0       0
      Temps:          0       0       2       0       0       0       0       0       0       0       0       0       0       0       0       0       0
      Totals:         0       0      40       0       0       0       0       0       0       0       0       0       0       0       0       0       0
Total ram usage:       40 bytes
 Hardware stack levels used:    1
 Hardware stack levels required when called:   19
 This function calls:
		_LCDMessage12
 This function is called by:
		_LCDInit
 This function uses a non-reentrant model


 *************** function _HistAlarm *****************
 Defined at:
		line 465 in file "alarm.c"
 Parameters:    Size  Location     Type
		None
 Auto vars:     Size  Location     Type
  i               2    2[BANK2 ] int 
 Return value:  Size  Location     Type
                  1    wreg      void 
 Registers used:
		wreg, fsr1l, fsr1h, fsr2l, fsr2h, status,2, status,0, tblptrl, tblptrh, tblptru, prodl, prodh, cstack
 Tracked objects:
		On entry : 
		On exit  : 
		Unchanged: 
 Data sizes:     COMRAM   BANK0   BANK1   BANK2   BANK3   BANK4   BANK5   BANK6   BANK7   BANK8   BANK9  BANK10  BANK11  BANK12  BANK13  BANK14  BANK15
      Params:         0       0       0       0       0       0       0       0       0       0       0       0       0       0       0       0       0
      Locals:         0       0       0       2       0       0       0       0       0       0       0       0       0       0       0       0       0
      Temps:          0       0       0       2       0       0       0       0       0       0       0       0       0       0       0       0       0
      Totals:         0       0       0       4       0       0       0       0       0       0       0       0       0       0       0       0       0
Total ram usage:        4 bytes
 Hardware stack levels used:    1
 Hardware stack levels required when called:   28
 This function calls:
		_AlarmUpdateLCD
		_TMR5_StartTimer
		_TMR5_StopTimer
 This function is called by:
		_main
 This function uses a non-reentrant model


 *************** function _TMR5_StopTimer *****************
 Defined at:
		line 105 in file "mcc_generated_files/tmr5.c"
 Parameters:    Size  Location     Type
		None
 Auto vars:     Size  Location     Type
		None
 Return value:  Size  Location     Type
                  1    wreg      void 
 Registers used:
		None
 Tracked objects:
		On entry : 
		On exit  : 
		Unchanged: 
 Data sizes:     COMRAM   BANK0   BANK1   BANK2   BANK3   BANK4   BANK5   BANK6   BANK7   BANK8   BANK9  BANK10  BANK11  BANK12  BANK13  BANK14  BANK15
      Params:         0       0       0       0       0       0       0       0       0       0       0       0       0       0       0       0       0
      Locals:         0       0       0       0       0       0       0       0       0       0       0       0       0       0       0       0       0
      Temps:          0       0       0       0       0       0       0       0       0       0       0       0       0       0       0       0       0
      Totals:         0       0       0       0       0       0       0       0       0       0       0       0       0       0       0       0       0
Total ram usage:        0 bytes
 Hardware stack levels used:    1
 Hardware stack levels required when called:   16
 This function calls:
		Nothing
 This function is called by:
		_HistAlarm
 This function uses a non-reentrant model


 *************** function _EnableAlarmSV1 *****************
 Defined at:
		line 877 in file "monitor.c"
 Parameters:    Size  Location     Type
		None
 Auto vars:     Size  Location     Type
		None
 Return value:  Size  Location     Type
                  1    wreg      void 
 Registers used:
		wreg, status,2
 Tracked objects:
		On entry : 
		On exit  : 
		Unchanged: 
 Data sizes:     COMRAM   BANK0   BANK1   BANK2   BANK3   BANK4   BANK5   BANK6   BANK7   BANK8   BANK9  BANK10  BANK11  BANK12  BANK13  BANK14  BANK15
      Params:         0       0       0       0       0       0       0       0       0       0       0       0       0       0       0       0       0
      Locals:         0       0       0       0       0       0       0       0       0       0       0       0       0       0       0       0       0
      Temps:          0       0       0       0       0       0       0       0       0       0       0       0       0       0       0       0       0
      Totals:         0       0       0       0       0       0       0       0       0       0       0       0       0       0       0       0       0
Total ram usage:        0 bytes
 Hardware stack levels used:    1
 Hardware stack levels required when called:   16
 This function calls:
		Nothing
 This function is called by:
		_main
 This function uses a non-reentrant model


 *************** function _DumpI2C *****************
 Defined at:
		line 232 in file "controller.c"
 Parameters:    Size  Location     Type
		None
 Auto vars:     Size  Location     Type
		None
 Return value:  Size  Location     Type
                  1    wreg      void 
 Registers used:
		None
 Tracked objects:
		On entry : 
		On exit  : 
		Unchanged: 
 Data sizes:     COMRAM   BANK0   BANK1   BANK2   BANK3   BANK4   BANK5   BANK6   BANK7   BANK8   BANK9  BANK10  BANK11  BANK12  BANK13  BANK14  BANK15
      Params:         0       0       0       0       0       0       0       0       0       0       0       0       0       0       0       0       0
      Locals:         0       0       0       0       0       0       0       0       0       0       0       0       0       0       0       0       0
      Temps:          0       0       0       0       0       0       0       0       0       0       0       0       0       0       0       0       0
      Totals:         0       0       0       0       0       0       0       0       0       0       0       0       0       0       0       0       0
Total ram usage:        0 bytes
 Hardware stack levels used:    1
 Hardware stack levels required when called:   16
 This function calls:
		Nothing
 This function is called by:
		_main
 This function uses a non-reentrant model


 *************** function _DisplayTask *****************
 Defined at:
		line 122 in file "display.c"
 Parameters:    Size  Location     Type
		None
 Auto vars:     Size  Location     Type
		None
 Return value:  Size  Location     Type
                  1    wreg      void 
 Registers used:
		wreg, fsr1l, fsr1h, status,2, status,0, tblptrl, tblptrh, tblptru, cstack
 Tracked objects:
		On entry : 
		On exit  : 
		Unchanged: 
 Data sizes:     COMRAM   BANK0   BANK1   BANK2   BANK3   BANK4   BANK5   BANK6   BANK7   BANK8   BANK9  BANK10  BANK11  BANK12  BANK13  BANK14  BANK15
      Params:         0       0       0       0       0       0       0       0       0       0       0       0       0       0       0       0       0
      Locals:         0       0       0       0       0       0       0       0       0       0       0       0       0       0       0       0       0
      Temps:          0       0       0       0       0       0       0       0       0       0       0       0       0       0       0       0       0
      Totals:         0       0       0       0       0       0       0       0       0       0       0       0       0       0       0       0       0
Total ram usage:        0 bytes
 Hardware stack levels used:    1
 Hardware stack levels required when called:   19
 This function calls:
		_LCDMessage1
		_LCDMessage12
		_LCDMessage2
 This function is called by:
		_main
 This function uses a non-reentrant model


 *************** function _LCDMessage2 *****************
 Defined at:
		line 148 in file "lcd.c"
 Parameters:    Size  Location     Type
  str             2   16[BANK1 ] PTR unsigned char 
		 -> msg2(20), msg4(20), 
 Auto vars:     Size  Location     Type
		None
 Return value:  Size  Location     Type
                  1    wreg      void 
 Registers used:
		wreg, fsr1l, fsr1h, status,2, status,0, tblptrl, tblptrh, tblptru, cstack
 Tracked objects:
		On entry : 
		On exit  : 
		Unchanged: 
 Data sizes:     COMRAM   BANK0   BANK1   BANK2   BANK3   BANK4   BANK5   BANK6   BANK7   BANK8   BANK9  BANK10  BANK11  BANK12  BANK13  BANK14  BANK15
      Params:         0       0       2       0       0       0       0       0       0       0       0       0       0       0       0       0       0
      Locals:         0       0       0       0       0       0       0       0       0       0       0       0       0       0       0       0       0
      Temps:          0       0       0       0       0       0       0       0       0       0       0       0       0       0       0       0       0
      Totals:         0       0       2       0       0       0       0       0       0       0       0       0       0       0       0       0       0
Total ram usage:        2 bytes
 Hardware stack levels used:    1
 Hardware stack levels required when called:   18
 This function calls:
		_LCDMessage
		_LCDWriteCmd
 This function is called by:
		_DisplayTask
 This function uses a non-reentrant model


 *************** function _LCDMessage12 *****************
 Defined at:
		line 141 in file "lcd.c"
 Parameters:    Size  Location     Type
  str1            2   16[BANK1 ] PTR unsigned char 
		 -> msg1(20), LCDTest@msg1(17), 
  str2            2   18[BANK1 ] PTR unsigned char 
		 -> msg3(20), msg2(20), LCDTest@msg2(17), 
 Auto vars:     Size  Location     Type
		None
 Return value:  Size  Location     Type
                  1    wreg      void 
 Registers used:
		wreg, fsr1l, fsr1h, status,2, status,0, tblptrl, tblptrh, tblptru, cstack
 Tracked objects:
		On entry : 
		On exit  : 
		Unchanged: 
 Data sizes:     COMRAM   BANK0   BANK1   BANK2   BANK3   BANK4   BANK5   BANK6   BANK7   BANK8   BANK9  BANK10  BANK11  BANK12  BANK13  BANK14  BANK15
      Params:         0       0       4       0       0       0       0       0       0       0       0       0       0       0       0       0       0
      Locals:         0       0       0       0       0       0       0       0       0       0       0       0       0       0       0       0       0
      Temps:          0       0       0       0       0       0       0       0       0       0       0       0       0       0       0       0       0
      Totals:         0       0       4       0       0       0       0       0       0       0       0       0       0       0       0       0       0
Total ram usage:        4 bytes
 Hardware stack levels used:    1
 Hardware stack levels required when called:   18
 This function calls:
		_LCDMessage
		_LCDWriteCmd
 This function is called by:
		_LCDTest
		_DisplayTask
 This function uses a non-reentrant model


 *************** function _LCDMessage1 *****************
 Defined at:
		line 136 in file "lcd.c"
 Parameters:    Size  Location     Type
  str             2   16[BANK1 ] PTR unsigned char 
		 -> msg1(20), 
 Auto vars:     Size  Location     Type
		None
 Return value:  Size  Location     Type
                  1    wreg      void 
 Registers used:
		wreg, fsr1l, fsr1h, status,2, status,0, tblptrl, tblptrh, tblptru, cstack
 Tracked objects:
		On entry : 
		On exit  : 
		Unchanged: 
 Data sizes:     COMRAM   BANK0   BANK1   BANK2   BANK3   BANK4   BANK5   BANK6   BANK7   BANK8   BANK9  BANK10  BANK11  BANK12  BANK13  BANK14  BANK15
      Params:         0       0       2       0       0       0       0       0       0       0       0       0       0       0       0       0       0
      Locals:         0       0       0       0       0       0       0       0       0       0       0       0       0       0       0       0       0
      Temps:          0       0       0       0       0       0       0       0       0       0       0       0       0       0       0       0       0
      Totals:         0       0       2       0       0       0       0       0       0       0       0       0       0       0       0       0       0
Total ram usage:        2 bytes
 Hardware stack levels used:    1
 Hardware stack levels required when called:   18
 This function calls:
		_LCDMessage
		_LCDWriteCmd
 This function is called by:
		_DisplayTask
 This function uses a non-reentrant model


 *************** function _LCDWriteCmd *****************
 Defined at:
		line 222 in file "lcd.c"
 Parameters:    Size  Location     Type
  data            1    wreg     unsigned char 
 Auto vars:     Size  Location     Type
  data            1    4[BANK1 ] unsigned char 
 Return value:  Size  Location     Type
                  1    wreg      void 
 Registers used:
		wreg, status,2, cstack
 Tracked objects:
		On entry : 
		On exit  : 
		Unchanged: 
 Data sizes:     COMRAM   BANK0   BANK1   BANK2   BANK3   BANK4   BANK5   BANK6   BANK7   BANK8   BANK9  BANK10  BANK11  BANK12  BANK13  BANK14  BANK15
      Params:         0       0       0       0       0       0       0       0       0       0       0       0       0       0       0       0       0
      Locals:         0       0       1       0       0       0       0       0       0       0       0       0       0       0       0       0       0
      Temps:          0       0       0       0       0       0       0       0       0       0       0       0       0       0       0       0       0
      Totals:         0       0       1       0       0       0       0       0       0       0       0       0       0       0       0       0       0
Total ram usage:        1 bytes
 Hardware stack levels used:    1
 Hardware stack levels required when called:   16
 This function calls:
		Nothing
 This function is called by:
		_LCDInit
		_LCDMessage1
		_LCDMessage12
		_LCDMessage2
 This function uses a non-reentrant model


 *************** function _LCDMessage *****************
 Defined at:
		line 125 in file "lcd.c"
 Parameters:    Size  Location     Type
  str             2    8[BANK1 ] PTR unsigned char 
		 -> msg3(20), msg2(20), msg1(20), msg4(20), 
		 -> LCDTest@msg2(17), LCDTest@msg1(17), STR_6(17), STR_5(17), 
 Auto vars:     Size  Location     Type
  i               2   14[BANK1 ] int 
  length          2   12[BANK1 ] int 
 Return value:  Size  Location     Type
                  1    wreg      void 
 Registers used:
		wreg, fsr1l, fsr1h, status,2, status,0, tblptrl, tblptrh, tblptru, cstack
 Tracked objects:
		On entry : 
		On exit  : 
		Unchanged: 
 Data sizes:     COMRAM   BANK0   BANK1   BANK2   BANK3   BANK4   BANK5   BANK6   BANK7   BANK8   BANK9  BANK10  BANK11  BANK12  BANK13  BANK14  BANK15
      Params:         0       0       2       0       0       0       0       0       0       0       0       0       0       0       0       0       0
      Locals:         0       0       4       0       0       0       0       0       0       0       0       0       0       0       0       0       0
      Temps:          0       0       2       0       0       0       0       0       0       0       0       0       0       0       0       0       0
      Totals:         0       0       8       0       0       0       0       0       0       0       0       0       0       0       0       0       0
Total ram usage:        8 bytes
 Hardware stack levels used:    1
 Hardware stack levels required when called:   17
 This function calls:
		_LCDWriteChar
		_strlen
 This function is called by:
		_LCDInit
		_LCDMessage1
		_LCDMessage12
		_LCDMessage2
 This function uses a non-reentrant model


 *************** function _LCDWriteChar *****************
 Defined at:
		line 154 in file "lcd.c"
 Parameters:    Size  Location     Type
  chr             1    wreg     unsigned char 
 Auto vars:     Size  Location     Type
  chr             1    4[BANK1 ] unsigned char 
 Return value:  Size  Location     Type
                  1    wreg      void 
 Registers used:
		wreg, status,2, cstack
 Tracked objects:
		On entry : 
		On exit  : 
		Unchanged: 
 Data sizes:     COMRAM   BANK0   BANK1   BANK2   BANK3   BANK4   BANK5   BANK6   BANK7   BANK8   BANK9  BANK10  BANK11  BANK12  BANK13  BANK14  BANK15
      Params:         0       0       0       0       0       0       0       0       0       0       0       0       0       0       0       0       0
      Locals:         0       0       1       0       0       0       0       0       0       0       0       0       0       0       0       0       0
      Temps:          0       0       0       0       0       0       0       0       0       0       0       0       0       0       0       0       0
      Totals:         0       0       1       0       0       0       0       0       0       0       0       0       0       0       0       0       0
Total ram usage:        1 bytes
 Hardware stack levels used:    1
 Hardware stack levels required when called:   16
 This function calls:
		Nothing
 This function is called by:
		_LCDMessage
 This function uses a non-reentrant model


 *************** function _DisableAlarmSV1 *****************
 Defined at:
		line 873 in file "monitor.c"
 Parameters:    Size  Location     Type
		None
 Auto vars:     Size  Location     Type
		None
 Return value:  Size  Location     Type
                  1    wreg      void 
 Registers used:
		wreg, status,2
 Tracked objects:
		On entry : 
		On exit  : 
		Unchanged: 
 Data sizes:     COMRAM   BANK0   BANK1   BANK2   BANK3   BANK4   BANK5   BANK6   BANK7   BANK8   BANK9  BANK10  BANK11  BANK12  BANK13  BANK14  BANK15
      Params:         0       0       0       0       0       0       0       0       0       0       0       0       0       0       0       0       0
      Locals:         0       0       0       0       0       0       0       0       0       0       0       0       0       0       0       0       0
      Temps:          0       0       0       0       0       0       0       0       0       0       0       0       0       0       0       0       0
      Totals:         0       0       0       0       0       0       0       0       0       0       0       0       0       0       0       0       0
Total ram usage:        0 bytes
 Hardware stack levels used:    1
 Hardware stack levels required when called:   16
 This function calls:
		Nothing
 This function is called by:
		_main
 This function uses a non-reentrant model


 *************** function _ControllerInit *****************
 Defined at:
		line 214 in file "controller.c"
 Parameters:    Size  Location     Type
		None
 Auto vars:     Size  Location     Type
		None
 Return value:  Size  Location     Type
                  1    wreg      void 
 Registers used:
		wreg, status,2, status,0, cstack
 Tracked objects:
		On entry : 
		On exit  : 
		Unchanged: 
 Data sizes:     COMRAM   BANK0   BANK1   BANK2   BANK3   BANK4   BANK5   BANK6   BANK7   BANK8   BANK9  BANK10  BANK11  BANK12  BANK13  BANK14  BANK15
      Params:         0       0       0       0       0       0       0       0       0       0       0       0       0       0       0       0       0
      Locals:         0       0       0       0       0       0       0       0       0       0       0       0       0       0       0       0       0
      Temps:          0       0       0       0       0       0       0       0       0       0       0       0       0       0       0       0       0
      Totals:         0       0       0       0       0       0       0       0       0       0       0       0       0       0       0       0       0
Total ram usage:        0 bytes
 Hardware stack levels used:    1
 Hardware stack levels required when called:   18
 This function calls:
		_I2C2_Open
		_I2C2_SlaveSetReadIntHandler
		_I2C2_SlaveSetStopIntHandler
		_TMR6_SetInterruptHandler
		_TMR6_StartTimer
 This function is called by:
		_main
 This function uses a non-reentrant model


 *************** function _TMR6_StartTimer *****************
 Defined at:
		line 114 in file "mcc_generated_files/tmr6.c"
 Parameters:    Size  Location     Type
		None
 Auto vars:     Size  Location     Type
		None
 Return value:  Size  Location     Type
                  1    wreg      void 
 Registers used:
		cstack
 Tracked objects:
		On entry : 
		On exit  : 
		Unchanged: 
 Data sizes:     COMRAM   BANK0   BANK1   BANK2   BANK3   BANK4   BANK5   BANK6   BANK7   BANK8   BANK9  BANK10  BANK11  BANK12  BANK13  BANK14  BANK15
      Params:         0       0       0       0       0       0       0       0       0       0       0       0       0       0       0       0       0
      Locals:         0       0       0       0       0       0       0       0       0       0       0       0       0       0       0       0       0
      Temps:          0       0       0       0       0       0       0       0       0       0       0       0       0       0       0       0       0
      Totals:         0       0       0       0       0       0       0       0       0       0       0       0       0       0       0       0       0
Total ram usage:        0 bytes
 Hardware stack levels used:    1
 Hardware stack levels required when called:   17
 This function calls:
		_TMR6_Start
 This function is called by:
		_ControllerInit
 This function uses a non-reentrant model


 *************** function _TMR6_Start *****************
 Defined at:
		line 108 in file "mcc_generated_files/tmr6.c"
 Parameters:    Size  Location     Type
		None
 Auto vars:     Size  Location     Type
		None
 Return value:  Size  Location     Type
                  1    wreg      void 
 Registers used:
		None
 Tracked objects:
		On entry : 
		On exit  : 
		Unchanged: 
 Data sizes:     COMRAM   BANK0   BANK1   BANK2   BANK3   BANK4   BANK5   BANK6   BANK7   BANK8   BANK9  BANK10  BANK11  BANK12  BANK13  BANK14  BANK15
      Params:         0       0       0       0       0       0       0       0       0       0       0       0       0       0       0       0       0
      Locals:         0       0       0       0       0       0       0       0       0       0       0       0       0       0       0       0       0
      Temps:          0       0       0       0       0       0       0       0       0       0       0       0       0       0       0       0       0
      Totals:         0       0       0       0       0       0       0       0       0       0       0       0       0       0       0       0       0
Total ram usage:        0 bytes
 Hardware stack levels used:    1
 Hardware stack levels required when called:   16
 This function calls:
		Nothing
 This function is called by:
		_TMR6_StartTimer
 This function uses a non-reentrant model


 *************** function _TMR6_SetInterruptHandler *****************
 Defined at:
		line 178 in file "mcc_generated_files/tmr6.c"
 Parameters:    Size  Location     Type
  InterruptHan    2    4[BANK1 ] PTR FTN()void 
		 -> ControllerTimerHandler(1), TMR6_DefaultInterruptHandler(1), 
 Auto vars:     Size  Location     Type
		None
 Return value:  Size  Location     Type
                  1    wreg      void 
 Registers used:
		wreg, status,2, status,0
 Tracked objects:
		On entry : 
		On exit  : 
		Unchanged: 
 Data sizes:     COMRAM   BANK0   BANK1   BANK2   BANK3   BANK4   BANK5   BANK6   BANK7   BANK8   BANK9  BANK10  BANK11  BANK12  BANK13  BANK14  BANK15
      Params:         0       0       2       0       0       0       0       0       0       0       0       0       0       0       0       0       0
      Locals:         0       0       0       0       0       0       0       0       0       0       0       0       0       0       0       0       0
      Temps:          0       0       0       0       0       0       0       0       0       0       0       0       0       0       0       0       0
      Totals:         0       0       2       0       0       0       0       0       0       0       0       0       0       0       0       0       0
Total ram usage:        2 bytes
 Hardware stack levels used:    1
 Hardware stack levels required when called:   16
 This function calls:
		Nothing
 This function is called by:
		_TMR6_Initialize
		_ControllerInit
 This function uses a non-reentrant model


 *************** function _I2C2_SlaveSetStopIntHandler *****************
 Defined at:
		line 269 in file "mcc_generated_files/i2c2_slave.c"
 Parameters:    Size  Location     Type
  handler         2    4[BANK1 ] PTR FTN()void 
		 -> StopHandler(1), 
 Auto vars:     Size  Location     Type
		None
 Return value:  Size  Location     Type
                  1    wreg      void 
 Registers used:
		wreg, status,2, status,0
 Tracked objects:
		On entry : 
		On exit  : 
		Unchanged: 
 Data sizes:     COMRAM   BANK0   BANK1   BANK2   BANK3   BANK4   BANK5   BANK6   BANK7   BANK8   BANK9  BANK10  BANK11  BANK12  BANK13  BANK14  BANK15
      Params:         0       0       2       0       0       0       0       0       0       0       0       0       0       0       0       0       0
      Locals:         0       0       0       0       0       0       0       0       0       0       0       0       0       0       0       0       0
      Temps:          0       0       0       0       0       0       0       0       0       0       0       0       0       0       0       0       0
      Totals:         0       0       2       0       0       0       0       0       0       0       0       0       0       0       0       0       0
Total ram usage:        2 bytes
 Hardware stack levels used:    1
 Hardware stack levels required when called:   16
 This function calls:
		Nothing
 This function is called by:
		_ControllerInit
 This function uses a non-reentrant model


 *************** function _I2C2_Open *****************
 Defined at:
		line 128 in file "mcc_generated_files/i2c2_slave.c"
 Parameters:    Size  Location     Type
		None
 Auto vars:     Size  Location     Type
		None
 Return value:  Size  Location     Type
                  1    wreg      void 
 Registers used:
		wreg, status,2, status,0, cstack
 Tracked objects:
		On entry : 
		On exit  : 
		Unchanged: 
 Data sizes:     COMRAM   BANK0   BANK1   BANK2   BANK3   BANK4   BANK5   BANK6   BANK7   BANK8   BANK9  BANK10  BANK11  BANK12  BANK13  BANK14  BANK15
      Params:         0       0       0       0       0       0       0       0       0       0       0       0       0       0       0       0       0
      Locals:         0       0       0       0       0       0       0       0       0       0       0       0       0       0       0       0       0
      Temps:          0       0       0       0       0       0       0       0       0       0       0       0       0       0       0       0       0
      Totals:         0       0       0       0       0       0       0       0       0       0       0       0       0       0       0       0       0
Total ram usage:        0 bytes
 Hardware stack levels used:    1
 Hardware stack levels required when called:   17
 This function calls:
		_I2C2_SlaveEnableIrq
		_I2C2_SlaveOpen
		_I2C2_SlaveSetAddrIntHandler
		_I2C2_SlaveSetBusColIntHandler
		_I2C2_SlaveSetIsrHandler
		_I2C2_SlaveSetReadIntHandler
		_I2C2_SlaveSetSlaveAddr
		_I2C2_SlaveSetSlaveMask
		_I2C2_SlaveSetWrColIntHandler
		_I2C2_SlaveSetWriteIntHandler
 This function is called by:
		_ControllerInit
 This function uses a non-reentrant model


 *************** function _I2C2_SlaveSetWriteIntHandler *****************
 Defined at:
		line 252 in file "mcc_generated_files/i2c2_slave.c"
 Parameters:    Size  Location     Type
  handler         2    4[BANK1 ] PTR FTN()void 
		 -> I2C2_SlaveDefWrInterruptHandler(1), 
 Auto vars:     Size  Location     Type
		None
 Return value:  Size  Location     Type
                  1    wreg      void 
 Registers used:
		wreg, status,2, status,0
 Tracked objects:
		On entry : 
		On exit  : 
		Unchanged: 
 Data sizes:     COMRAM   BANK0   BANK1   BANK2   BANK3   BANK4   BANK5   BANK6   BANK7   BANK8   BANK9  BANK10  BANK11  BANK12  BANK13  BANK14  BANK15
      Params:         0       0       2       0       0       0       0       0       0       0       0       0       0       0       0       0       0
      Locals:         0       0       0       0       0       0       0       0       0       0       0       0       0       0       0       0       0
      Temps:          0       0       0       0       0       0       0       0       0       0       0       0       0       0       0       0       0
      Totals:         0       0       2       0       0       0       0       0       0       0       0       0       0       0       0       0       0
Total ram usage:        2 bytes
 Hardware stack levels used:    1
 Hardware stack levels required when called:   16
 This function calls:
		Nothing
 This function is called by:
		_I2C2_Open
 This function uses a non-reentrant model


 *************** function _I2C2_SlaveSetWrColIntHandler *****************
 Defined at:
		line 301 in file "mcc_generated_files/i2c2_slave.c"
 Parameters:    Size  Location     Type
  handler         2    4[BANK1 ] PTR FTN()void 
		 -> I2C2_SlaveDefWrColInterruptHandler(1), 
 Auto vars:     Size  Location     Type
		None
 Return value:  Size  Location     Type
                  1    wreg      void 
 Registers used:
		wreg, status,2, status,0
 Tracked objects:
		On entry : 
		On exit  : 
		Unchanged: 
 Data sizes:     COMRAM   BANK0   BANK1   BANK2   BANK3   BANK4   BANK5   BANK6   BANK7   BANK8   BANK9  BANK10  BANK11  BANK12  BANK13  BANK14  BANK15
      Params:         0       0       2       0       0       0       0       0       0       0       0       0       0       0       0       0       0
      Locals:         0       0       0       0       0       0       0       0       0       0       0       0       0       0       0       0       0
      Temps:          0       0       0       0       0       0       0       0       0       0       0       0       0       0       0       0       0
      Totals:         0       0       2       0       0       0       0       0       0       0       0       0       0       0       0       0       0
Total ram usage:        2 bytes
 Hardware stack levels used:    1
 Hardware stack levels required when called:   16
 This function calls:
		Nothing
 This function is called by:
		_I2C2_Open
 This function uses a non-reentrant model


 *************** function _I2C2_SlaveSetSlaveMask *****************
 Defined at:
		line 354 in file "mcc_generated_files/i2c2_slave.c"
 Parameters:    Size  Location     Type
  maskAddr        1    wreg     unsigned char 
 Auto vars:     Size  Location     Type
  maskAddr        1    4[BANK1 ] unsigned char 
 Return value:  Size  Location     Type
                  1    wreg      void 
 Registers used:
		wreg, status,2, status,0
 Tracked objects:
		On entry : 
		On exit  : 
		Unchanged: 
 Data sizes:     COMRAM   BANK0   BANK1   BANK2   BANK3   BANK4   BANK5   BANK6   BANK7   BANK8   BANK9  BANK10  BANK11  BANK12  BANK13  BANK14  BANK15
      Params:         0       0       0       0       0       0       0       0       0       0       0       0       0       0       0       0       0
      Locals:         0       0       1       0       0       0       0       0       0       0       0       0       0       0       0       0       0
      Temps:          0       0       0       0       0       0       0       0       0       0       0       0       0       0       0       0       0
      Totals:         0       0       1       0       0       0       0       0       0       0       0       0       0       0       0       0       0
Total ram usage:        1 bytes
 Hardware stack levels used:    1
 Hardware stack levels required when called:   16
 This function calls:
		Nothing
 This function is called by:
		_I2C2_Open
 This function uses a non-reentrant model


 *************** function _I2C2_SlaveSetSlaveAddr *****************
 Defined at:
		line 349 in file "mcc_generated_files/i2c2_slave.c"
 Parameters:    Size  Location     Type
  slaveAddr       1    wreg     unsigned char 
 Auto vars:     Size  Location     Type
  slaveAddr       1    4[BANK1 ] unsigned char 
 Return value:  Size  Location     Type
                  1    wreg      void 
 Registers used:
		wreg
 Tracked objects:
		On entry : 
		On exit  : 
		Unchanged: 
 Data sizes:     COMRAM   BANK0   BANK1   BANK2   BANK3   BANK4   BANK5   BANK6   BANK7   BANK8   BANK9  BANK10  BANK11  BANK12  BANK13  BANK14  BANK15
      Params:         0       0       0       0       0       0       0       0       0       0       0       0       0       0       0       0       0
      Locals:         0       0       1       0       0       0       0       0       0       0       0       0       0       0       0       0       0
      Temps:          0       0       0       0       0       0       0       0       0       0       0       0       0       0       0       0       0
      Totals:         0       0       1       0       0       0       0       0       0       0       0       0       0       0       0       0       0
Total ram usage:        1 bytes
 Hardware stack levels used:    1
 Hardware stack levels required when called:   16
 This function calls:
		Nothing
 This function is called by:
		_I2C2_Open
 This function uses a non-reentrant model


 *************** function _I2C2_SlaveSetReadIntHandler *****************
 Defined at:
		line 235 in file "mcc_generated_files/i2c2_slave.c"
 Parameters:    Size  Location     Type
  handler         2    4[BANK1 ] PTR FTN()void 
		 -> ReceiveHandler(1), I2C2_SlaveDefRdInterruptHandler(1), 
 Auto vars:     Size  Location     Type
		None
 Return value:  Size  Location     Type
                  1    wreg      void 
 Registers used:
		wreg, status,2, status,0
 Tracked objects:
		On entry : 
		On exit  : 
		Unchanged: 
 Data sizes:     COMRAM   BANK0   BANK1   BANK2   BANK3   BANK4   BANK5   BANK6   BANK7   BANK8   BANK9  BANK10  BANK11  BANK12  BANK13  BANK14  BANK15
      Params:         0       0       2       0       0       0       0       0       0       0       0       0       0       0       0       0       0
      Locals:         0       0       0       0       0       0       0       0       0       0       0       0       0       0       0       0       0
      Temps:          0       0       0       0       0       0       0       0       0       0       0       0       0       0       0       0       0
      Totals:         0       0       2       0       0       0       0       0       0       0       0       0       0       0       0       0       0
Total ram usage:        2 bytes
 Hardware stack levels used:    1
 Hardware stack levels required when called:   16
 This function calls:
		Nothing
 This function is called by:
		_I2C2_Open
		_ControllerInit
 This function uses a non-reentrant model


 *************** function _I2C2_SlaveSetIsrHandler *****************
 Defined at:
		line 229 in file "mcc_generated_files/i2c2_slave.c"
 Parameters:    Size  Location     Type
  handler         2    4[BANK1 ] PTR FTN()void 
		 -> I2C2_Isr(1), 
 Auto vars:     Size  Location     Type
		None
 Return value:  Size  Location     Type
                  1    wreg      void 
 Registers used:
		wreg, status,2, status,0
 Tracked objects:
		On entry : 
		On exit  : 
		Unchanged: 
 Data sizes:     COMRAM   BANK0   BANK1   BANK2   BANK3   BANK4   BANK5   BANK6   BANK7   BANK8   BANK9  BANK10  BANK11  BANK12  BANK13  BANK14  BANK15
      Params:         0       0       2       0       0       0       0       0       0       0       0       0       0       0       0       0       0
      Locals:         0       0       0       0       0       0       0       0       0       0       0       0       0       0       0       0       0
      Temps:          0       0       0       0       0       0       0       0       0       0       0       0       0       0       0       0       0
      Totals:         0       0       2       0       0       0       0       0       0       0       0       0       0       0       0       0       0
Total ram usage:        2 bytes
 Hardware stack levels used:    1
 Hardware stack levels required when called:   16
 This function calls:
		Nothing
 This function is called by:
		_I2C2_Open
 This function uses a non-reentrant model


 *************** function _I2C2_SlaveSetBusColIntHandler *****************
 Defined at:
		line 317 in file "mcc_generated_files/i2c2_slave.c"
 Parameters:    Size  Location     Type
  handler         2    4[BANK1 ] PTR FTN()void 
		 -> I2C2_SlaveDefBusColInterruptHandler(1), 
 Auto vars:     Size  Location     Type
		None
 Return value:  Size  Location     Type
                  1    wreg      void 
 Registers used:
		wreg, status,2, status,0
 Tracked objects:
		On entry : 
		On exit  : 
		Unchanged: 
 Data sizes:     COMRAM   BANK0   BANK1   BANK2   BANK3   BANK4   BANK5   BANK6   BANK7   BANK8   BANK9  BANK10  BANK11  BANK12  BANK13  BANK14  BANK15
      Params:         0       0       2       0       0       0       0       0       0       0       0       0       0       0       0       0       0
      Locals:         0       0       0       0       0       0       0       0       0       0       0       0       0       0       0       0       0
      Temps:          0       0       0       0       0       0       0       0       0       0       0       0       0       0       0       0       0
      Totals:         0       0       2       0       0       0       0       0       0       0       0       0       0       0       0       0       0
Total ram usage:        2 bytes
 Hardware stack levels used:    1
 Hardware stack levels required when called:   16
 This function calls:
		Nothing
 This function is called by:
		_I2C2_Open
 This function uses a non-reentrant model


 *************** function _I2C2_SlaveSetAddrIntHandler *****************
 Defined at:
		line 285 in file "mcc_generated_files/i2c2_slave.c"
 Parameters:    Size  Location     Type
  handler         2    4[BANK1 ] PTR FTN()void 
		 -> I2C2_SlaveDefAddrInterruptHandler(1), 
 Auto vars:     Size  Location     Type
		None
 Return value:  Size  Location     Type
                  1    wreg      void 
 Registers used:
		wreg, status,2, status,0
 Tracked objects:
		On entry : 
		On exit  : 
		Unchanged: 
 Data sizes:     COMRAM   BANK0   BANK1   BANK2   BANK3   BANK4   BANK5   BANK6   BANK7   BANK8   BANK9  BANK10  BANK11  BANK12  BANK13  BANK14  BANK15
      Params:         0       0       2       0       0       0       0       0       0       0       0       0       0       0       0       0       0
      Locals:         0       0       0       0       0       0       0       0       0       0       0       0       0       0       0       0       0
      Temps:          0       0       0       0       0       0       0       0       0       0       0       0       0       0       0       0       0
      Totals:         0       0       2       0       0       0       0       0       0       0       0       0       0       0       0       0       0
Total ram usage:        2 bytes
 Hardware stack levels used:    1
 Hardware stack levels required when called:   16
 This function calls:
		Nothing
 This function is called by:
		_I2C2_Open
 This function uses a non-reentrant model


 *************** function _I2C2_SlaveOpen *****************
 Defined at:
		line 332 in file "mcc_generated_files/i2c2_slave.c"
 Parameters:    Size  Location     Type
		None
 Auto vars:     Size  Location     Type
		None
 Return value:  Size  Location     Type
                  1    wreg      _Bool 
 Registers used:
		None
 Tracked objects:
		On entry : 
		On exit  : 
		Unchanged: 
 Data sizes:     COMRAM   BANK0   BANK1   BANK2   BANK3   BANK4   BANK5   BANK6   BANK7   BANK8   BANK9  BANK10  BANK11  BANK12  BANK13  BANK14  BANK15
      Params:         0       0       0       0       0       0       0       0       0       0       0       0       0       0       0       0       0
      Locals:         0       0       0       0       0       0       0       0       0       0       0       0       0       0       0       0       0
      Temps:          0       0       0       0       0       0       0       0       0       0       0       0       0       0       0       0       0
      Totals:         0       0       0       0       0       0       0       0       0       0       0       0       0       0       0       0       0
Total ram usage:        0 bytes
 Hardware stack levels used:    1
 Hardware stack levels required when called:   16
 This function calls:
		Nothing
 This function is called by:
		_I2C2_Open
 This function uses a non-reentrant model


 *************** function _I2C2_SlaveEnableIrq *****************
 Defined at:
		line 359 in file "mcc_generated_files/i2c2_slave.c"
 Parameters:    Size  Location     Type
		None
 Auto vars:     Size  Location     Type
		None
 Return value:  Size  Location     Type
                  1    wreg      void 
 Registers used:
		None
 Tracked objects:
		On entry : 
		On exit  : 
		Unchanged: 
 Data sizes:     COMRAM   BANK0   BANK1   BANK2   BANK3   BANK4   BANK5   BANK6   BANK7   BANK8   BANK9  BANK10  BANK11  BANK12  BANK13  BANK14  BANK15
      Params:         0       0       0       0       0       0       0       0       0       0       0       0       0       0       0       0       0
      Locals:         0       0       0       0       0       0       0       0       0       0       0       0       0       0       0       0       0
      Temps:          0       0       0       0       0       0       0       0       0       0       0       0       0       0       0       0       0
      Totals:         0       0       0       0       0       0       0       0       0       0       0       0       0       0       0       0       0
Total ram usage:        0 bytes
 Hardware stack levels used:    1
 Hardware stack levels required when called:   16
 This function calls:
		Nothing
 This function is called by:
		_I2C2_Open
 This function uses a non-reentrant model


 *************** function _BuzzerTest *****************
 Defined at:
		line 97 in file "buzzer.c"
 Parameters:    Size  Location     Type
  note            1    wreg     unsigned char 
 Auto vars:     Size  Location     Type
  note            1    8[BANK1 ] unsigned char 
 Return value:  Size  Location     Type
                  1    wreg      void 
 Registers used:
		wreg, status,2, status,0, cstack
 Tracked objects:
		On entry : 
		On exit  : 
		Unchanged: 
 Data sizes:     COMRAM   BANK0   BANK1   BANK2   BANK3   BANK4   BANK5   BANK6   BANK7   BANK8   BANK9  BANK10  BANK11  BANK12  BANK13  BANK14  BANK15
      Params:         0       0       0       0       0       0       0       0       0       0       0       0       0       0       0       0       0
      Locals:         0       0       1       0       0       0       0       0       0       0       0       0       0       0       0       0       0
      Temps:          0       0       2       0       0       0       0       0       0       0       0       0       0       0       0       0       0
      Totals:         0       0       3       0       0       0       0       0       0       0       0       0       0       0       0       0       0
Total ram usage:        3 bytes
 Hardware stack levels used:    1
 Hardware stack levels required when called:   18
 This function calls:
		_BuzzerOff
		_BuzzerOn
		_TMR4_Period8BitSet
		_TMR4_SetInterruptHandler
		_TMR4_Start
 This function is called by:
		_main
 This function uses a non-reentrant model


 *************** function _BuzzerCheck *****************
 Defined at:
		line 427 in file "buzzer.c"
 Parameters:    Size  Location     Type
		None
 Auto vars:     Size  Location     Type
		None
 Return value:  Size  Location     Type
                  1    wreg      void 
 Registers used:
		wreg, fsr1l, fsr1h, fsr2l, fsr2h, status,2, status,0, tblptrl, tblptrh, tblptru, prodl, prodh, cstack
 Tracked objects:
		On entry : 
		On exit  : 
		Unchanged: 
 Data sizes:     COMRAM   BANK0   BANK1   BANK2   BANK3   BANK4   BANK5   BANK6   BANK7   BANK8   BANK9  BANK10  BANK11  BANK12  BANK13  BANK14  BANK15
      Params:         0       0       0       0       0       0       0       0       0       0       0       0       0       0       0       0       0
      Locals:         0       0       0       0       0       0       0       0       0       0       0       0       0       0       0       0       0
      Temps:          0       0       2       0       0       0       0       0       0       0       0       0       0       0       0       0       0
      Totals:         0       0       2       0       0       0       0       0       0       0       0       0       0       0       0       0       0
Total ram usage:        2 bytes
 Hardware stack levels used:    1
 Hardware stack levels required when called:   25
 This function calls:
		_BuzzerOff
		_BuzzerOn
		_SetMonitorFailAlarm
		_printf
 This function is called by:
		_main
 This function uses a non-reentrant model


 *************** function _ButtonInit *****************
 Defined at:
		line 34 in file "buttons.c"
 Parameters:    Size  Location     Type
		None
 Auto vars:     Size  Location     Type
		None
 Return value:  Size  Location     Type
                  1    wreg      void 
 Registers used:
		wreg, status,2, status,0, cstack
 Tracked objects:
		On entry : 
		On exit  : 
		Unchanged: 
 Data sizes:     COMRAM   BANK0   BANK1   BANK2   BANK3   BANK4   BANK5   BANK6   BANK7   BANK8   BANK9  BANK10  BANK11  BANK12  BANK13  BANK14  BANK15
      Params:         0       0       0       0       0       0       0       0       0       0       0       0       0       0       0       0       0
      Locals:         0       0       0       0       0       0       0       0       0       0       0       0       0       0       0       0       0
      Temps:          0       0       0       0       0       0       0       0       0       0       0       0       0       0       0       0       0
      Totals:         0       0       0       0       0       0       0       0       0       0       0       0       0       0       0       0       0
Total ram usage:        0 bytes
 Hardware stack levels used:    1
 Hardware stack levels required when called:   17
 This function calls:
		_TMR1_SetInterruptHandler
		_TMR1_StartTimer
 This function is called by:
		_main
 This function uses a non-reentrant model


 *************** function _TMR1_StartTimer *****************
 Defined at:
		line 99 in file "mcc_generated_files/tmr1.c"
 Parameters:    Size  Location     Type
		None
 Auto vars:     Size  Location     Type
		None
 Return value:  Size  Location     Type
                  1    wreg      void 
 Registers used:
		None
 Tracked objects:
		On entry : 
		On exit  : 
		Unchanged: 
 Data sizes:     COMRAM   BANK0   BANK1   BANK2   BANK3   BANK4   BANK5   BANK6   BANK7   BANK8   BANK9  BANK10  BANK11  BANK12  BANK13  BANK14  BANK15
      Params:         0       0       0       0       0       0       0       0       0       0       0       0       0       0       0       0       0
      Locals:         0       0       0       0       0       0       0       0       0       0       0       0       0       0       0       0       0
      Temps:          0       0       0       0       0       0       0       0       0       0       0       0       0       0       0       0       0
      Totals:         0       0       0       0       0       0       0       0       0       0       0       0       0       0       0       0       0
Total ram usage:        0 bytes
 Hardware stack levels used:    1
 Hardware stack levels required when called:   16
 This function calls:
		Nothing
 This function is called by:
		_ButtonInit
 This function uses a non-reentrant model


 *************** function _TMR1_SetInterruptHandler *****************
 Defined at:
		line 178 in file "mcc_generated_files/tmr1.c"
 Parameters:    Size  Location     Type
  InterruptHan    2    4[BANK1 ] PTR FTN()void 
		 -> ButtonTask(1), TMR1_DefaultInterruptHandler(1), 
 Auto vars:     Size  Location     Type
		None
 Return value:  Size  Location     Type
                  1    wreg      void 
 Registers used:
		wreg, status,2, status,0
 Tracked objects:
		On entry : 
		On exit  : 
		Unchanged: 
 Data sizes:     COMRAM   BANK0   BANK1   BANK2   BANK3   BANK4   BANK5   BANK6   BANK7   BANK8   BANK9  BANK10  BANK11  BANK12  BANK13  BANK14  BANK15
      Params:         0       0       2       0       0       0       0       0       0       0       0       0       0       0       0       0       0
      Locals:         0       0       0       0       0       0       0       0       0       0       0       0       0       0       0       0       0
      Temps:          0       0       0       0       0       0       0       0       0       0       0       0       0       0       0       0       0
      Totals:         0       0       2       0       0       0       0       0       0       0       0       0       0       0       0       0       0
Total ram usage:        2 bytes
 Hardware stack levels used:    1
 Hardware stack levels required when called:   16
 This function calls:
		Nothing
 This function is called by:
		_TMR1_Initialize
		_ButtonInit
 This function uses a non-reentrant model


 *************** function _AlarmInit *****************
 Defined at:
		line 571 in file "alarm.c"
 Parameters:    Size  Location     Type
		None
 Auto vars:     Size  Location     Type
  i               2    6[BANK1 ] int 
 Return value:  Size  Location     Type
                  1    wreg      void 
 Registers used:
		wreg, fsr2l, fsr2h, status,2, status,0, cstack
 Tracked objects:
		On entry : 
		On exit  : 
		Unchanged: 
 Data sizes:     COMRAM   BANK0   BANK1   BANK2   BANK3   BANK4   BANK5   BANK6   BANK7   BANK8   BANK9  BANK10  BANK11  BANK12  BANK13  BANK14  BANK15
      Params:         0       0       0       0       0       0       0       0       0       0       0       0       0       0       0       0       0
      Locals:         0       0       2       0       0       0       0       0       0       0       0       0       0       0       0       0       0
      Temps:          0       0       0       0       0       0       0       0       0       0       0       0       0       0       0       0       0
      Totals:         0       0       2       0       0       0       0       0       0       0       0       0       0       0       0       0       0
Total ram usage:        2 bytes
 Hardware stack levels used:    1
 Hardware stack levels required when called:   19
 This function calls:
		_BuzzerInit
		_TMR5_SetInterruptHandler
		_TMR5_StartTimer
 This function is called by:
		_main
 This function uses a non-reentrant model


 *************** function _TMR5_StartTimer *****************
 Defined at:
		line 99 in file "mcc_generated_files/tmr5.c"
 Parameters:    Size  Location     Type
		None
 Auto vars:     Size  Location     Type
		None
 Return value:  Size  Location     Type
                  1    wreg      void 
 Registers used:
		None
 Tracked objects:
		On entry : 
		On exit  : 
		Unchanged: 
 Data sizes:     COMRAM   BANK0   BANK1   BANK2   BANK3   BANK4   BANK5   BANK6   BANK7   BANK8   BANK9  BANK10  BANK11  BANK12  BANK13  BANK14  BANK15
      Params:         0       0       0       0       0       0       0       0       0       0       0       0       0       0       0       0       0
      Locals:         0       0       0       0       0       0       0       0       0       0       0       0       0       0       0       0       0
      Temps:          0       0       0       0       0       0       0       0       0       0       0       0       0       0       0       0       0
      Totals:         0       0       0       0       0       0       0       0       0       0       0       0       0       0       0       0       0
Total ram usage:        0 bytes
 Hardware stack levels used:    1
 Hardware stack levels required when called:   16
 This function calls:
		Nothing
 This function is called by:
		_HistAlarm
		_AlarmInit
 This function uses a non-reentrant model


 *************** function _TMR5_SetInterruptHandler *****************
 Defined at:
		line 178 in file "mcc_generated_files/tmr5.c"
 Parameters:    Size  Location     Type
  InterruptHan    2    4[BANK1 ] PTR FTN()void 
		 -> AlarmHandler(1), TMR5_DefaultInterruptHandler(1), 
 Auto vars:     Size  Location     Type
		None
 Return value:  Size  Location     Type
                  1    wreg      void 
 Registers used:
		wreg, status,2, status,0
 Tracked objects:
		On entry : 
		On exit  : 
		Unchanged: 
 Data sizes:     COMRAM   BANK0   BANK1   BANK2   BANK3   BANK4   BANK5   BANK6   BANK7   BANK8   BANK9  BANK10  BANK11  BANK12  BANK13  BANK14  BANK15
      Params:         0       0       2       0       0       0       0       0       0       0       0       0       0       0       0       0       0
      Locals:         0       0       0       0       0       0       0       0       0       0       0       0       0       0       0       0       0
      Temps:          0       0       0       0       0       0       0       0       0       0       0       0       0       0       0       0       0
      Totals:         0       0       2       0       0       0       0       0       0       0       0       0       0       0       0       0       0
Total ram usage:        2 bytes
 Hardware stack levels used:    1
 Hardware stack levels required when called:   16
 This function calls:
		Nothing
 This function is called by:
		_TMR5_Initialize
		_AlarmInit
 This function uses a non-reentrant model


 *************** function _BuzzerInit *****************
 Defined at:
		line 405 in file "buzzer.c"
 Parameters:    Size  Location     Type
		None
 Auto vars:     Size  Location     Type
		None
 Return value:  Size  Location     Type
                  1    wreg      void 
 Registers used:
		wreg, status,2, status,0, cstack
 Tracked objects:
		On entry : 
		On exit  : 
		Unchanged: 
 Data sizes:     COMRAM   BANK0   BANK1   BANK2   BANK3   BANK4   BANK5   BANK6   BANK7   BANK8   BANK9  BANK10  BANK11  BANK12  BANK13  BANK14  BANK15
      Params:         0       0       0       0       0       0       0       0       0       0       0       0       0       0       0       0       0
      Locals:         0       0       0       0       0       0       0       0       0       0       0       0       0       0       0       0       0
      Temps:          0       0       0       0       0       0       0       0       0       0       0       0       0       0       0       0       0
      Totals:         0       0       0       0       0       0       0       0       0       0       0       0       0       0       0       0       0
Total ram usage:        0 bytes
 Hardware stack levels used:    1
 Hardware stack levels required when called:   18
 This function calls:
		_BuzzerOff
		_CMP1_SetIntHandler
		_TMR4_SetInterruptHandler
 This function is called by:
		_AlarmInit
 This function uses a non-reentrant model


 *************** function _CMP1_SetIntHandler *****************
 Defined at:
		line 94 in file "mcc_generated_files/cmp1.c"
 Parameters:    Size  Location     Type
  handler         2    4[BANK1 ] PTR FTN()void 
		 -> BuzzerCMPHandler(1), 
 Auto vars:     Size  Location     Type
		None
 Return value:  Size  Location     Type
                  1    wreg      void 
 Registers used:
		wreg, status,2, status,0
 Tracked objects:
		On entry : 
		On exit  : 
		Unchanged: 
 Data sizes:     COMRAM   BANK0   BANK1   BANK2   BANK3   BANK4   BANK5   BANK6   BANK7   BANK8   BANK9  BANK10  BANK11  BANK12  BANK13  BANK14  BANK15
      Params:         0       0       2       0       0       0       0       0       0       0       0       0       0       0       0       0       0
      Locals:         0       0       0       0       0       0       0       0       0       0       0       0       0       0       0       0       0
      Temps:          0       0       0       0       0       0       0       0       0       0       0       0       0       0       0       0       0
      Totals:         0       0       2       0       0       0       0       0       0       0       0       0       0       0       0       0       0
Total ram usage:        2 bytes
 Hardware stack levels used:    1
 Hardware stack levels required when called:   16
 This function calls:
		Nothing
 This function is called by:
		_BuzzerInit
 This function uses a non-reentrant model


 *************** function _AlarmCheckTask *****************
 Defined at:
		line 510 in file "alarm.c"
 Parameters:    Size  Location     Type
		None
 Auto vars:     Size  Location     Type
  type            2    7[BANK2 ] int 
  id              2    9[BANK2 ] int 
 Return value:  Size  Location     Type
                  1    wreg      void 
 Registers used:
		wreg, fsr1l, fsr1h, fsr2l, fsr2h, status,2, status,0, pclath, tosl, tblptrl, tblptrh, tblptru, prodl, prodh, cstack
 Tracked objects:
		On entry : 
		On exit  : 
		Unchanged: 
 Data sizes:     COMRAM   BANK0   BANK1   BANK2   BANK3   BANK4   BANK5   BANK6   BANK7   BANK8   BANK9  BANK10  BANK11  BANK12  BANK13  BANK14  BANK15
      Params:         0       0       0       0       0       0       0       0       0       0       0       0       0       0       0       0       0
      Locals:         0       0       0       9       0       0       0       0       0       0       0       0       0       0       0       0       0
      Temps:          0       0       0       2       0       0       0       0       0       0       0       0       0       0       0       0       0
      Totals:         0       0       0      11       0       0       0       0       0       0       0       0       0       0       0       0       0
Total ram usage:       11 bytes
 Hardware stack levels used:    1
 Hardware stack levels required when called:   28
 This function calls:
		_AlarmClear
		_AlarmSet
		_AlarmUpdateLCD
		_AnyAlarm
		_BaterryLowAlarmHigh
		_BaterryLowAlarmMed
		_BatteryFailAlarm
		_BuzzerClear
		_BuzzerSet
		_CircuitFailureAlarm
		_ClearAlarmLED
		_ControlFailAlarm
		_EPAboveSetAlarm
		_EPBelowSetAlarm
		_GasFailureAlarm
		_HighPressureAlarmHigh
		_HighPressureAlarmLow
		_HigherAlarm
		_IPAboveSetAlarm
		_IPBelowSetAlarm
		_MonitorFailAlarm
		_NoPowerSupplyAlarm
		_SetAlarmLED
		_SetAlarmSV1
		_TdeTooLongAlarm
		_TdiTooLongAlarm
		_VAboveMaxAlarm
		_VBelowMinAlarm
		_VeryHighPressureAlarmHigh
		___wmul
 This function is called by:
		_main
 This function uses a non-reentrant model


 *************** function _NoPowerSupplyAlarm *****************
 Defined at:
		line 220 in file "alarm.c"
 Parameters:    Size  Location     Type
		None
 Auto vars:     Size  Location     Type
		None
 Return value:  Size  Location     Type
                  1    wreg      _Bool 
 Registers used:
		wreg, status,2
 Tracked objects:
		On entry : 
		On exit  : 
		Unchanged: 
 Data sizes:     COMRAM   BANK0   BANK1   BANK2   BANK3   BANK4   BANK5   BANK6   BANK7   BANK8   BANK9  BANK10  BANK11  BANK12  BANK13  BANK14  BANK15
      Params:         0       0       0       0       0       0       0       0       0       0       0       0       0       0       0       0       0
      Locals:         0       0       0       0       0       0       0       0       0       0       0       0       0       0       0       0       0
      Temps:          0       0       0       0       0       0       0       0       0       0       0       0       0       0       0       0       0
      Totals:         0       0       0       0       0       0       0       0       0       0       0       0       0       0       0       0       0
Total ram usage:        0 bytes
 Hardware stack levels used:    1
 Hardware stack levels required when called:   16
 This function calls:
		Nothing
 This function is called by:
		_AlarmCheckTask
 This function uses a non-reentrant model


 *************** function _VBelowMinAlarm *****************
 Defined at:
		line 216 in file "alarm.c"
 Parameters:    Size  Location     Type
		None
 Auto vars:     Size  Location     Type
		None
 Return value:  Size  Location     Type
                  1    wreg      _Bool 
 Registers used:
		wreg, status,2
 Tracked objects:
		On entry : 
		On exit  : 
		Unchanged: 
 Data sizes:     COMRAM   BANK0   BANK1   BANK2   BANK3   BANK4   BANK5   BANK6   BANK7   BANK8   BANK9  BANK10  BANK11  BANK12  BANK13  BANK14  BANK15
      Params:         0       0       0       0       0       0       0       0       0       0       0       0       0       0       0       0       0
      Locals:         0       0       0       0       0       0       0       0       0       0       0       0       0       0       0       0       0
      Temps:          0       0       0       0       0       0       0       0       0       0       0       0       0       0       0       0       0
      Totals:         0       0       0       0       0       0       0       0       0       0       0       0       0       0       0       0       0
Total ram usage:        0 bytes
 Hardware stack levels used:    1
 Hardware stack levels required when called:   16
 This function calls:
		Nothing
 This function is called by:
		_AlarmCheckTask
 This function uses a non-reentrant model


 *************** function _VAboveMaxAlarm *****************
 Defined at:
		line 212 in file "alarm.c"
 Parameters:    Size  Location     Type
		None
 Auto vars:     Size  Location     Type
		None
 Return value:  Size  Location     Type
                  1    wreg      _Bool 
 Registers used:
		wreg, status,2
 Tracked objects:
		On entry : 
		On exit  : 
		Unchanged: 
 Data sizes:     COMRAM   BANK0   BANK1   BANK2   BANK3   BANK4   BANK5   BANK6   BANK7   BANK8   BANK9  BANK10  BANK11  BANK12  BANK13  BANK14  BANK15
      Params:         0       0       0       0       0       0       0       0       0       0       0       0       0       0       0       0       0
      Locals:         0       0       0       0       0       0       0       0       0       0       0       0       0       0       0       0       0
      Temps:          0       0       0       0       0       0       0       0       0       0       0       0       0       0       0       0       0
      Totals:         0       0       0       0       0       0       0       0       0       0       0       0       0       0       0       0       0
Total ram usage:        0 bytes
 Hardware stack levels used:    1
 Hardware stack levels required when called:   16
 This function calls:
		Nothing
 This function is called by:
		_AlarmCheckTask
 This function uses a non-reentrant model


 *************** function _TdeTooLongAlarm *****************
 Defined at:
		line 206 in file "alarm.c"
 Parameters:    Size  Location     Type
		None
 Auto vars:     Size  Location     Type
		None
 Return value:  Size  Location     Type
                  1    wreg      _Bool 
 Registers used:
		wreg, status,2
 Tracked objects:
		On entry : 
		On exit  : 
		Unchanged: 
 Data sizes:     COMRAM   BANK0   BANK1   BANK2   BANK3   BANK4   BANK5   BANK6   BANK7   BANK8   BANK9  BANK10  BANK11  BANK12  BANK13  BANK14  BANK15
      Params:         0       0       0       0       0       0       0       0       0       0       0       0       0       0       0       0       0
      Locals:         0       0       0       0       0       0       0       0       0       0       0       0       0       0       0       0       0
      Temps:          0       0       0       0       0       0       0       0       0       0       0       0       0       0       0       0       0
      Totals:         0       0       0       0       0       0       0       0       0       0       0       0       0       0       0       0       0
Total ram usage:        0 bytes
 Hardware stack levels used:    1
 Hardware stack levels required when called:   16
 This function calls:
		Nothing
 This function is called by:
		_AlarmCheckTask
 This function uses a non-reentrant model


 *************** function _TdiTooLongAlarm *****************
 Defined at:
		line 200 in file "alarm.c"
 Parameters:    Size  Location     Type
		None
 Auto vars:     Size  Location     Type
		None
 Return value:  Size  Location     Type
                  1    wreg      _Bool 
 Registers used:
		wreg, status,2
 Tracked objects:
		On entry : 
		On exit  : 
		Unchanged: 
 Data sizes:     COMRAM   BANK0   BANK1   BANK2   BANK3   BANK4   BANK5   BANK6   BANK7   BANK8   BANK9  BANK10  BANK11  BANK12  BANK13  BANK14  BANK15
      Params:         0       0       0       0       0       0       0       0       0       0       0       0       0       0       0       0       0
      Locals:         0       0       0       0       0       0       0       0       0       0       0       0       0       0       0       0       0
      Temps:          0       0       0       0       0       0       0       0       0       0       0       0       0       0       0       0       0
      Totals:         0       0       0       0       0       0       0       0       0       0       0       0       0       0       0       0       0
Total ram usage:        0 bytes
 Hardware stack levels used:    1
 Hardware stack levels required when called:   16
 This function calls:
		Nothing
 This function is called by:
		_AlarmCheckTask
 This function uses a non-reentrant model


 *************** function _IPAboveSetAlarm *****************
 Defined at:
		line 196 in file "alarm.c"
 Parameters:    Size  Location     Type
		None
 Auto vars:     Size  Location     Type
		None
 Return value:  Size  Location     Type
                  1    wreg      _Bool 
 Registers used:
		wreg, status,2, status,0
 Tracked objects:
		On entry : 
		On exit  : 
		Unchanged: 
 Data sizes:     COMRAM   BANK0   BANK1   BANK2   BANK3   BANK4   BANK5   BANK6   BANK7   BANK8   BANK9  BANK10  BANK11  BANK12  BANK13  BANK14  BANK15
      Params:         0       0       0       0       0       0       0       0       0       0       0       0       0       0       0       0       0
      Locals:         0       0       0       0       0       0       0       0       0       0       0       0       0       0       0       0       0
      Temps:          0       0       0       0       0       0       0       0       0       0       0       0       0       0       0       0       0
      Totals:         0       0       0       0       0       0       0       0       0       0       0       0       0       0       0       0       0
Total ram usage:        0 bytes
 Hardware stack levels used:    1
 Hardware stack levels required when called:   16
 This function calls:
		Nothing
 This function is called by:
		_AlarmCheckTask
 This function uses a non-reentrant model


 *************** function _IPBelowSetAlarm *****************
 Defined at:
		line 192 in file "alarm.c"
 Parameters:    Size  Location     Type
		None
 Auto vars:     Size  Location     Type
		None
 Return value:  Size  Location     Type
                  1    wreg      _Bool 
 Registers used:
		wreg, status,2, status,0
 Tracked objects:
		On entry : 
		On exit  : 
		Unchanged: 
 Data sizes:     COMRAM   BANK0   BANK1   BANK2   BANK3   BANK4   BANK5   BANK6   BANK7   BANK8   BANK9  BANK10  BANK11  BANK12  BANK13  BANK14  BANK15
      Params:         0       0       0       0       0       0       0       0       0       0       0       0       0       0       0       0       0
      Locals:         0       0       0       0       0       0       0       0       0       0       0       0       0       0       0       0       0
      Temps:          0       0       0       0       0       0       0       0       0       0       0       0       0       0       0       0       0
      Totals:         0       0       0       0       0       0       0       0       0       0       0       0       0       0       0       0       0
Total ram usage:        0 bytes
 Hardware stack levels used:    1
 Hardware stack levels required when called:   16
 This function calls:
		Nothing
 This function is called by:
		_AlarmCheckTask
 This function uses a non-reentrant model


 *************** function _EPAboveSetAlarm *****************
 Defined at:
		line 188 in file "alarm.c"
 Parameters:    Size  Location     Type
		None
 Auto vars:     Size  Location     Type
		None
 Return value:  Size  Location     Type
                  1    wreg      _Bool 
 Registers used:
		wreg, status,2, status,0
 Tracked objects:
		On entry : 
		On exit  : 
		Unchanged: 
 Data sizes:     COMRAM   BANK0   BANK1   BANK2   BANK3   BANK4   BANK5   BANK6   BANK7   BANK8   BANK9  BANK10  BANK11  BANK12  BANK13  BANK14  BANK15
      Params:         0       0       0       0       0       0       0       0       0       0       0       0       0       0       0       0       0
      Locals:         0       0       0       0       0       0       0       0       0       0       0       0       0       0       0       0       0
      Temps:          0       0       0       0       0       0       0       0       0       0       0       0       0       0       0       0       0
      Totals:         0       0       0       0       0       0       0       0       0       0       0       0       0       0       0       0       0
Total ram usage:        0 bytes
 Hardware stack levels used:    1
 Hardware stack levels required when called:   16
 This function calls:
		Nothing
 This function is called by:
		_AlarmCheckTask
 This function uses a non-reentrant model


 *************** function _EPBelowSetAlarm *****************
 Defined at:
		line 184 in file "alarm.c"
 Parameters:    Size  Location     Type
		None
 Auto vars:     Size  Location     Type
		None
 Return value:  Size  Location     Type
                  1    wreg      _Bool 
 Registers used:
		wreg, status,2, status,0
 Tracked objects:
		On entry : 
		On exit  : 
		Unchanged: 
 Data sizes:     COMRAM   BANK0   BANK1   BANK2   BANK3   BANK4   BANK5   BANK6   BANK7   BANK8   BANK9  BANK10  BANK11  BANK12  BANK13  BANK14  BANK15
      Params:         0       0       0       0       0       0       0       0       0       0       0       0       0       0       0       0       0
      Locals:         0       0       0       0       0       0       0       0       0       0       0       0       0       0       0       0       0
      Temps:          0       0       0       0       0       0       0       0       0       0       0       0       0       0       0       0       0
      Totals:         0       0       0       0       0       0       0       0       0       0       0       0       0       0       0       0       0
Total ram usage:        0 bytes
 Hardware stack levels used:    1
 Hardware stack levels required when called:   16
 This function calls:
		Nothing
 This function is called by:
		_AlarmCheckTask
 This function uses a non-reentrant model


 *************** function _BaterryLowAlarmHigh *****************
 Defined at:
		line 183 in file "alarm.c"
 Parameters:    Size  Location     Type
		None
 Auto vars:     Size  Location     Type
		None
 Return value:  Size  Location     Type
                  1    wreg      _Bool 
 Registers used:
		wreg, status,2
 Tracked objects:
		On entry : 
		On exit  : 
		Unchanged: 
 Data sizes:     COMRAM   BANK0   BANK1   BANK2   BANK3   BANK4   BANK5   BANK6   BANK7   BANK8   BANK9  BANK10  BANK11  BANK12  BANK13  BANK14  BANK15
      Params:         0       0       0       0       0       0       0       0       0       0       0       0       0       0       0       0       0
      Locals:         0       0       0       0       0       0       0       0       0       0       0       0       0       0       0       0       0
      Temps:          0       0       0       0       0       0       0       0       0       0       0       0       0       0       0       0       0
      Totals:         0       0       0       0       0       0       0       0       0       0       0       0       0       0       0       0       0
Total ram usage:        0 bytes
 Hardware stack levels used:    1
 Hardware stack levels required when called:   16
 This function calls:
		Nothing
 This function is called by:
		_AlarmCheckTask
 This function uses a non-reentrant model


 *************** function _BaterryLowAlarmMed *****************
 Defined at:
		line 182 in file "alarm.c"
 Parameters:    Size  Location     Type
		None
 Auto vars:     Size  Location     Type
		None
 Return value:  Size  Location     Type
                  1    wreg      _Bool 
 Registers used:
		wreg, status,2
 Tracked objects:
		On entry : 
		On exit  : 
		Unchanged: 
 Data sizes:     COMRAM   BANK0   BANK1   BANK2   BANK3   BANK4   BANK5   BANK6   BANK7   BANK8   BANK9  BANK10  BANK11  BANK12  BANK13  BANK14  BANK15
      Params:         0       0       0       0       0       0       0       0       0       0       0       0       0       0       0       0       0
      Locals:         0       0       0       0       0       0       0       0       0       0       0       0       0       0       0       0       0
      Temps:          0       0       0       0       0       0       0       0       0       0       0       0       0       0       0       0       0
      Totals:         0       0       0       0       0       0       0       0       0       0       0       0       0       0       0       0       0
Total ram usage:        0 bytes
 Hardware stack levels used:    1
 Hardware stack levels required when called:   16
 This function calls:
		Nothing
 This function is called by:
		_AlarmCheckTask
 This function uses a non-reentrant model


 *************** function _CircuitFailureAlarm *****************
 Defined at:
		line 179 in file "alarm.c"
 Parameters:    Size  Location     Type
		None
 Auto vars:     Size  Location     Type
		None
 Return value:  Size  Location     Type
                  1    wreg      _Bool 
 Registers used:
		wreg, status,2
 Tracked objects:
		On entry : 
		On exit  : 
		Unchanged: 
 Data sizes:     COMRAM   BANK0   BANK1   BANK2   BANK3   BANK4   BANK5   BANK6   BANK7   BANK8   BANK9  BANK10  BANK11  BANK12  BANK13  BANK14  BANK15
      Params:         0       0       0       0       0       0       0       0       0       0       0       0       0       0       0       0       0
      Locals:         0       0       0       0       0       0       0       0       0       0       0       0       0       0       0       0       0
      Temps:          0       0       0       0       0       0       0       0       0       0       0       0       0       0       0       0       0
      Totals:         0       0       0       0       0       0       0       0       0       0       0       0       0       0       0       0       0
Total ram usage:        0 bytes
 Hardware stack levels used:    1
 Hardware stack levels required when called:   16
 This function calls:
		Nothing
 This function is called by:
		_MuteAlarm
		i2_MuteAlarm
		_AlarmCheckTask
 This function uses a non-reentrant model


 *************** function _HighPressureAlarmHigh *****************
 Defined at:
		line 172 in file "alarm.c"
 Parameters:    Size  Location     Type
		None
 Auto vars:     Size  Location     Type
		None
 Return value:  Size  Location     Type
                  1    wreg      _Bool 
 Registers used:
		wreg, status,2
 Tracked objects:
		On entry : 
		On exit  : 
		Unchanged: 
 Data sizes:     COMRAM   BANK0   BANK1   BANK2   BANK3   BANK4   BANK5   BANK6   BANK7   BANK8   BANK9  BANK10  BANK11  BANK12  BANK13  BANK14  BANK15
      Params:         0       0       0       0       0       0       0       0       0       0       0       0       0       0       0       0       0
      Locals:         0       0       0       0       0       0       0       0       0       0       0       0       0       0       0       0       0
      Temps:          0       0       0       0       0       0       0       0       0       0       0       0       0       0       0       0       0
      Totals:         0       0       0       0       0       0       0       0       0       0       0       0       0       0       0       0       0
Total ram usage:        0 bytes
 Hardware stack levels used:    1
 Hardware stack levels required when called:   16
 This function calls:
		Nothing
 This function is called by:
		_MuteAlarm
		i2_MuteAlarm
		_AlarmCheckTask
 This function uses a non-reentrant model


 *************** function _HighPressureAlarmLow *****************
 Defined at:
		line 146 in file "alarm.c"
 Parameters:    Size  Location     Type
		None
 Auto vars:     Size  Location     Type
  max             2   23[BANK1 ] short 
 Return value:  Size  Location     Type
                  1    wreg      _Bool 
 Registers used:
		wreg, status,2, status,0, cstack
 Tracked objects:
		On entry : 
		On exit  : 
		Unchanged: 
 Data sizes:     COMRAM   BANK0   BANK1   BANK2   BANK3   BANK4   BANK5   BANK6   BANK7   BANK8   BANK9  BANK10  BANK11  BANK12  BANK13  BANK14  BANK15
      Params:         0       0       0       0       0       0       0       0       0       0       0       0       0       0       0       0       0
      Locals:         0       0       2       0       0       0       0       0       0       0       0       0       0       0       0       0       0
      Temps:          0       0       1       0       0       0       0       0       0       0       0       0       0       0       0       0       0
      Totals:         0       0       3       0       0       0       0       0       0       0       0       0       0       0       0       0       0
Total ram usage:        3 bytes
 Hardware stack levels used:    1
 Hardware stack levels required when called:   18
 This function calls:
		_GetMaxPressure
		_SetHighPressureAlarmHigh
		_SetVeryHighPressureAlarmHigh
 This function is called by:
		_AlarmCheckTask
 This function uses a non-reentrant model


 *************** function _GasFailureAlarm *****************
 Defined at:
		line 143 in file "alarm.c"
 Parameters:    Size  Location     Type
		None
 Auto vars:     Size  Location     Type
		None
 Return value:  Size  Location     Type
                  1    wreg      _Bool 
 Registers used:
		wreg, status,2
 Tracked objects:
		On entry : 
		On exit  : 
		Unchanged: 
 Data sizes:     COMRAM   BANK0   BANK1   BANK2   BANK3   BANK4   BANK5   BANK6   BANK7   BANK8   BANK9  BANK10  BANK11  BANK12  BANK13  BANK14  BANK15
      Params:         0       0       0       0       0       0       0       0       0       0       0       0       0       0       0       0       0
      Locals:         0       0       0       0       0       0       0       0       0       0       0       0       0       0       0       0       0
      Temps:          0       0       0       0       0       0       0       0       0       0       0       0       0       0       0       0       0
      Totals:         0       0       0       0       0       0       0       0       0       0       0       0       0       0       0       0       0
Total ram usage:        0 bytes
 Hardware stack levels used:    1
 Hardware stack levels required when called:   16
 This function calls:
		Nothing
 This function is called by:
		_MuteAlarm
		i2_MuteAlarm
		_AlarmCheckTask
 This function uses a non-reentrant model


 *************** function _ControlFailAlarm *****************
 Defined at:
		line 136 in file "alarm.c"
 Parameters:    Size  Location     Type
		None
 Auto vars:     Size  Location     Type
		None
 Return value:  Size  Location     Type
                  1    wreg      _Bool 
 Registers used:
		wreg, status,2
 Tracked objects:
		On entry : 
		On exit  : 
		Unchanged: 
 Data sizes:     COMRAM   BANK0   BANK1   BANK2   BANK3   BANK4   BANK5   BANK6   BANK7   BANK8   BANK9  BANK10  BANK11  BANK12  BANK13  BANK14  BANK15
      Params:         0       0       0       0       0       0       0       0       0       0       0       0       0       0       0       0       0
      Locals:         0       0       0       0       0       0       0       0       0       0       0       0       0       0       0       0       0
      Temps:          0       0       0       0       0       0       0       0       0       0       0       0       0       0       0       0       0
      Totals:         0       0       0       0       0       0       0       0       0       0       0       0       0       0       0       0       0
Total ram usage:        0 bytes
 Hardware stack levels used:    1
 Hardware stack levels required when called:   16
 This function calls:
		Nothing
 This function is called by:
		_MuteAlarm
		i2_MuteAlarm
		_AlarmCheckTask
 This function uses a non-reentrant model


 *************** function _MonitorFailAlarm *****************
 Defined at:
		line 107 in file "alarm.c"
 Parameters:    Size  Location     Type
		None
 Auto vars:     Size  Location     Type
  v5              2  132[BANK1 ] short 
 Return value:  Size  Location     Type
                  1    wreg      _Bool 
 Registers used:
		wreg, fsr1l, fsr1h, fsr2l, fsr2h, status,2, status,0, tblptrl, tblptrh, tblptru, prodl, prodh, cstack
 Tracked objects:
		On entry : 
		On exit  : 
		Unchanged: 
 Data sizes:     COMRAM   BANK0   BANK1   BANK2   BANK3   BANK4   BANK5   BANK6   BANK7   BANK8   BANK9  BANK10  BANK11  BANK12  BANK13  BANK14  BANK15
      Params:         0       0       0       0       0       0       0       0       0       0       0       0       0       0       0       0       0
      Locals:         0       0       3       0       0       0       0       0       0       0       0       0       0       0       0       0       0
      Temps:          0       0       0       0       0       0       0       0       0       0       0       0       0       0       0       0       0
      Totals:         0       0       3       0       0       0       0       0       0       0       0       0       0       0       0       0       0
Total ram usage:        3 bytes
 Hardware stack levels used:    1
 Hardware stack levels required when called:   25
 This function calls:
		_AdcDataReady
		_Get5V
		_printf
 This function is called by:
		_MuteAlarm
		i2_MuteAlarm
		_AlarmCheckTask
 This function uses a non-reentrant model


 *************** function _BatteryFailAlarm *****************
 Defined at:
		line 58 in file "alarm.c"
 Parameters:    Size  Location     Type
		None
 Auto vars:     Size  Location     Type
  bat             2   40[BANK1 ] short 
 Return value:  Size  Location     Type
                  1    wreg      _Bool 
 Registers used:
		wreg, fsr2l, fsr2h, status,2, status,0, prodl, prodh, cstack
 Tracked objects:
		On entry : 
		On exit  : 
		Unchanged: 
 Data sizes:     COMRAM   BANK0   BANK1   BANK2   BANK3   BANK4   BANK5   BANK6   BANK7   BANK8   BANK9  BANK10  BANK11  BANK12  BANK13  BANK14  BANK15
      Params:         0       0       0       0       0       0       0       0       0       0       0       0       0       0       0       0       0
      Locals:         0       0       2       0       0       0       0       0       0       0       0       0       0       0       0       0       0
      Temps:          0       0       0       0       0       0       0       0       0       0       0       0       0       0       0       0       0
      Totals:         0       0       2       0       0       0       0       0       0       0       0       0       0       0       0       0       0
Total ram usage:        2 bytes
 Hardware stack levels used:    1
 Hardware stack levels required when called:   19
 This function calls:
		_AdcDataReady
		_ClearBaterryLowAlarmHigh
		_ClearBaterryLowAlarmMed
		_ClearBatteryFailAlarm
		_ClearNoPowerSupplyAlarm
		_Get12V
		_SetBaterryLowAlarmHigh
		_SetBaterryLowAlarmMed
		_SetBatteryFailAlarm
		_SetNoPowerSupplyAlarm
 This function is called by:
		_AlarmCheckTask
 This function uses a non-reentrant model


 *************** function _VeryHighPressureAlarmHigh *****************
 Defined at:
		line 176 in file "alarm.c"
 Parameters:    Size  Location     Type
		None
 Auto vars:     Size  Location     Type
		None
 Return value:  Size  Location     Type
                  1    wreg      _Bool 
 Registers used:
		wreg, status,2
 Tracked objects:
		On entry : 
		On exit  : 
		Unchanged: 
 Data sizes:     COMRAM   BANK0   BANK1   BANK2   BANK3   BANK4   BANK5   BANK6   BANK7   BANK8   BANK9  BANK10  BANK11  BANK12  BANK13  BANK14  BANK15
      Params:         0       0       0       0       0       0       0       0       0       0       0       0       0       0       0       0       0
      Locals:         0       0       0       0       0       0       0       0       0       0       0       0       0       0       0       0       0
      Temps:          0       0       0       0       0       0       0       0       0       0       0       0       0       0       0       0       0
      Totals:         0       0       0       0       0       0       0       0       0       0       0       0       0       0       0       0       0
Total ram usage:        0 bytes
 Hardware stack levels used:    1
 Hardware stack levels required when called:   16
 This function calls:
		Nothing
 This function is called by:
		_MuteAlarm
		i2_MuteAlarm
		_AlarmCheckTask
 This function uses a non-reentrant model


 *************** function _SetAlarmSV1 *****************
 Defined at:
		line 883 in file "monitor.c"
 Parameters:    Size  Location     Type
  value           1    wreg     _Bool 
 Auto vars:     Size  Location     Type
  value           1  131[BANK1 ] _Bool 
 Return value:  Size  Location     Type
                  1    wreg      void 
 Registers used:
		wreg, fsr1l, fsr1h, fsr2l, fsr2h, status,2, status,0, tblptrl, tblptrh, tblptru, prodl, prodh, cstack
 Tracked objects:
		On entry : 
		On exit  : 
		Unchanged: 
 Data sizes:     COMRAM   BANK0   BANK1   BANK2   BANK3   BANK4   BANK5   BANK6   BANK7   BANK8   BANK9  BANK10  BANK11  BANK12  BANK13  BANK14  BANK15
      Params:         0       0       0       0       0       0       0       0       0       0       0       0       0       0       0       0       0
      Locals:         0       0       1       0       0       0       0       0       0       0       0       0       0       0       0       0       0
      Temps:          0       0       0       0       0       0       0       0       0       0       0       0       0       0       0       0       0
      Totals:         0       0       1       0       0       0       0       0       0       0       0       0       0       0       0       0       0
Total ram usage:        1 bytes
 Hardware stack levels used:    1
 Hardware stack levels required when called:   25
 This function calls:
		_printf
 This function is called by:
		_main
		_MuteAlarm
		_AlarmCheckTask
 This function uses a non-reentrant model


 *************** function _SetAlarmLED *****************
 Defined at:
		line 88 in file "buttons.c"
 Parameters:    Size  Location     Type
  type            1    wreg     unsigned char 
 Auto vars:     Size  Location     Type
  type            1    4[BANK1 ] unsigned char 
 Return value:  Size  Location     Type
                  1    wreg      void 
 Registers used:
		wreg
 Tracked objects:
		On entry : 
		On exit  : 
		Unchanged: 
 Data sizes:     COMRAM   BANK0   BANK1   BANK2   BANK3   BANK4   BANK5   BANK6   BANK7   BANK8   BANK9  BANK10  BANK11  BANK12  BANK13  BANK14  BANK15
      Params:         0       0       0       0       0       0       0       0       0       0       0       0       0       0       0       0       0
      Locals:         0       0       1       0       0       0       0       0       0       0       0       0       0       0       0       0       0
      Temps:          0       0       0       0       0       0       0       0       0       0       0       0       0       0       0       0       0
      Totals:         0       0       1       0       0       0       0       0       0       0       0       0       0       0       0       0       0
Total ram usage:        1 bytes
 Hardware stack levels used:    1
 Hardware stack levels required when called:   16
 This function calls:
		Nothing
 This function is called by:
		_AlarmCheckTask
 This function uses a non-reentrant model


 *************** function _Get5V *****************
 Defined at:
		line 849 in file "monitor.c"
 Parameters:    Size  Location     Type
		None
 Auto vars:     Size  Location     Type
  mv              4   32[BANK1 ] long 
  v12             2   38[BANK1 ] short 
  adc             2   36[BANK1 ] unsigned short 
 Return value:  Size  Location     Type
                  2   30[BANK1 ] short 
 Registers used:
		wreg, fsr2l, fsr2h, status,2, status,0, prodl, prodh, cstack
 Tracked objects:
		On entry : 
		On exit  : 
		Unchanged: 
 Data sizes:     COMRAM   BANK0   BANK1   BANK2   BANK3   BANK4   BANK5   BANK6   BANK7   BANK8   BANK9  BANK10  BANK11  BANK12  BANK13  BANK14  BANK15
      Params:         0       0       2       0       0       0       0       0       0       0       0       0       0       0       0       0       0
      Locals:         0       0       8       0       0       0       0       0       0       0       0       0       0       0       0       0       0
      Temps:          0       0       0       0       0       0       0       0       0       0       0       0       0       0       0       0       0
      Totals:         0       0      10       0       0       0       0       0       0       0       0       0       0       0       0       0       0
Total ram usage:       10 bytes
 Hardware stack levels used:    1
 Hardware stack levels required when called:   18
 This function calls:
		_AdcGetData
		___aldiv
 This function is called by:
		_MonitorFailAlarm
 This function uses a non-reentrant model


 *************** function _SetVeryHighPressureAlarmHigh *****************
 Defined at:
		line 233 in file "alarm.c"
 Parameters:    Size  Location     Type
		None
 Auto vars:     Size  Location     Type
		None
 Return value:  Size  Location     Type
                  1    wreg      void 
 Registers used:
		wreg, status,2
 Tracked objects:
		On entry : 
		On exit  : 
		Unchanged: 
 Data sizes:     COMRAM   BANK0   BANK1   BANK2   BANK3   BANK4   BANK5   BANK6   BANK7   BANK8   BANK9  BANK10  BANK11  BANK12  BANK13  BANK14  BANK15
      Params:         0       0       0       0       0       0       0       0       0       0       0       0       0       0       0       0       0
      Locals:         0       0       0       0       0       0       0       0       0       0       0       0       0       0       0       0       0
      Temps:          0       0       0       0       0       0       0       0       0       0       0       0       0       0       0       0       0
      Totals:         0       0       0       0       0       0       0       0       0       0       0       0       0       0       0       0       0
Total ram usage:        0 bytes
 Hardware stack levels used:    1
 Hardware stack levels required when called:   16
 This function calls:
		Nothing
 This function is called by:
		_HighPressureAlarmLow
 This function uses a non-reentrant model


 *************** function _SetHighPressureAlarmHigh *****************
 Defined at:
		line 232 in file "alarm.c"
 Parameters:    Size  Location     Type
		None
 Auto vars:     Size  Location     Type
		None
 Return value:  Size  Location     Type
                  1    wreg      void 
 Registers used:
		wreg, status,2
 Tracked objects:
		On entry : 
		On exit  : 
		Unchanged: 
 Data sizes:     COMRAM   BANK0   BANK1   BANK2   BANK3   BANK4   BANK5   BANK6   BANK7   BANK8   BANK9  BANK10  BANK11  BANK12  BANK13  BANK14  BANK15
      Params:         0       0       0       0       0       0       0       0       0       0       0       0       0       0       0       0       0
      Locals:         0       0       0       0       0       0       0       0       0       0       0       0       0       0       0       0       0
      Temps:          0       0       0       0       0       0       0       0       0       0       0       0       0       0       0       0       0
      Totals:         0       0       0       0       0       0       0       0       0       0       0       0       0       0       0       0       0
Total ram usage:        0 bytes
 Hardware stack levels used:    1
 Hardware stack levels required when called:   16
 This function calls:
		Nothing
 This function is called by:
		_HighPressureAlarmLow
 This function uses a non-reentrant model


 *************** function _GetMaxPressure *****************
 Defined at:
		line 171 in file "monitor.c"
 Parameters:    Size  Location     Type
		None
 Auto vars:     Size  Location     Type
  temp            2   20[BANK1 ] int 
 Return value:  Size  Location     Type
                  2   18[BANK1 ] short 
 Registers used:
		wreg, status,2, status,0, cstack
 Tracked objects:
		On entry : 
		On exit  : 
		Unchanged: 
 Data sizes:     COMRAM   BANK0   BANK1   BANK2   BANK3   BANK4   BANK5   BANK6   BANK7   BANK8   BANK9  BANK10  BANK11  BANK12  BANK13  BANK14  BANK15
      Params:         0       0       2       0       0       0       0       0       0       0       0       0       0       0       0       0       0
      Locals:         0       0       2       0       0       0       0       0       0       0       0       0       0       0       0       0       0
      Temps:          0       0       0       0       0       0       0       0       0       0       0       0       0       0       0       0       0
      Totals:         0       0       4       0       0       0       0       0       0       0       0       0       0       0       0       0       0
Total ram usage:        4 bytes
 Hardware stack levels used:    1
 Hardware stack levels required when called:   17
 This function calls:
		___awdiv
 This function is called by:
		_HighPressureAlarmLow
 This function uses a non-reentrant model


 *************** function _ClearAlarmLED *****************
 Defined at:
		line 93 in file "buttons.c"
 Parameters:    Size  Location     Type
		None
 Auto vars:     Size  Location     Type
		None
 Return value:  Size  Location     Type
                  1    wreg      void 
 Registers used:
		wreg, status,2
 Tracked objects:
		On entry : 
		On exit  : 
		Unchanged: 
 Data sizes:     COMRAM   BANK0   BANK1   BANK2   BANK3   BANK4   BANK5   BANK6   BANK7   BANK8   BANK9  BANK10  BANK11  BANK12  BANK13  BANK14  BANK15
      Params:         0       0       0       0       0       0       0       0       0       0       0       0       0       0       0       0       0
      Locals:         0       0       0       0       0       0       0       0       0       0       0       0       0       0       0       0       0
      Temps:          0       0       0       0       0       0       0       0       0       0       0       0       0       0       0       0       0
      Totals:         0       0       0       0       0       0       0       0       0       0       0       0       0       0       0       0       0
Total ram usage:        0 bytes
 Hardware stack levels used:    1
 Hardware stack levels required when called:   16
 This function calls:
		Nothing
 This function is called by:
		_AlarmCheckTask
 This function uses a non-reentrant model


 *************** function _BuzzerSet *****************
 Defined at:
		line 64 in file "buzzer.c"
 Parameters:    Size  Location     Type
  state           1    wreg     unsigned char 
 Auto vars:     Size  Location     Type
  state           1  133[BANK1 ] unsigned char 
 Return value:  Size  Location     Type
                  1    wreg      void 
 Registers used:
		wreg, fsr1l, fsr1h, fsr2l, fsr2h, status,2, status,0, tblptrl, tblptrh, tblptru, prodl, prodh, cstack
 Tracked objects:
		On entry : 
		On exit  : 
		Unchanged: 
 Data sizes:     COMRAM   BANK0   BANK1   BANK2   BANK3   BANK4   BANK5   BANK6   BANK7   BANK8   BANK9  BANK10  BANK11  BANK12  BANK13  BANK14  BANK15
      Params:         0       0       0       0       0       0       0       0       0       0       0       0       0       0       0       0       0
      Locals:         0       0       1       0       0       0       0       0       0       0       0       0       0       0       0       0       0
      Temps:          0       0       0       0       0       0       0       0       0       0       0       0       0       0       0       0       0
      Totals:         0       0       1       0       0       0       0       0       0       0       0       0       0       0       0       0       0
Total ram usage:        1 bytes
 Hardware stack levels used:    1
 Hardware stack levels required when called:   26
 This function calls:
		_BuzzerOff
		_BuzzerTask
 This function is called by:
		_AlarmCheckTask
 This function uses a non-reentrant model


 *************** function _BuzzerTask *****************
 Defined at:
		line 132 in file "buzzer.c"
 Parameters:    Size  Location     Type
		None
 Auto vars:     Size  Location     Type
		None
 Return value:  Size  Location     Type
                  1    wreg      void 
 Registers used:
		wreg, fsr1l, fsr1h, fsr2l, fsr2h, status,2, status,0, tblptrl, tblptrh, tblptru, prodl, prodh, cstack
 Tracked objects:
		On entry : 
		On exit  : 
		Unchanged: 
 Data sizes:     COMRAM   BANK0   BANK1   BANK2   BANK3   BANK4   BANK5   BANK6   BANK7   BANK8   BANK9  BANK10  BANK11  BANK12  BANK13  BANK14  BANK15
      Params:         0       0       0       0       0       0       0       0       0       0       0       0       0       0       0       0       0
      Locals:         0       0       0       0       0       0       0       0       0       0       0       0       0       0       0       0       0
      Temps:          0       0       2       0       0       0       0       0       0       0       0       0       0       0       0       0       0
      Totals:         0       0       2       0       0       0       0       0       0       0       0       0       0       0       0       0       0
Total ram usage:        2 bytes
 Hardware stack levels used:    1
 Hardware stack levels required when called:   25
 This function calls:
		_BuzzerOff
		_BuzzerOn
		_ClearMonitorFailAlarm
		_SetMonitorFailAlarm
		_TMR4_Period8BitSet
		_TMR4_SetInterruptHandler
		_TMR4_Start
		_TMR4_Stop
		_printf
 This function is called by:
		_BuzzerSet
 This function uses a non-reentrant model


 *************** function _printf *****************
 Defined at:
		line 5 in file "/Applications/microchip/xc8/v2.10/pic/sources/c99/common/printf.c"
 Parameters:    Size  Location     Type
  fmt             2  113[BANK1 ] PTR const unsigned char 
		 -> STR_55(4), STR_54(4), STR_53(15), STR_52(16), 
		 -> STR_51(32), STR_50(32), STR_49(13), STR_48(12), 
		 -> STR_47(14), STR_46(4), STR_45(4), STR_44(2), 
		 -> STR_43(10), STR_42(4), STR_41(55), STR_40(53), 
		 -> STR_39(43), STR_38(54), STR_37(40), STR_36(36), 
		 -> STR_35(41), STR_34(32), STR_33(65), STR_32(4), 
		 -> STR_31(12), STR_30(4), STR_25(5), STR_24(3), 
		 -> STR_23(7), STR_22(18), STR_21(15), STR_20(15), 
		 -> STR_19(12), STR_18(5), STR_17(5), STR_16(5), 
		 -> STR_15(5), STR_14(19), STR_4(45), STR_3(4), 
		 -> STR_2(15), STR_1(13), 
 Auto vars:     Size  Location     Type
  ap              2  129[BANK1 ] PTR void [1]
		 -> ?_printf(2), ?_sprintf(2), 
  ret             2    0        int 
 Return value:  Size  Location     Type
                  2  113[BANK1 ] int 
 Registers used:
		wreg, fsr1l, fsr1h, fsr2l, fsr2h, status,2, status,0, tblptrl, tblptrh, tblptru, prodl, prodh, cstack
 Tracked objects:
		On entry : 
		On exit  : 
		Unchanged: 
 Data sizes:     COMRAM   BANK0   BANK1   BANK2   BANK3   BANK4   BANK5   BANK6   BANK7   BANK8   BANK9  BANK10  BANK11  BANK12  BANK13  BANK14  BANK15
      Params:         0       0      14       0       0       0       0       0       0       0       0       0       0       0       0       0       0
      Locals:         0       0       4       0       0       0       0       0       0       0       0       0       0       0       0       0       0
      Temps:          0       0       0       0       0       0       0       0       0       0       0       0       0       0       0       0       0
      Totals:         0       0      18       0       0       0       0       0       0       0       0       0       0       0       0       0       0
Total ram usage:       18 bytes
 Hardware stack levels used:    1
 Hardware stack levels required when called:   24
 This function calls:
		_vfprintf
 This function is called by:
		_main
		_BuzzerTask
		_BuzzerCheck
		_MonitorFailAlarm
		_TestAlarm
		_MuteAlarm
		_MonitorDump
		_SetCalibrateState
		_SetAlarmSV1
		_SetSV1
 This function uses a non-reentrant model


 *************** function _TMR4_Start *****************
 Defined at:
		line 108 in file "mcc_generated_files/tmr4.c"
 Parameters:    Size  Location     Type
		None
 Auto vars:     Size  Location     Type
		None
 Return value:  Size  Location     Type
                  1    wreg      void 
 Registers used:
		None
 Tracked objects:
		On entry : 
		On exit  : 
		Unchanged: 
 Data sizes:     COMRAM   BANK0   BANK1   BANK2   BANK3   BANK4   BANK5   BANK6   BANK7   BANK8   BANK9  BANK10  BANK11  BANK12  BANK13  BANK14  BANK15
      Params:         0       0       0       0       0       0       0       0       0       0       0       0       0       0       0       0       0
      Locals:         0       0       0       0       0       0       0       0       0       0       0       0       0       0       0       0       0
      Temps:          0       0       0       0       0       0       0       0       0       0       0       0       0       0       0       0       0
      Totals:         0       0       0       0       0       0       0       0       0       0       0       0       0       0       0       0       0
Total ram usage:        0 bytes
 Hardware stack levels used:    1
 Hardware stack levels required when called:   16
 This function calls:
		Nothing
 This function is called by:
		_BuzzerTest
		_BuzzerTask
 This function uses a non-reentrant model


 *************** function _TMR4_SetInterruptHandler *****************
 Defined at:
		line 178 in file "mcc_generated_files/tmr4.c"
 Parameters:    Size  Location     Type
  InterruptHan    2    4[BANK1 ] PTR FTN()void 
		 -> BuzzerTestHandler(1), BuzzerHandler(1), TMR4_DefaultInterruptHandler(1), 
 Auto vars:     Size  Location     Type
		None
 Return value:  Size  Location     Type
                  1    wreg      void 
 Registers used:
		wreg, status,2, status,0
 Tracked objects:
		On entry : 
		On exit  : 
		Unchanged: 
 Data sizes:     COMRAM   BANK0   BANK1   BANK2   BANK3   BANK4   BANK5   BANK6   BANK7   BANK8   BANK9  BANK10  BANK11  BANK12  BANK13  BANK14  BANK15
      Params:         0       0       2       0       0       0       0       0       0       0       0       0       0       0       0       0       0
      Locals:         0       0       0       0       0       0       0       0       0       0       0       0       0       0       0       0       0
      Temps:          0       0       0       0       0       0       0       0       0       0       0       0       0       0       0       0       0
      Totals:         0       0       2       0       0       0       0       0       0       0       0       0       0       0       0       0       0
Total ram usage:        2 bytes
 Hardware stack levels used:    1
 Hardware stack levels required when called:   16
 This function calls:
		Nothing
 This function is called by:
		_TMR4_Initialize
		_BuzzerTest
		_BuzzerTask
		_BuzzerInit
 This function uses a non-reentrant model


 *************** function _TMR4_Period8BitSet *****************
 Defined at:
		line 155 in file "mcc_generated_files/tmr4.c"
 Parameters:    Size  Location     Type
  periodVal       1    wreg     unsigned char 
 Auto vars:     Size  Location     Type
  periodVal       1    4[BANK1 ] unsigned char 
 Return value:  Size  Location     Type
                  1    wreg      void 
 Registers used:
		wreg
 Tracked objects:
		On entry : 
		On exit  : 
		Unchanged: 
 Data sizes:     COMRAM   BANK0   BANK1   BANK2   BANK3   BANK4   BANK5   BANK6   BANK7   BANK8   BANK9  BANK10  BANK11  BANK12  BANK13  BANK14  BANK15
      Params:         0       0       0       0       0       0       0       0       0       0       0       0       0       0       0       0       0
      Locals:         0       0       1       0       0       0       0       0       0       0       0       0       0       0       0       0       0
      Temps:          0       0       0       0       0       0       0       0       0       0       0       0       0       0       0       0       0
      Totals:         0       0       1       0       0       0       0       0       0       0       0       0       0       0       0       0       0
Total ram usage:        1 bytes
 Hardware stack levels used:    1
 Hardware stack levels required when called:   16
 This function calls:
		Nothing
 This function is called by:
		_BuzzerTest
		_BuzzerTask
 This function uses a non-reentrant model


 *************** function _SetMonitorFailAlarm *****************
 Defined at:
		line 225 in file "alarm.c"
 Parameters:    Size  Location     Type
		None
 Auto vars:     Size  Location     Type
		None
 Return value:  Size  Location     Type
                  1    wreg      void 
 Registers used:
		wreg, status,2
 Tracked objects:
		On entry : 
		On exit  : 
		Unchanged: 
 Data sizes:     COMRAM   BANK0   BANK1   BANK2   BANK3   BANK4   BANK5   BANK6   BANK7   BANK8   BANK9  BANK10  BANK11  BANK12  BANK13  BANK14  BANK15
      Params:         0       0       0       0       0       0       0       0       0       0       0       0       0       0       0       0       0
      Locals:         0       0       0       0       0       0       0       0       0       0       0       0       0       0       0       0       0
      Temps:          0       0       0       0       0       0       0       0       0       0       0       0       0       0       0       0       0
      Totals:         0       0       0       0       0       0       0       0       0       0       0       0       0       0       0       0       0
Total ram usage:        0 bytes
 Hardware stack levels used:    1
 Hardware stack levels required when called:   16
 This function calls:
		Nothing
 This function is called by:
		_BuzzerTask
		_BuzzerCheck
 This function uses a non-reentrant model


 *************** function _ClearMonitorFailAlarm *****************
 Defined at:
		line 270 in file "alarm.c"
 Parameters:    Size  Location     Type
		None
 Auto vars:     Size  Location     Type
		None
 Return value:  Size  Location     Type
                  1    wreg      void 
 Registers used:
		wreg, status,2
 Tracked objects:
		On entry : 
		On exit  : 
		Unchanged: 
 Data sizes:     COMRAM   BANK0   BANK1   BANK2   BANK3   BANK4   BANK5   BANK6   BANK7   BANK8   BANK9  BANK10  BANK11  BANK12  BANK13  BANK14  BANK15
      Params:         0       0       0       0       0       0       0       0       0       0       0       0       0       0       0       0       0
      Locals:         0       0       0       0       0       0       0       0       0       0       0       0       0       0       0       0       0
      Temps:          0       0       0       0       0       0       0       0       0       0       0       0       0       0       0       0       0
      Totals:         0       0       0       0       0       0       0       0       0       0       0       0       0       0       0       0       0
Total ram usage:        0 bytes
 Hardware stack levels used:    1
 Hardware stack levels required when called:   16
 This function calls:
		Nothing
 This function is called by:
		_BuzzerTask
		_MuteAlarm
 This function uses a non-reentrant model


 *************** function _BuzzerOn *****************
 Defined at:
		line 446 in file "buzzer.c"
 Parameters:    Size  Location     Type
  period          1    wreg     unsigned char 
 Auto vars:     Size  Location     Type
  period          1    4[BANK1 ] unsigned char 
 Return value:  Size  Location     Type
                  1    wreg      void 
 Registers used:
		wreg, status,2, cstack
 Tracked objects:
		On entry : 
		On exit  : 
		Unchanged: 
 Data sizes:     COMRAM   BANK0   BANK1   BANK2   BANK3   BANK4   BANK5   BANK6   BANK7   BANK8   BANK9  BANK10  BANK11  BANK12  BANK13  BANK14  BANK15
      Params:         0       0       0       0       0       0       0       0       0       0       0       0       0       0       0       0       0
      Locals:         0       0       1       0       0       0       0       0       0       0       0       0       0       0       0       0       0
      Temps:          0       0       0       0       0       0       0       0       0       0       0       0       0       0       0       0       0
      Totals:         0       0       1       0       0       0       0       0       0       0       0       0       0       0       0       0       0
Total ram usage:        1 bytes
 Hardware stack levels used:    1
 Hardware stack levels required when called:   17
 This function calls:
		_CMP1_Enable
 This function is called by:
		_BuzzerTest
		_BuzzerTask
		_BuzzerCheck
 This function uses a non-reentrant model


 *************** function _CMP1_Enable *****************
 Defined at:
		line 104 in file "mcc_generated_files/cmp1.c"
 Parameters:    Size  Location     Type
		None
 Auto vars:     Size  Location     Type
		None
 Return value:  Size  Location     Type
                  1    wreg      void 
 Registers used:
		None
 Tracked objects:
		On entry : 
		On exit  : 
		Unchanged: 
 Data sizes:     COMRAM   BANK0   BANK1   BANK2   BANK3   BANK4   BANK5   BANK6   BANK7   BANK8   BANK9  BANK10  BANK11  BANK12  BANK13  BANK14  BANK15
      Params:         0       0       0       0       0       0       0       0       0       0       0       0       0       0       0       0       0
      Locals:         0       0       0       0       0       0       0       0       0       0       0       0       0       0       0       0       0
      Temps:          0       0       0       0       0       0       0       0       0       0       0       0       0       0       0       0       0
      Totals:         0       0       0       0       0       0       0       0       0       0       0       0       0       0       0       0       0
Total ram usage:        0 bytes
 Hardware stack levels used:    1
 Hardware stack levels required when called:   16
 This function calls:
		Nothing
 This function is called by:
		_CMP1_Initialize
		_BuzzerOn
 This function uses a non-reentrant model


 *************** function _BuzzerClear *****************
 Defined at:
		line 71 in file "buzzer.c"
 Parameters:    Size  Location     Type
		None
 Auto vars:     Size  Location     Type
		None
 Return value:  Size  Location     Type
                  1    wreg      void 
 Registers used:
		wreg, status,2, cstack
 Tracked objects:
		On entry : 
		On exit  : 
		Unchanged: 
 Data sizes:     COMRAM   BANK0   BANK1   BANK2   BANK3   BANK4   BANK5   BANK6   BANK7   BANK8   BANK9  BANK10  BANK11  BANK12  BANK13  BANK14  BANK15
      Params:         0       0       0       0       0       0       0       0       0       0       0       0       0       0       0       0       0
      Locals:         0       0       0       0       0       0       0       0       0       0       0       0       0       0       0       0       0
      Temps:          0       0       0       0       0       0       0       0       0       0       0       0       0       0       0       0       0
      Totals:         0       0       0       0       0       0       0       0       0       0       0       0       0       0       0       0       0
Total ram usage:        0 bytes
 Hardware stack levels used:    1
 Hardware stack levels required when called:   18
 This function calls:
		_BuzzerOff
		_TMR4_Stop
 This function is called by:
		_MuteAlarm
		_AlarmCheckTask
 This function uses a non-reentrant model


 *************** function _TMR4_Stop *****************
 Defined at:
		line 119 in file "mcc_generated_files/tmr4.c"
 Parameters:    Size  Location     Type
		None
 Auto vars:     Size  Location     Type
		None
 Return value:  Size  Location     Type
                  1    wreg      void 
 Registers used:
		None
 Tracked objects:
		On entry : 
		On exit  : 
		Unchanged: 
 Data sizes:     COMRAM   BANK0   BANK1   BANK2   BANK3   BANK4   BANK5   BANK6   BANK7   BANK8   BANK9  BANK10  BANK11  BANK12  BANK13  BANK14  BANK15
      Params:         0       0       0       0       0       0       0       0       0       0       0       0       0       0       0       0       0
      Locals:         0       0       0       0       0       0       0       0       0       0       0       0       0       0       0       0       0
      Temps:          0       0       0       0       0       0       0       0       0       0       0       0       0       0       0       0       0
      Totals:         0       0       0       0       0       0       0       0       0       0       0       0       0       0       0       0       0
Total ram usage:        0 bytes
 Hardware stack levels used:    1
 Hardware stack levels required when called:   16
 This function calls:
		Nothing
 This function is called by:
		_BuzzerClear
		_BuzzerTask
 This function uses a non-reentrant model


 *************** function _BuzzerOff *****************
 Defined at:
		line 458 in file "buzzer.c"
 Parameters:    Size  Location     Type
		None
 Auto vars:     Size  Location     Type
		None
 Return value:  Size  Location     Type
                  1    wreg      void 
 Registers used:
		wreg, status,2, cstack
 Tracked objects:
		On entry : 
		On exit  : 
		Unchanged: 
 Data sizes:     COMRAM   BANK0   BANK1   BANK2   BANK3   BANK4   BANK5   BANK6   BANK7   BANK8   BANK9  BANK10  BANK11  BANK12  BANK13  BANK14  BANK15
      Params:         0       0       0       0       0       0       0       0       0       0       0       0       0       0       0       0       0
      Locals:         0       0       0       0       0       0       0       0       0       0       0       0       0       0       0       0       0
      Temps:          0       0       0       0       0       0       0       0       0       0       0       0       0       0       0       0       0
      Totals:         0       0       0       0       0       0       0       0       0       0       0       0       0       0       0       0       0
Total ram usage:        0 bytes
 Hardware stack levels used:    1
 Hardware stack levels required when called:   17
 This function calls:
		_CMP1_Disable
 This function is called by:
		_BuzzerSet
		_BuzzerClear
		_BuzzerTest
		_BuzzerTask
		_BuzzerInit
		_BuzzerCheck
 This function uses a non-reentrant model


 *************** function _CMP1_Disable *****************
 Defined at:
		line 98 in file "mcc_generated_files/cmp1.c"
 Parameters:    Size  Location     Type
		None
 Auto vars:     Size  Location     Type
		None
 Return value:  Size  Location     Type
                  1    wreg      void 
 Registers used:
		None
 Tracked objects:
		On entry : 
		On exit  : 
		Unchanged: 
 Data sizes:     COMRAM   BANK0   BANK1   BANK2   BANK3   BANK4   BANK5   BANK6   BANK7   BANK8   BANK9  BANK10  BANK11  BANK12  BANK13  BANK14  BANK15
      Params:         0       0       0       0       0       0       0       0       0       0       0       0       0       0       0       0       0
      Locals:         0       0       0       0       0       0       0       0       0       0       0       0       0       0       0       0       0
      Temps:          0       0       0       0       0       0       0       0       0       0       0       0       0       0       0       0       0
      Totals:         0       0       0       0       0       0       0       0       0       0       0       0       0       0       0       0       0
Total ram usage:        0 bytes
 Hardware stack levels used:    1
 Hardware stack levels required when called:   16
 This function calls:
		Nothing
 This function is called by:
		_CMP1_Initialize
		_BuzzerOff
 This function uses a non-reentrant model


 *************** function _SetNoPowerSupplyAlarm *****************
 Defined at:
		line 245 in file "alarm.c"
 Parameters:    Size  Location     Type
		None
 Auto vars:     Size  Location     Type
		None
 Return value:  Size  Location     Type
                  1    wreg      void 
 Registers used:
		wreg, status,2
 Tracked objects:
		On entry : 
		On exit  : 
		Unchanged: 
 Data sizes:     COMRAM   BANK0   BANK1   BANK2   BANK3   BANK4   BANK5   BANK6   BANK7   BANK8   BANK9  BANK10  BANK11  BANK12  BANK13  BANK14  BANK15
      Params:         0       0       0       0       0       0       0       0       0       0       0       0       0       0       0       0       0
      Locals:         0       0       0       0       0       0       0       0       0       0       0       0       0       0       0       0       0
      Temps:          0       0       0       0       0       0       0       0       0       0       0       0       0       0       0       0       0
      Totals:         0       0       0       0       0       0       0       0       0       0       0       0       0       0       0       0       0
Total ram usage:        0 bytes
 Hardware stack levels used:    1
 Hardware stack levels required when called:   16
 This function calls:
		Nothing
 This function is called by:
		_BatteryFailAlarm
 This function uses a non-reentrant model


 *************** function _SetBatteryFailAlarm *****************
 Defined at:
		line 224 in file "alarm.c"
 Parameters:    Size  Location     Type
		None
 Auto vars:     Size  Location     Type
		None
 Return value:  Size  Location     Type
                  1    wreg      void 
 Registers used:
		wreg, status,2
 Tracked objects:
		On entry : 
		On exit  : 
		Unchanged: 
 Data sizes:     COMRAM   BANK0   BANK1   BANK2   BANK3   BANK4   BANK5   BANK6   BANK7   BANK8   BANK9  BANK10  BANK11  BANK12  BANK13  BANK14  BANK15
      Params:         0       0       0       0       0       0       0       0       0       0       0       0       0       0       0       0       0
      Locals:         0       0       0       0       0       0       0       0       0       0       0       0       0       0       0       0       0
      Temps:          0       0       0       0       0       0       0       0       0       0       0       0       0       0       0       0       0
      Totals:         0       0       0       0       0       0       0       0       0       0       0       0       0       0       0       0       0
Total ram usage:        0 bytes
 Hardware stack levels used:    1
 Hardware stack levels required when called:   16
 This function calls:
		Nothing
 This function is called by:
		_BatteryFailAlarm
 This function uses a non-reentrant model


 *************** function _SetBaterryLowAlarmMed *****************
 Defined at:
		line 235 in file "alarm.c"
 Parameters:    Size  Location     Type
		None
 Auto vars:     Size  Location     Type
		None
 Return value:  Size  Location     Type
                  1    wreg      void 
 Registers used:
		wreg, status,2
 Tracked objects:
		On entry : 
		On exit  : 
		Unchanged: 
 Data sizes:     COMRAM   BANK0   BANK1   BANK2   BANK3   BANK4   BANK5   BANK6   BANK7   BANK8   BANK9  BANK10  BANK11  BANK12  BANK13  BANK14  BANK15
      Params:         0       0       0       0       0       0       0       0       0       0       0       0       0       0       0       0       0
      Locals:         0       0       0       0       0       0       0       0       0       0       0       0       0       0       0       0       0
      Temps:          0       0       0       0       0       0       0       0       0       0       0       0       0       0       0       0       0
      Totals:         0       0       0       0       0       0       0       0       0       0       0       0       0       0       0       0       0
Total ram usage:        0 bytes
 Hardware stack levels used:    1
 Hardware stack levels required when called:   16
 This function calls:
		Nothing
 This function is called by:
		_BatteryFailAlarm
 This function uses a non-reentrant model


 *************** function _SetBaterryLowAlarmHigh *****************
 Defined at:
		line 236 in file "alarm.c"
 Parameters:    Size  Location     Type
		None
 Auto vars:     Size  Location     Type
		None
 Return value:  Size  Location     Type
                  1    wreg      void 
 Registers used:
		wreg, status,2
 Tracked objects:
		On entry : 
		On exit  : 
		Unchanged: 
 Data sizes:     COMRAM   BANK0   BANK1   BANK2   BANK3   BANK4   BANK5   BANK6   BANK7   BANK8   BANK9  BANK10  BANK11  BANK12  BANK13  BANK14  BANK15
      Params:         0       0       0       0       0       0       0       0       0       0       0       0       0       0       0       0       0
      Locals:         0       0       0       0       0       0       0       0       0       0       0       0       0       0       0       0       0
      Temps:          0       0       0       0       0       0       0       0       0       0       0       0       0       0       0       0       0
      Totals:         0       0       0       0       0       0       0       0       0       0       0       0       0       0       0       0       0
Total ram usage:        0 bytes
 Hardware stack levels used:    1
 Hardware stack levels required when called:   16
 This function calls:
		Nothing
 This function is called by:
		_BatteryFailAlarm
 This function uses a non-reentrant model


 *************** function _Get12V *****************
 Defined at:
		line 865 in file "monitor.c"
 Parameters:    Size  Location     Type
		None
 Auto vars:     Size  Location     Type
  mv              4   32[BANK1 ] long 
  v12             2   38[BANK1 ] short 
  adc             2   36[BANK1 ] unsigned short 
 Return value:  Size  Location     Type
                  2   30[BANK1 ] short 
 Registers used:
		wreg, fsr2l, fsr2h, status,2, status,0, prodl, prodh, cstack
 Tracked objects:
		On entry : 
		On exit  : 
		Unchanged: 
 Data sizes:     COMRAM   BANK0   BANK1   BANK2   BANK3   BANK4   BANK5   BANK6   BANK7   BANK8   BANK9  BANK10  BANK11  BANK12  BANK13  BANK14  BANK15
      Params:         0       0       2       0       0       0       0       0       0       0       0       0       0       0       0       0       0
      Locals:         0       0       8       0       0       0       0       0       0       0       0       0       0       0       0       0       0
      Temps:          0       0       0       0       0       0       0       0       0       0       0       0       0       0       0       0       0
      Totals:         0       0      10       0       0       0       0       0       0       0       0       0       0       0       0       0       0
Total ram usage:       10 bytes
 Hardware stack levels used:    1
 Hardware stack levels required when called:   18
 This function calls:
		_AdcGetData
		___aldiv
		___lmul
 This function is called by:
		_BatteryFailAlarm
 This function uses a non-reentrant model


 *************** function ___lmul *****************
 Defined at:
		line 15 in file "/Applications/microchip/xc8/v2.10/pic/sources/c99/common/Umul32.c"
 Parameters:    Size  Location     Type
  multiplier      4    4[BANK1 ] unsigned long 
  multiplicand    4    8[BANK1 ] unsigned long 
 Auto vars:     Size  Location     Type
  product         4   12[BANK1 ] unsigned long 
 Return value:  Size  Location     Type
                  4    4[BANK1 ] unsigned long 
 Registers used:
		wreg, status,2, status,0
 Tracked objects:
		On entry : 
		On exit  : 
		Unchanged: 
 Data sizes:     COMRAM   BANK0   BANK1   BANK2   BANK3   BANK4   BANK5   BANK6   BANK7   BANK8   BANK9  BANK10  BANK11  BANK12  BANK13  BANK14  BANK15
      Params:         0       0       8       0       0       0       0       0       0       0       0       0       0       0       0       0       0
      Locals:         0       0       4       0       0       0       0       0       0       0       0       0       0       0       0       0       0
      Temps:          0       0       0       0       0       0       0       0       0       0       0       0       0       0       0       0       0
      Totals:         0       0      12       0       0       0       0       0       0       0       0       0       0       0       0       0       0
Total ram usage:       12 bytes
 Hardware stack levels used:    1
 Hardware stack levels required when called:   16
 This function calls:
		Nothing
 This function is called by:
		_GetPressure_pa
		_SeePressure_pa
		_See12V
		_Get12V
 This function uses a non-reentrant model


 *************** function ___aldiv *****************
 Defined at:
		line 7 in file "/Applications/microchip/xc8/v2.10/pic/sources/c99/common/aldiv.c"
 Parameters:    Size  Location     Type
  dividend        4   16[BANK1 ] long 
  divisor         4   20[BANK1 ] long 
 Auto vars:     Size  Location     Type
  quotient        4   26[BANK1 ] long 
  sign            1   25[BANK1 ] unsigned char 
  counter         1   24[BANK1 ] unsigned char 
 Return value:  Size  Location     Type
                  4   16[BANK1 ] long 
 Registers used:
		wreg, status,2, status,0
 Tracked objects:
		On entry : 
		On exit  : 
		Unchanged: 
 Data sizes:     COMRAM   BANK0   BANK1   BANK2   BANK3   BANK4   BANK5   BANK6   BANK7   BANK8   BANK9  BANK10  BANK11  BANK12  BANK13  BANK14  BANK15
      Params:         0       0       8       0       0       0       0       0       0       0       0       0       0       0       0       0       0
      Locals:         0       0       6       0       0       0       0       0       0       0       0       0       0       0       0       0       0
      Temps:          0       0       0       0       0       0       0       0       0       0       0       0       0       0       0       0       0
      Totals:         0       0      14       0       0       0       0       0       0       0       0       0       0       0       0       0       0
Total ram usage:       14 bytes
 Hardware stack levels used:    1
 Hardware stack levels required when called:   16
 This function calls:
		Nothing
 This function is called by:
		_GetPressure_pa
		_SeePressure_pa
		_See5V
		_Get5V
		_See12V
		_Get12V
 This function uses a non-reentrant model


 *************** function _AdcGetData *****************
 Defined at:
		line 89 in file "monitor.c"
 Parameters:    Size  Location     Type
  id              2   10[BANK1 ] int 
 Auto vars:     Size  Location     Type
  data            2   12[BANK1 ] unsigned short 
 Return value:  Size  Location     Type
                  2   10[BANK1 ] unsigned short 
 Registers used:
		wreg, fsr2l, fsr2h, status,2, status,0, prodl, prodh, cstack
 Tracked objects:
		On entry : 
		On exit  : 
		Unchanged: 
 Data sizes:     COMRAM   BANK0   BANK1   BANK2   BANK3   BANK4   BANK5   BANK6   BANK7   BANK8   BANK9  BANK10  BANK11  BANK12  BANK13  BANK14  BANK15
      Params:         0       0       2       0       0       0       0       0       0       0       0       0       0       0       0       0       0
      Locals:         0       0       2       0       0       0       0       0       0       0       0       0       0       0       0       0       0
      Temps:          0       0       0       0       0       0       0       0       0       0       0       0       0       0       0       0       0
      Totals:         0       0       4       0       0       0       0       0       0       0       0       0       0       0       0       0       0
Total ram usage:        4 bytes
 Hardware stack levels used:    1
 Hardware stack levels required when called:   17
 This function calls:
		___wmul
 This function is called by:
		_GetPressure_pa
		_GetPressureV_pa
		_Get5V
		_Get12V
 This function uses a non-reentrant model


 *************** function _ClearNoPowerSupplyAlarm *****************
 Defined at:
		line 290 in file "alarm.c"
 Parameters:    Size  Location     Type
		None
 Auto vars:     Size  Location     Type
		None
 Return value:  Size  Location     Type
                  1    wreg      void 
 Registers used:
		wreg, status,2
 Tracked objects:
		On entry : 
		On exit  : 
		Unchanged: 
 Data sizes:     COMRAM   BANK0   BANK1   BANK2   BANK3   BANK4   BANK5   BANK6   BANK7   BANK8   BANK9  BANK10  BANK11  BANK12  BANK13  BANK14  BANK15
      Params:         0       0       0       0       0       0       0       0       0       0       0       0       0       0       0       0       0
      Locals:         0       0       0       0       0       0       0       0       0       0       0       0       0       0       0       0       0
      Temps:          0       0       0       0       0       0       0       0       0       0       0       0       0       0       0       0       0
      Totals:         0       0       0       0       0       0       0       0       0       0       0       0       0       0       0       0       0
Total ram usage:        0 bytes
 Hardware stack levels used:    1
 Hardware stack levels required when called:   16
 This function calls:
		Nothing
 This function is called by:
		_BatteryFailAlarm
 This function uses a non-reentrant model


 *************** function _ClearBatteryFailAlarm *****************
 Defined at:
		line 269 in file "alarm.c"
 Parameters:    Size  Location     Type
		None
 Auto vars:     Size  Location     Type
		None
 Return value:  Size  Location     Type
                  1    wreg      void 
 Registers used:
		wreg, status,2
 Tracked objects:
		On entry : 
		On exit  : 
		Unchanged: 
 Data sizes:     COMRAM   BANK0   BANK1   BANK2   BANK3   BANK4   BANK5   BANK6   BANK7   BANK8   BANK9  BANK10  BANK11  BANK12  BANK13  BANK14  BANK15
      Params:         0       0       0       0       0       0       0       0       0       0       0       0       0       0       0       0       0
      Locals:         0       0       0       0       0       0       0       0       0       0       0       0       0       0       0       0       0
      Temps:          0       0       0       0       0       0       0       0       0       0       0       0       0       0       0       0       0
      Totals:         0       0       0       0       0       0       0       0       0       0       0       0       0       0       0       0       0
Total ram usage:        0 bytes
 Hardware stack levels used:    1
 Hardware stack levels required when called:   16
 This function calls:
		Nothing
 This function is called by:
		_BatteryFailAlarm
 This function uses a non-reentrant model


 *************** function _ClearBaterryLowAlarmMed *****************
 Defined at:
		line 280 in file "alarm.c"
 Parameters:    Size  Location     Type
		None
 Auto vars:     Size  Location     Type
		None
 Return value:  Size  Location     Type
                  1    wreg      void 
 Registers used:
		wreg, status,2
 Tracked objects:
		On entry : 
		On exit  : 
		Unchanged: 
 Data sizes:     COMRAM   BANK0   BANK1   BANK2   BANK3   BANK4   BANK5   BANK6   BANK7   BANK8   BANK9  BANK10  BANK11  BANK12  BANK13  BANK14  BANK15
      Params:         0       0       0       0       0       0       0       0       0       0       0       0       0       0       0       0       0
      Locals:         0       0       0       0       0       0       0       0       0       0       0       0       0       0       0       0       0
      Temps:          0       0       0       0       0       0       0       0       0       0       0       0       0       0       0       0       0
      Totals:         0       0       0       0       0       0       0       0       0       0       0       0       0       0       0       0       0
Total ram usage:        0 bytes
 Hardware stack levels used:    1
 Hardware stack levels required when called:   16
 This function calls:
		Nothing
 This function is called by:
		_BatteryFailAlarm
 This function uses a non-reentrant model


 *************** function _ClearBaterryLowAlarmHigh *****************
 Defined at:
		line 281 in file "alarm.c"
 Parameters:    Size  Location     Type
		None
 Auto vars:     Size  Location     Type
		None
 Return value:  Size  Location     Type
                  1    wreg      void 
 Registers used:
		wreg, status,2
 Tracked objects:
		On entry : 
		On exit  : 
		Unchanged: 
 Data sizes:     COMRAM   BANK0   BANK1   BANK2   BANK3   BANK4   BANK5   BANK6   BANK7   BANK8   BANK9  BANK10  BANK11  BANK12  BANK13  BANK14  BANK15
      Params:         0       0       0       0       0       0       0       0       0       0       0       0       0       0       0       0       0
      Locals:         0       0       0       0       0       0       0       0       0       0       0       0       0       0       0       0       0
      Temps:          0       0       0       0       0       0       0       0       0       0       0       0       0       0       0       0       0
      Totals:         0       0       0       0       0       0       0       0       0       0       0       0       0       0       0       0       0
Total ram usage:        0 bytes
 Hardware stack levels used:    1
 Hardware stack levels required when called:   16
 This function calls:
		Nothing
 This function is called by:
		_BatteryFailAlarm
 This function uses a non-reentrant model


 *************** function _AdcDataReady *****************
 Defined at:
		line 78 in file "monitor.c"
 Parameters:    Size  Location     Type
  id              2   10[BANK1 ] int 
 Auto vars:     Size  Location     Type
		None
 Return value:  Size  Location     Type
                  1    wreg      _Bool 
 Registers used:
		wreg, fsr2l, fsr2h, status,2, status,0, prodl, prodh, cstack
 Tracked objects:
		On entry : 
		On exit  : 
		Unchanged: 
 Data sizes:     COMRAM   BANK0   BANK1   BANK2   BANK3   BANK4   BANK5   BANK6   BANK7   BANK8   BANK9  BANK10  BANK11  BANK12  BANK13  BANK14  BANK15
      Params:         0       0       2       0       0       0       0       0       0       0       0       0       0       0       0       0       0
      Locals:         0       0       0       0       0       0       0       0       0       0       0       0       0       0       0       0       0
      Temps:          0       0       0       0       0       0       0       0       0       0       0       0       0       0       0       0       0
      Totals:         0       0       2       0       0       0       0       0       0       0       0       0       0       0       0       0       0
Total ram usage:        2 bytes
 Hardware stack levels used:    1
 Hardware stack levels required when called:   17
 This function calls:
		___wmul
 This function is called by:
		_BatteryFailAlarm
		_MonitorFailAlarm
 This function uses a non-reentrant model


 *************** function _AlarmUpdateLCD *****************
 Defined at:
		line 440 in file "alarm.c"
 Parameters:    Size  Location     Type
		None
 Auto vars:     Size  Location     Type
  id              2  192[BANK1 ] int 
 Return value:  Size  Location     Type
                  1    wreg      void 
 Registers used:
		wreg, fsr1l, fsr1h, fsr2l, fsr2h, status,2, status,0, tblptrl, tblptrh, tblptru, prodl, prodh, cstack
 Tracked objects:
		On entry : 
		On exit  : 
		Unchanged: 
 Data sizes:     COMRAM   BANK0   BANK1   BANK2   BANK3   BANK4   BANK5   BANK6   BANK7   BANK8   BANK9  BANK10  BANK11  BANK12  BANK13  BANK14  BANK15
      Params:         0       0       0       0       0       0       0       0       0       0       0       0       0       0       0       0       0
      Locals:         0       0       6       0       0       0       0       0       0       0       0       0       0       0       0       0       0
      Temps:          0       0       0       0       0       0       0       0       0       0       0       0       0       0       0       0       0
      Totals:         0       0       6       0       0       0       0       0       0       0       0       0       0       0       0       0       0
Total ram usage:        6 bytes
 Hardware stack levels used:    1
 Hardware stack levels required when called:   27
 This function calls:
		_AlarmDisplay
		_AnyAlarm
		_HigherAlarm
		_ValueDisplay
		___wmul
 This function is called by:
		_HistAlarm
		_AlarmCheckTask
 This function uses a non-reentrant model


 *************** function _HigherAlarm *****************
 Defined at:
		line 359 in file "alarm.c"
 Parameters:    Size  Location     Type
		None
 Auto vars:     Size  Location     Type
  i               2   19[BANK1 ] int 
  max             2   17[BANK1 ] int 
 Return value:  Size  Location     Type
                  2   10[BANK1 ] int 
 Registers used:
		wreg, fsr1l, fsr1h, fsr2l, fsr2h, status,2, status,0, prodl, prodh, cstack
 Tracked objects:
		On entry : 
		On exit  : 
		Unchanged: 
 Data sizes:     COMRAM   BANK0   BANK1   BANK2   BANK3   BANK4   BANK5   BANK6   BANK7   BANK8   BANK9  BANK10  BANK11  BANK12  BANK13  BANK14  BANK15
      Params:         0       0       2       0       0       0       0       0       0       0       0       0       0       0       0       0       0
      Locals:         0       0       4       0       0       0       0       0       0       0       0       0       0       0       0       0       0
      Temps:          0       0       5       0       0       0       0       0       0       0       0       0       0       0       0       0       0
      Totals:         0       0      11       0       0       0       0       0       0       0       0       0       0       0       0       0       0
Total ram usage:       11 bytes
 Hardware stack levels used:    1
 Hardware stack levels required when called:   17
 This function calls:
		___wmul
 This function is called by:
		_MuteAlarm
		_AlarmUpdateLCD
		_AlarmCheckTask
 This function uses a non-reentrant model


 *************** function _AlarmDisplay *****************
 Defined at:
		line 110 in file "display.c"
 Parameters:    Size  Location     Type
  type            2  183[BANK1 ] int 
  alarm           2  185[BANK1 ] PTR unsigned char 
		 -> alarmData(399), 
 Auto vars:     Size  Location     Type
  t               1  187[BANK1 ] unsigned char 
 Return value:  Size  Location     Type
                  1    wreg      void 
 Registers used:
		wreg, fsr1l, fsr1h, fsr2l, fsr2h, status,2, status,0, tblptrl, tblptrh, tblptru, prodl, prodh, cstack
 Tracked objects:
		On entry : 
		On exit  : 
		Unchanged: 
 Data sizes:     COMRAM   BANK0   BANK1   BANK2   BANK3   BANK4   BANK5   BANK6   BANK7   BANK8   BANK9  BANK10  BANK11  BANK12  BANK13  BANK14  BANK15
      Params:         0       0       4       0       0       0       0       0       0       0       0       0       0       0       0       0       0
      Locals:         0       0       5       0       0       0       0       0       0       0       0       0       0       0       0       0       0
      Temps:          0       0       0       0       0       0       0       0       0       0       0       0       0       0       0       0       0
      Totals:         0       0       9       0       0       0       0       0       0       0       0       0       0       0       0       0       0
Total ram usage:        9 bytes
 Hardware stack levels used:    1
 Hardware stack levels required when called:   26
 This function calls:
		_ValueDisplay
		___awmod
		_sprintf
 This function is called by:
		_AlarmUpdateLCD
 This function uses a non-reentrant model


 *************** function _ValueDisplay *****************
 Defined at:
		line 66 in file "display.c"
 Parameters:    Size  Location     Type
		None
 Auto vars:     Size  Location     Type
  ti              2  181[BANK1 ] short 
  te              2  179[BANK1 ] short 
  r               2  177[BANK1 ] short 
  tde             2  172[BANK1 ] short 
  tdi             2  170[BANK1 ] short 
  spr             2  157[BANK1 ] short 
  pmax            2  155[BANK1 ] short 
  vol             2  153[BANK1 ] short 
  pe              2  151[BANK1 ] short 
  pi              2  149[BANK1 ] short 
  tep             2    0        short 
  tip             2    0        short 
  bpm             2    0        short 
  er              1  176[BANK1 ] char 
  etde            1  175[BANK1 ] char 
  etdi            1  174[BANK1 ] char 
  dr              1  165[BANK1 ] char 
  dtde            1  164[BANK1 ] char 
  dtdi            1  163[BANK1 ] char 
  ete             1  162[BANK1 ] char 
  eti             1  161[BANK1 ] char 
  dte             1    0        char 
  dti             1    0        char 
 Return value:  Size  Location     Type
                  1    wreg      void 
 Registers used:
		wreg, fsr1l, fsr1h, fsr2l, fsr2h, status,2, status,0, tblptrl, tblptrh, tblptru, prodl, prodh, cstack
 Tracked objects:
		On entry : 
		On exit  : 
		Unchanged: 
 Data sizes:     COMRAM   BANK0   BANK1   BANK2   BANK3   BANK4   BANK5   BANK6   BANK7   BANK8   BANK9  BANK10  BANK11  BANK12  BANK13  BANK14  BANK15
      Params:         0       0       0       0       0       0       0       0       0       0       0       0       0       0       0       0       0
      Locals:         0       0      42       0       0       0       0       0       0       0       0       0       0       0       0       0       0
      Temps:          0       0       0       0       0       0       0       0       0       0       0       0       0       0       0       0       0
      Totals:         0       0      42       0       0       0       0       0       0       0       0       0       0       0       0       0       0
Total ram usage:       42 bytes
 Hardware stack levels used:    1
 Hardware stack levels required when called:   25
 This function calls:
		_GetAlarmState
		_GetBpm
		_GetDisableAlarmSV1
		_GetEp
		_GetIp
		_GetPmax
		_GetSpr
		_GetTargetEp
		_GetTargetIp
		_GetTde
		_GetTdi
		_GetTe
		_GetTi
		_GetVolume
		___awdiv
		___awmod
		___wmul
		_sprintf
 This function is called by:
		_AlarmDisplay
		_AlarmUpdateLCD
 This function uses a non-reentrant model


 *************** function _sprintf *****************
 Defined at:
		line 9 in file "/Applications/microchip/xc8/v2.10/pic/sources/c99/common/nf_sprintf.c"
 Parameters:    Size  Location     Type
  s               2  113[BANK1 ] PTR unsigned char 
		 -> msg3(20), msg2(20), msg1(20), msg4(20), 
  fmt             2  115[BANK1 ] PTR const unsigned char 
		 -> STR_13(8), STR_12(23), STR_10(26), STR_9(17), 
		 -> STR_8(17), STR_7(15), 
 Auto vars:     Size  Location     Type
  f               6  135[BANK1 ] struct _IO_FILE
  ap              2  133[BANK1 ] PTR void [1]
		 -> ?_printf(2), ?_sprintf(2), 
  ret             2    0        int 
 Return value:  Size  Location     Type
                  2  113[BANK1 ] int 
 Registers used:
		wreg, fsr1l, fsr1h, fsr2l, fsr2h, status,2, status,0, tblptrl, tblptrh, tblptru, prodl, prodh, cstack
 Tracked objects:
		On entry : 
		On exit  : 
		Unchanged: 
 Data sizes:     COMRAM   BANK0   BANK1   BANK2   BANK3   BANK4   BANK5   BANK6   BANK7   BANK8   BANK9  BANK10  BANK11  BANK12  BANK13  BANK14  BANK15
      Params:         0       0      18       0       0       0       0       0       0       0       0       0       0       0       0       0       0
      Locals:         0       0      10       0       0       0       0       0       0       0       0       0       0       0       0       0       0
      Temps:          0       0       0       0       0       0       0       0       0       0       0       0       0       0       0       0       0
      Totals:         0       0      28       0       0       0       0       0       0       0       0       0       0       0       0       0       0
Total ram usage:       28 bytes
 Hardware stack levels used:    1
 Hardware stack levels required when called:   24
 This function calls:
		_vfprintf
 This function is called by:
		_ValueDisplay
		_AlarmDisplay
 This function uses a non-reentrant model


 *************** function _vfprintf *****************
 Defined at:
		line 1368 in file "/Applications/microchip/xc8/v2.10/pic/sources/c99/common/doprnt.c"
 Parameters:    Size  Location     Type
  fp              2  105[BANK1 ] PTR struct _IO_FILE
		 -> sprintf@f(6), NULL(0), 
  fmt             2  107[BANK1 ] PTR const unsigned char 
		 -> STR_55(4), STR_54(4), STR_53(15), STR_52(16), 
		 -> STR_51(32), STR_50(32), STR_49(13), STR_48(12), 
		 -> STR_47(14), STR_46(4), STR_45(4), STR_44(2), 
		 -> STR_43(10), STR_42(4), STR_41(55), STR_40(53), 
		 -> STR_39(43), STR_38(54), STR_37(40), STR_36(36), 
		 -> STR_35(41), STR_34(32), STR_33(65), STR_32(4), 
		 -> STR_31(12), STR_30(4), STR_25(5), STR_24(3), 
		 -> STR_23(7), STR_22(18), STR_21(15), STR_20(15), 
		 -> STR_19(12), STR_18(5), STR_17(5), STR_16(5), 
		 -> STR_15(5), STR_14(19), STR_13(8), STR_12(23), 
		 -> STR_10(26), STR_9(17), STR_8(17), STR_7(15), 
		 -> STR_4(45), STR_3(4), STR_2(15), STR_1(13), 
  ap              2  109[BANK1 ] PTR PTR void 
		 -> printf@ap(2), sprintf@ap(2), 
 Auto vars:     Size  Location     Type
  cfmt            2  111[BANK1 ] PTR unsigned char 
		 -> STR_55(4), STR_54(4), STR_53(15), STR_52(16), 
		 -> STR_51(32), STR_50(32), STR_49(13), STR_48(12), 
		 -> STR_47(14), STR_46(4), STR_45(4), STR_44(2), 
		 -> STR_43(10), STR_42(4), STR_41(55), STR_40(53), 
		 -> STR_39(43), STR_38(54), STR_37(40), STR_36(36), 
		 -> STR_35(41), STR_34(32), STR_33(65), STR_32(4), 
		 -> STR_31(12), STR_30(4), STR_25(5), STR_24(3), 
		 -> STR_23(7), STR_22(18), STR_21(15), STR_20(15), 
		 -> STR_19(12), STR_18(5), STR_17(5), STR_16(5), 
		 -> STR_15(5), STR_14(19), STR_13(8), STR_12(23), 
		 -> STR_10(26), STR_9(17), STR_8(17), STR_7(15), 
		 -> STR_4(45), STR_3(4), STR_2(15), STR_1(13), 
 Return value:  Size  Location     Type
                  2  105[BANK1 ] int 
 Registers used:
		wreg, fsr1l, fsr1h, fsr2l, fsr2h, status,2, status,0, tblptrl, tblptrh, tblptru, prodl, prodh, cstack
 Tracked objects:
		On entry : 
		On exit  : 
		Unchanged: 
 Data sizes:     COMRAM   BANK0   BANK1   BANK2   BANK3   BANK4   BANK5   BANK6   BANK7   BANK8   BANK9  BANK10  BANK11  BANK12  BANK13  BANK14  BANK15
      Params:         0       0       6       0       0       0       0       0       0       0       0       0       0       0       0       0       0
      Locals:         0       0       2       0       0       0       0       0       0       0       0       0       0       0       0       0       0
      Temps:          0       0       0       0       0       0       0       0       0       0       0       0       0       0       0       0       0
      Totals:         0       0       8       0       0       0       0       0       0       0       0       0       0       0       0       0       0
Total ram usage:        8 bytes
 Hardware stack levels used:    1
 Hardware stack levels required when called:   23
 This function calls:
		_vfpfcnvrt
 This function is called by:
		_sprintf
		_printf
 This function uses a non-reentrant model


 *************** function _vfpfcnvrt *****************
 Defined at:
		line 670 in file "/Applications/microchip/xc8/v2.10/pic/sources/c99/common/doprnt.c"
 Parameters:    Size  Location     Type
  fp              2   72[BANK1 ] PTR struct _IO_FILE
		 -> sprintf@f(6), NULL(0), 
  fmt             2   74[BANK1 ] PTR PTR unsigned char 
		 -> vfprintf@cfmt(2), 
  ap              2   76[BANK1 ] PTR PTR void 
		 -> printf@ap(2), sprintf@ap(2), 
 Auto vars:     Size  Location     Type
  llu             8   90[BANK1 ] unsigned long long 
  ll              8   82[BANK1 ] long long 
  f               4    0        long long 
  vp              3    0        PTR void 
  ct              3    0        unsigned char [3]
  done            2  100[BANK1 ] int 
  cp              2   98[BANK1 ] PTR unsigned char 
		 -> ?_printf(2), ?_sprintf(2), adcVOffset(2), adcOffset(2), 
		 -> STR_29(3), STR_28(3), STR_27(3), STR_26(3), 
		 -> alarmData(399), STR_11(3), 
  i               2    0        int 
  c               1  104[BANK1 ] unsigned char 
 Return value:  Size  Location     Type
                  2   72[BANK1 ] int 
 Registers used:
		wreg, fsr1l, fsr1h, fsr2l, fsr2h, status,2, status,0, tblptrl, tblptrh, tblptru, prodl, prodh, cstack
 Tracked objects:
		On entry : 
		On exit  : 
		Unchanged: 
 Data sizes:     COMRAM   BANK0   BANK1   BANK2   BANK3   BANK4   BANK5   BANK6   BANK7   BANK8   BANK9  BANK10  BANK11  BANK12  BANK13  BANK14  BANK15
      Params:         0       0       6       0       0       0       0       0       0       0       0       0       0       0       0       0       0
      Locals:         0       0      23       0       0       0       0       0       0       0       0       0       0       0       0       0       0
      Temps:          0       0       4       0       0       0       0       0       0       0       0       0       0       0       0       0       0
      Totals:         0       0      33       0       0       0       0       0       0       0       0       0       0       0       0       0       0
Total ram usage:       33 bytes
 Hardware stack levels used:    1
 Hardware stack levels required when called:   22
 This function calls:
		_atoi
		_ctoa
		_dtoa
		_fputc
		_isdigit
		_stoa
		_xtoa
 This function is called by:
		_vfprintf
 This function uses a non-reentrant model


 *************** function _xtoa *****************
 Defined at:
		line 623 in file "/Applications/microchip/xc8/v2.10/pic/sources/c99/common/doprnt.c"
 Parameters:    Size  Location     Type
  fp              2   33[BANK1 ] PTR struct _IO_FILE
		 -> sprintf@f(6), NULL(0), 
  d               8   35[BANK1 ] unsigned long long 
  x               1   43[BANK1 ] unsigned char 
 Auto vars:     Size  Location     Type
  n               8   60[BANK1 ] unsigned long long 
  c               2   70[BANK1 ] int 
  i               2   68[BANK1 ] int 
  w               2   58[BANK1 ] int 
  p               2   56[BANK1 ] int 
 Return value:  Size  Location     Type
                  2   33[BANK1 ] int 
 Registers used:
		wreg, fsr1l, fsr1h, fsr2l, fsr2h, status,2, status,0, tblptrl, tblptrh, tblptru, cstack
 Tracked objects:
		On entry : 
		On exit  : 
		Unchanged: 
 Data sizes:     COMRAM   BANK0   BANK1   BANK2   BANK3   BANK4   BANK5   BANK6   BANK7   BANK8   BANK9  BANK10  BANK11  BANK12  BANK13  BANK14  BANK15
      Params:         0       0      11       0       0       0       0       0       0       0       0       0       0       0       0       0       0
      Locals:         0       0      20       0       0       0       0       0       0       0       0       0       0       0       0       0       0
      Temps:          0       0       8       0       0       0       0       0       0       0       0       0       0       0       0       0       0
      Totals:         0       0      39       0       0       0       0       0       0       0       0       0       0       0       0       0       0
Total ram usage:       39 bytes
 Hardware stack levels used:    1
 Hardware stack levels required when called:   21
 This function calls:
		_isalpha
		_isupper
		_pad
		_toupper
 This function is called by:
		_vfpfcnvrt
 This function uses a non-reentrant model


 *************** function _toupper *****************
 Defined at:
		line 4 in file "/Applications/microchip/xc8/v2.10/pic/sources/c99/common/toupper.c"
 Parameters:    Size  Location     Type
  c               2   10[BANK1 ] int 
 Auto vars:     Size  Location     Type
		None
 Return value:  Size  Location     Type
                  2   10[BANK1 ] int 
 Registers used:
		wreg, status,2, status,0
 Tracked objects:
		On entry : 
		On exit  : 
		Unchanged: 
 Data sizes:     COMRAM   BANK0   BANK1   BANK2   BANK3   BANK4   BANK5   BANK6   BANK7   BANK8   BANK9  BANK10  BANK11  BANK12  BANK13  BANK14  BANK15
      Params:         0       0       2       0       0       0       0       0       0       0       0       0       0       0       0       0       0
      Locals:         0       0       2       0       0       0       0       0       0       0       0       0       0       0       0       0       0
      Temps:          0       0       4       0       0       0       0       0       0       0       0       0       0       0       0       0       0
      Totals:         0       0       8       0       0       0       0       0       0       0       0       0       0       0       0       0       0
Total ram usage:        8 bytes
 Hardware stack levels used:    1
 Hardware stack levels required when called:   17
 This function calls:
		_islower
 This function is called by:
		_xtoa
 This function uses a non-reentrant model


 *************** function _islower *****************
 Defined at:
		line 5 in file "/Applications/microchip/xc8/v2.10/pic/sources/c99/common/islower.c"
 Parameters:    Size  Location     Type
  c               2    4[BANK1 ] int 
 Auto vars:     Size  Location     Type
		None
 Return value:  Size  Location     Type
                  2    4[BANK1 ] int 
 Registers used:
		wreg, status,2, status,0
 Tracked objects:
		On entry : 
		On exit  : 
		Unchanged: 
 Data sizes:     COMRAM   BANK0   BANK1   BANK2   BANK3   BANK4   BANK5   BANK6   BANK7   BANK8   BANK9  BANK10  BANK11  BANK12  BANK13  BANK14  BANK15
      Params:         0       0       2       0       0       0       0       0       0       0       0       0       0       0       0       0       0
      Locals:         0       0       0       0       0       0       0       0       0       0       0       0       0       0       0       0       0
      Temps:          0       0       4       0       0       0       0       0       0       0       0       0       0       0       0       0       0
      Totals:         0       0       6       0       0       0       0       0       0       0       0       0       0       0       0       0       0
Total ram usage:        6 bytes
 Hardware stack levels used:    1
 Hardware stack levels required when called:   16
 This function calls:
		Nothing
 This function is called by:
		_toupper
 This function uses a non-reentrant model


 *************** function _isupper *****************
 Defined at:
		line 5 in file "/Applications/microchip/xc8/v2.10/pic/sources/c99/common/isupper.c"
 Parameters:    Size  Location     Type
  c               2    4[BANK1 ] int 
 Auto vars:     Size  Location     Type
		None
 Return value:  Size  Location     Type
                  2    4[BANK1 ] int 
 Registers used:
		wreg, status,2, status,0
 Tracked objects:
		On entry : 
		On exit  : 
		Unchanged: 
 Data sizes:     COMRAM   BANK0   BANK1   BANK2   BANK3   BANK4   BANK5   BANK6   BANK7   BANK8   BANK9  BANK10  BANK11  BANK12  BANK13  BANK14  BANK15
      Params:         0       0       2       0       0       0       0       0       0       0       0       0       0       0       0       0       0
      Locals:         0       0       0       0       0       0       0       0       0       0       0       0       0       0       0       0       0
      Temps:          0       0       4       0       0       0       0       0       0       0       0       0       0       0       0       0       0
      Totals:         0       0       6       0       0       0       0       0       0       0       0       0       0       0       0       0       0
Total ram usage:        6 bytes
 Hardware stack levels used:    1
 Hardware stack levels required when called:   16
 This function calls:
		Nothing
 This function is called by:
		_xtoa
 This function uses a non-reentrant model


 *************** function _isalpha *****************
 Defined at:
		line 5 in file "/Applications/microchip/xc8/v2.10/pic/sources/c99/common/isalpha.c"
 Parameters:    Size  Location     Type
  c               2    4[BANK1 ] int 
 Auto vars:     Size  Location     Type
		None
 Return value:  Size  Location     Type
                  2    4[BANK1 ] int 
 Registers used:
		wreg, status,2, status,0
 Tracked objects:
		On entry : 
		On exit  : 
		Unchanged: 
 Data sizes:     COMRAM   BANK0   BANK1   BANK2   BANK3   BANK4   BANK5   BANK6   BANK7   BANK8   BANK9  BANK10  BANK11  BANK12  BANK13  BANK14  BANK15
      Params:         0       0       2       0       0       0       0       0       0       0       0       0       0       0       0       0       0
      Locals:         0       0       0       0       0       0       0       0       0       0       0       0       0       0       0       0       0
      Temps:          0       0       4       0       0       0       0       0       0       0       0       0       0       0       0       0       0
      Totals:         0       0       6       0       0       0       0       0       0       0       0       0       0       0       0       0       0
Total ram usage:        6 bytes
 Hardware stack levels used:    1
 Hardware stack levels required when called:   16
 This function calls:
		Nothing
 This function is called by:
		_xtoa
 This function uses a non-reentrant model


 *************** function _stoa *****************
 Defined at:
		line 546 in file "/Applications/microchip/xc8/v2.10/pic/sources/c99/common/doprnt.c"
 Parameters:    Size  Location     Type
  fp              2   15[BANK1 ] PTR struct _IO_FILE
		 -> sprintf@f(6), NULL(0), 
  s               2   17[BANK1 ] PTR unsigned char 
		 -> ?_printf(2), ?_sprintf(2), adcVOffset(2), adcOffset(2), 
		 -> STR_29(3), STR_28(3), STR_27(3), STR_26(3), 
		 -> alarmData(399), STR_11(3), 
 Auto vars:     Size  Location     Type
  nuls            7   20[BANK1 ] unsigned char [7]
  l               2   35[BANK1 ] int 
  p               2   33[BANK1 ] int 
  cp              2   31[BANK1 ] PTR unsigned char 
		 -> ?_printf(2), ?_sprintf(2), stoa@nuls(7), adcVOffset(2), 
		 -> adcOffset(2), STR_29(3), STR_28(3), STR_27(3), 
		 -> STR_26(3), alarmData(399), STR_11(3), 
  w               2   29[BANK1 ] int 
  i               2   27[BANK1 ] int 
 Return value:  Size  Location     Type
                  2   15[BANK1 ] int 
 Registers used:
		wreg, fsr1l, fsr1h, fsr2l, fsr2h, status,2, status,0, tblptrl, tblptrh, tblptru, cstack
 Tracked objects:
		On entry : 
		On exit  : 
		Unchanged: 
 Data sizes:     COMRAM   BANK0   BANK1   BANK2   BANK3   BANK4   BANK5   BANK6   BANK7   BANK8   BANK9  BANK10  BANK11  BANK12  BANK13  BANK14  BANK15
      Params:         0       0       4       0       0       0       0       0       0       0       0       0       0       0       0       0       0
      Locals:         0       0      17       0       0       0       0       0       0       0       0       0       0       0       0       0       0
      Temps:          0       0       1       0       0       0       0       0       0       0       0       0       0       0       0       0       0
      Totals:         0       0      22       0       0       0       0       0       0       0       0       0       0       0       0       0       0
Total ram usage:       22 bytes
 Hardware stack levels used:    1
 Hardware stack levels required when called:   19
 This function calls:
		_fputc
		_strlen
 This function is called by:
		_vfpfcnvrt
 This function uses a non-reentrant model


 *************** function _dtoa *****************
 Defined at:
		line 274 in file "/Applications/microchip/xc8/v2.10/pic/sources/c99/common/doprnt.c"
 Parameters:    Size  Location     Type
  fp              2   33[BANK1 ] PTR struct _IO_FILE
		 -> sprintf@f(6), NULL(0), 
  d               8   35[BANK1 ] long long 
 Auto vars:     Size  Location     Type
  n               8   59[BANK1 ] long long 
  i               2   67[BANK1 ] int 
  s               2   57[BANK1 ] int 
  w               2   55[BANK1 ] int 
  p               2   53[BANK1 ] int 
 Return value:  Size  Location     Type
                  2   33[BANK1 ] int 
 Registers used:
		wreg, fsr1l, fsr1h, fsr2l, fsr2h, status,2, status,0, tblptrl, tblptrh, tblptru, cstack
 Tracked objects:
		On entry : 
		On exit  : 
		Unchanged: 
 Data sizes:     COMRAM   BANK0   BANK1   BANK2   BANK3   BANK4   BANK5   BANK6   BANK7   BANK8   BANK9  BANK10  BANK11  BANK12  BANK13  BANK14  BANK15
      Params:         0       0      10       0       0       0       0       0       0       0       0       0       0       0       0       0       0
      Locals:         0       0      18       0       0       0       0       0       0       0       0       0       0       0       0       0       0
      Temps:          0       0       8       0       0       0       0       0       0       0       0       0       0       0       0       0       0
      Totals:         0       0      36       0       0       0       0       0       0       0       0       0       0       0       0       0       0
Total ram usage:       36 bytes
 Hardware stack levels used:    1
 Hardware stack levels required when called:   21
 This function calls:
		___aodiv
		___aomod
		_abs
		_pad
 This function is called by:
		_vfpfcnvrt
 This function uses a non-reentrant model


 *************** function _abs *****************
 Defined at:
		line 1 in file "/Applications/microchip/xc8/v2.10/pic/sources/c99/common/abs.c"
 Parameters:    Size  Location     Type
  a               2   22[BANK1 ] int 
 Auto vars:     Size  Location     Type
		None
 Return value:  Size  Location     Type
                  2   22[BANK1 ] int 
 Registers used:
		wreg, status,2, status,0
 Tracked objects:
		On entry : 
		On exit  : 
		Unchanged: 
 Data sizes:     COMRAM   BANK0   BANK1   BANK2   BANK3   BANK4   BANK5   BANK6   BANK7   BANK8   BANK9  BANK10  BANK11  BANK12  BANK13  BANK14  BANK15
      Params:         0       0       2       0       0       0       0       0       0       0       0       0       0       0       0       0       0
      Locals:         0       0       0       0       0       0       0       0       0       0       0       0       0       0       0       0       0
      Temps:          0       0       2       0       0       0       0       0       0       0       0       0       0       0       0       0       0
      Totals:         0       0       4       0       0       0       0       0       0       0       0       0       0       0       0       0       0
Total ram usage:        4 bytes
 Hardware stack levels used:    1
 Hardware stack levels required when called:   16
 This function calls:
		Nothing
 This function is called by:
		_dtoa
 This function uses a non-reentrant model


 *************** function ___aomod *****************
 Defined at:
		line 9 in file "/Applications/microchip/xc8/v2.10/pic/sources/c99/common/aomod.c"
 Parameters:    Size  Location     Type
  dividend        8    4[BANK1 ] long long 
  divisor         8   12[BANK1 ] long long 
 Auto vars:     Size  Location     Type
  sign            1   21[BANK1 ] unsigned char 
  counter         1   20[BANK1 ] unsigned char 
 Return value:  Size  Location     Type
                  8    4[BANK1 ] long long 
 Registers used:
		wreg, status,2, status,0
 Tracked objects:
		On entry : 
		On exit  : 
		Unchanged: 
 Data sizes:     COMRAM   BANK0   BANK1   BANK2   BANK3   BANK4   BANK5   BANK6   BANK7   BANK8   BANK9  BANK10  BANK11  BANK12  BANK13  BANK14  BANK15
      Params:         0       0      16       0       0       0       0       0       0       0       0       0       0       0       0       0       0
      Locals:         0       0       2       0       0       0       0       0       0       0       0       0       0       0       0       0       0
      Temps:          0       0       0       0       0       0       0       0       0       0       0       0       0       0       0       0       0
      Totals:         0       0      18       0       0       0       0       0       0       0       0       0       0       0       0       0       0
Total ram usage:       18 bytes
 Hardware stack levels used:    1
 Hardware stack levels required when called:   16
 This function calls:
		Nothing
 This function is called by:
		_dtoa
 This function uses a non-reentrant model


 *************** function ___aodiv *****************
 Defined at:
		line 9 in file "/Applications/microchip/xc8/v2.10/pic/sources/c99/common/aodiv.c"
 Parameters:    Size  Location     Type
  dividend        8    4[BANK1 ] long long 
  divisor         8   12[BANK1 ] long long 
 Auto vars:     Size  Location     Type
  quotient        8   22[BANK1 ] long long 
  sign            1   21[BANK1 ] unsigned char 
  counter         1   20[BANK1 ] unsigned char 
 Return value:  Size  Location     Type
                  8    4[BANK1 ] long long 
 Registers used:
		wreg, fsr2l, fsr2h, status,2, status,0
 Tracked objects:
		On entry : 
		On exit  : 
		Unchanged: 
 Data sizes:     COMRAM   BANK0   BANK1   BANK2   BANK3   BANK4   BANK5   BANK6   BANK7   BANK8   BANK9  BANK10  BANK11  BANK12  BANK13  BANK14  BANK15
      Params:         0       0      16       0       0       0       0       0       0       0       0       0       0       0       0       0       0
      Locals:         0       0      10       0       0       0       0       0       0       0       0       0       0       0       0       0       0
      Temps:          0       0       0       0       0       0       0       0       0       0       0       0       0       0       0       0       0
      Totals:         0       0      26       0       0       0       0       0       0       0       0       0       0       0       0       0       0
Total ram usage:       26 bytes
 Hardware stack levels used:    1
 Hardware stack levels required when called:   16
 This function calls:
		Nothing
 This function is called by:
		_dtoa
 This function uses a non-reentrant model


 *************** function _ctoa *****************
 Defined at:
		line 259 in file "/Applications/microchip/xc8/v2.10/pic/sources/c99/common/doprnt.c"
 Parameters:    Size  Location     Type
  fp              2   33[BANK1 ] PTR struct _IO_FILE
		 -> sprintf@f(6), NULL(0), 
  c               1   35[BANK1 ] unsigned char 
 Auto vars:     Size  Location     Type
  w               2   36[BANK1 ] int 
  l               2    0        int 
 Return value:  Size  Location     Type
                  2   33[BANK1 ] int 
 Registers used:
		wreg, fsr1l, fsr1h, fsr2l, fsr2h, status,2, status,0, tblptrl, tblptrh, tblptru, cstack
 Tracked objects:
		On entry : 
		On exit  : 
		Unchanged: 
 Data sizes:     COMRAM   BANK0   BANK1   BANK2   BANK3   BANK4   BANK5   BANK6   BANK7   BANK8   BANK9  BANK10  BANK11  BANK12  BANK13  BANK14  BANK15
      Params:         0       0       3       0       0       0       0       0       0       0       0       0       0       0       0       0       0
      Locals:         0       0       2       0       0       0       0       0       0       0       0       0       0       0       0       0       0
      Temps:          0       0       0       0       0       0       0       0       0       0       0       0       0       0       0       0       0
      Totals:         0       0       5       0       0       0       0       0       0       0       0       0       0       0       0       0       0
Total ram usage:        5 bytes
 Hardware stack levels used:    1
 Hardware stack levels required when called:   21
 This function calls:
		_pad
 This function is called by:
		_vfpfcnvrt
 This function uses a non-reentrant model


 *************** function _pad *****************
 Defined at:
		line 72 in file "/Applications/microchip/xc8/v2.10/pic/sources/c99/common/doprnt.c"
 Parameters:    Size  Location     Type
  fp              2   22[BANK1 ] PTR struct _IO_FILE
		 -> sprintf@f(6), NULL(0), 
  buf             2   24[BANK1 ] PTR unsigned char 
		 -> dbuf(32), 
  p               2   26[BANK1 ] int 
 Auto vars:     Size  Location     Type
  w               2   31[BANK1 ] int 
  i               2   29[BANK1 ] int 
 Return value:  Size  Location     Type
                  2   22[BANK1 ] int 
 Registers used:
		wreg, fsr1l, fsr1h, fsr2l, fsr2h, status,2, status,0, tblptrl, tblptrh, tblptru, cstack
 Tracked objects:
		On entry : 
		On exit  : 
		Unchanged: 
 Data sizes:     COMRAM   BANK0   BANK1   BANK2   BANK3   BANK4   BANK5   BANK6   BANK7   BANK8   BANK9  BANK10  BANK11  BANK12  BANK13  BANK14  BANK15
      Params:         0       0       6       0       0       0       0       0       0       0       0       0       0       0       0       0       0
      Locals:         0       0       4       0       0       0       0       0       0       0       0       0       0       0       0       0       0
      Temps:          0       0       1       0       0       0       0       0       0       0       0       0       0       0       0       0       0
      Totals:         0       0      11       0       0       0       0       0       0       0       0       0       0       0       0       0       0
Total ram usage:       11 bytes
 Hardware stack levels used:    1
 Hardware stack levels required when called:   20
 This function calls:
		_fputc
		_fputs
		_strlen
 This function is called by:
		_ctoa
		_dtoa
		_xtoa
 This function uses a non-reentrant model


 *************** function _strlen *****************
 Defined at:
		line 5 in file "/Applications/microchip/xc8/v2.10/pic/sources/c99/common/strlen.c"
 Parameters:    Size  Location     Type
  s               2    4[BANK1 ] PTR const unsigned char 
		 -> ?_printf(2), ?_sprintf(2), stoa@nuls(7), dbuf(32), 
		 -> adcVOffset(2), adcOffset(2), STR_29(3), STR_28(3), 
		 -> STR_27(3), STR_26(3), alarmData(399), msg3(20), 
		 -> STR_11(3), msg2(20), msg1(20), msg4(20), 
		 -> LCDTest@msg2(17), LCDTest@msg1(17), STR_6(17), STR_5(17), 
 Auto vars:     Size  Location     Type
  a               2    6[BANK1 ] PTR const unsigned char 
		 -> ?_printf(2), ?_sprintf(2), stoa@nuls(7), dbuf(32), 
		 -> adcVOffset(2), adcOffset(2), STR_29(3), STR_28(3), 
		 -> STR_27(3), STR_26(3), alarmData(399), msg3(20), 
		 -> STR_11(3), msg2(20), msg1(20), msg4(20), 
		 -> LCDTest@msg2(17), LCDTest@msg1(17), STR_6(17), STR_5(17), 
 Return value:  Size  Location     Type
                  2    4[BANK1 ] unsigned int 
 Registers used:
		wreg, fsr1l, fsr1h, status,2, status,0, tblptrl, tblptrh, tblptru
 Tracked objects:
		On entry : 
		On exit  : 
		Unchanged: 
 Data sizes:     COMRAM   BANK0   BANK1   BANK2   BANK3   BANK4   BANK5   BANK6   BANK7   BANK8   BANK9  BANK10  BANK11  BANK12  BANK13  BANK14  BANK15
      Params:         0       0       2       0       0       0       0       0       0       0       0       0       0       0       0       0       0
      Locals:         0       0       2       0       0       0       0       0       0       0       0       0       0       0       0       0       0
      Temps:          0       0       0       0       0       0       0       0       0       0       0       0       0       0       0       0       0
      Totals:         0       0       4       0       0       0       0       0       0       0       0       0       0       0       0       0       0
Total ram usage:        4 bytes
 Hardware stack levels used:    1
 Hardware stack levels required when called:   16
 This function calls:
		Nothing
 This function is called by:
		_LCDMessage
		_pad
		_stoa
 This function uses a non-reentrant model


 *************** function _fputs *****************
 Defined at:
		line 8 in file "/Applications/microchip/xc8/v2.10/pic/sources/c99/common/nf_fputs.c"
 Parameters:    Size  Location     Type
  s               2   15[BANK1 ] PTR const unsigned char 
		 -> dbuf(32), 
  fp              2   17[BANK1 ] PTR struct _IO_FILE
		 -> sprintf@f(6), NULL(0), 
 Auto vars:     Size  Location     Type
  i               2   20[BANK1 ] int 
  c               1   19[BANK1 ] unsigned char 
 Return value:  Size  Location     Type
                  2   15[BANK1 ] int 
 Registers used:
		wreg, fsr1l, fsr1h, fsr2l, fsr2h, status,2, status,0, cstack
 Tracked objects:
		On entry : 
		On exit  : 
		Unchanged: 
 Data sizes:     COMRAM   BANK0   BANK1   BANK2   BANK3   BANK4   BANK5   BANK6   BANK7   BANK8   BANK9  BANK10  BANK11  BANK12  BANK13  BANK14  BANK15
      Params:         0       0       4       0       0       0       0       0       0       0       0       0       0       0       0       0       0
      Locals:         0       0       3       0       0       0       0       0       0       0       0       0       0       0       0       0       0
      Temps:          0       0       0       0       0       0       0       0       0       0       0       0       0       0       0       0       0
      Totals:         0       0       7       0       0       0       0       0       0       0       0       0       0       0       0       0       0
Total ram usage:        7 bytes
 Hardware stack levels used:    1
 Hardware stack levels required when called:   19
 This function calls:
		_fputc
 This function is called by:
		_pad
 This function uses a non-reentrant model


 *************** function _fputc *****************
 Defined at:
		line 8 in file "/Applications/microchip/xc8/v2.10/pic/sources/c99/common/nf_fputc.c"
 Parameters:    Size  Location     Type
  c               2    6[BANK1 ] int 
  fp              2    8[BANK1 ] PTR struct _IO_FILE
		 -> sprintf@f(6), NULL(0), 
 Auto vars:     Size  Location     Type
		None
 Return value:  Size  Location     Type
                  2    6[BANK1 ] int 
 Registers used:
		wreg, fsr1l, fsr1h, fsr2l, fsr2h, status,2, status,0, cstack
 Tracked objects:
		On entry : 
		On exit  : 
		Unchanged: 
 Data sizes:     COMRAM   BANK0   BANK1   BANK2   BANK3   BANK4   BANK5   BANK6   BANK7   BANK8   BANK9  BANK10  BANK11  BANK12  BANK13  BANK14  BANK15
      Params:         0       0       4       0       0       0       0       0       0       0       0       0       0       0       0       0       0
      Locals:         0       0       0       0       0       0       0       0       0       0       0       0       0       0       0       0       0
      Temps:          0       0       5       0       0       0       0       0       0       0       0       0       0       0       0       0       0
      Totals:         0       0       9       0       0       0       0       0       0       0       0       0       0       0       0       0       0
Total ram usage:        9 bytes
 Hardware stack levels used:    1
 Hardware stack levels required when called:   18
 This function calls:
		_putch
 This function is called by:
		_pad
		_stoa
		_vfpfcnvrt
		_fputs
		_putchar
 This function uses a non-reentrant model


 *************** function _putch *****************
 Defined at:
		line 229 in file "mcc_generated_files/uart1.c"
 Parameters:    Size  Location     Type
  txData          1    wreg     unsigned char 
 Auto vars:     Size  Location     Type
  txData          1    5[BANK1 ] unsigned char 
 Return value:  Size  Location     Type
                  1    wreg      void 
 Registers used:
		wreg, fsr2l, fsr2h, status,2, status,0, cstack
 Tracked objects:
		On entry : 
		On exit  : 
		Unchanged: 
 Data sizes:     COMRAM   BANK0   BANK1   BANK2   BANK3   BANK4   BANK5   BANK6   BANK7   BANK8   BANK9  BANK10  BANK11  BANK12  BANK13  BANK14  BANK15
      Params:         0       0       0       0       0       0       0       0       0       0       0       0       0       0       0       0       0
      Locals:         0       0       1       0       0       0       0       0       0       0       0       0       0       0       0       0       0
      Temps:          0       0       0       0       0       0       0       0       0       0       0       0       0       0       0       0       0
      Totals:         0       0       1       0       0       0       0       0       0       0       0       0       0       0       0       0       0
Total ram usage:        1 bytes
 Hardware stack levels used:    1
 Hardware stack levels required when called:   17
 This function calls:
		_UART1_Write
 This function is called by:
		_fputc
 This function uses a non-reentrant model


 *************** function _UART1_Write *****************
 Defined at:
		line 201 in file "mcc_generated_files/uart1.c"
 Parameters:    Size  Location     Type
  txData          1    wreg     unsigned char 
 Auto vars:     Size  Location     Type
  txData          1    4[BANK1 ] unsigned char 
 Return value:  Size  Location     Type
                  1    wreg      void 
 Registers used:
		wreg, fsr2l, fsr2h, status,2, status,0
 Tracked objects:
		On entry : 
		On exit  : 
		Unchanged: 
 Data sizes:     COMRAM   BANK0   BANK1   BANK2   BANK3   BANK4   BANK5   BANK6   BANK7   BANK8   BANK9  BANK10  BANK11  BANK12  BANK13  BANK14  BANK15
      Params:         0       0       0       0       0       0       0       0       0       0       0       0       0       0       0       0       0
      Locals:         0       0       1       0       0       0       0       0       0       0       0       0       0       0       0       0       0
      Temps:          0       0       0       0       0       0       0       0       0       0       0       0       0       0       0       0       0
      Totals:         0       0       1       0       0       0       0       0       0       0       0       0       0       0       0       0       0
Total ram usage:        1 bytes
 Hardware stack levels used:    1
 Hardware stack levels required when called:   16
 This function calls:
		Nothing
 This function is called by:
		_putch
 This function uses a non-reentrant model


 *************** function _atoi *****************
 Defined at:
		line 4 in file "/Applications/microchip/xc8/v2.10/pic/sources/c99/common/atoi.c"
 Parameters:    Size  Location     Type
  s               2   11[BANK1 ] PTR const unsigned char 
		 -> STR_55(4), STR_54(4), STR_53(15), STR_52(16), 
		 -> STR_51(32), STR_50(32), STR_49(13), STR_48(12), 
		 -> STR_47(14), STR_46(4), STR_45(4), STR_44(2), 
		 -> STR_43(10), STR_42(4), STR_41(55), STR_40(53), 
		 -> STR_39(43), STR_38(54), STR_37(40), STR_36(36), 
		 -> STR_35(41), STR_34(32), STR_33(65), STR_32(4), 
		 -> STR_31(12), STR_30(4), STR_25(5), STR_24(3), 
		 -> STR_23(7), STR_22(18), STR_21(15), STR_20(15), 
		 -> STR_19(12), STR_18(5), STR_17(5), STR_16(5), 
		 -> STR_15(5), STR_14(19), STR_13(8), STR_12(23), 
		 -> STR_10(26), STR_9(17), STR_8(17), STR_7(15), 
		 -> STR_4(45), STR_3(4), STR_2(15), STR_1(13), 
 Auto vars:     Size  Location     Type
  n               2   24[BANK1 ] int 
  neg             2   17[BANK1 ] int 
 Return value:  Size  Location     Type
                  2   11[BANK1 ] int 
 Registers used:
		wreg, status,2, status,0, tblptrl, tblptrh, tblptru, prodl, prodh, cstack
 Tracked objects:
		On entry : 
		On exit  : 
		Unchanged: 
 Data sizes:     COMRAM   BANK0   BANK1   BANK2   BANK3   BANK4   BANK5   BANK6   BANK7   BANK8   BANK9  BANK10  BANK11  BANK12  BANK13  BANK14  BANK15
      Params:         0       0       2       0       0       0       0       0       0       0       0       0       0       0       0       0       0
      Locals:         0       0       9       0       0       0       0       0       0       0       0       0       0       0       0       0       0
      Temps:          0       0       4       0       0       0       0       0       0       0       0       0       0       0       0       0       0
      Totals:         0       0      15       0       0       0       0       0       0       0       0       0       0       0       0       0       0
Total ram usage:       15 bytes
 Hardware stack levels used:    1
 Hardware stack levels required when called:   17
 This function calls:
		___wmul
		_isdigit
		_isspace
 This function is called by:
		_vfpfcnvrt
 This function uses a non-reentrant model


 *************** function _isspace *****************
 Defined at:
		line 5 in file "/Applications/microchip/xc8/v2.10/pic/sources/c99/common/isspace.c"
 Parameters:    Size  Location     Type
  c               2    4[BANK1 ] int 
 Auto vars:     Size  Location     Type
		None
 Return value:  Size  Location     Type
                  2    4[BANK1 ] int 
 Registers used:
		wreg, status,2, status,0
 Tracked objects:
		On entry : 
		On exit  : 
		Unchanged: 
 Data sizes:     COMRAM   BANK0   BANK1   BANK2   BANK3   BANK4   BANK5   BANK6   BANK7   BANK8   BANK9  BANK10  BANK11  BANK12  BANK13  BANK14  BANK15
      Params:         0       0       2       0       0       0       0       0       0       0       0       0       0       0       0       0       0
      Locals:         0       0       1       0       0       0       0       0       0       0       0       0       0       0       0       0       0
      Temps:          0       0       4       0       0       0       0       0       0       0       0       0       0       0       0       0       0
      Totals:         0       0       7       0       0       0       0       0       0       0       0       0       0       0       0       0       0
Total ram usage:        7 bytes
 Hardware stack levels used:    1
 Hardware stack levels required when called:   16
 This function calls:
		Nothing
 This function is called by:
		_atoi
 This function uses a non-reentrant model


 *************** function _isdigit *****************
 Defined at:
		line 5 in file "/Applications/microchip/xc8/v2.10/pic/sources/c99/common/isdigit.c"
 Parameters:    Size  Location     Type
  c               2    4[BANK1 ] int 
 Auto vars:     Size  Location     Type
		None
 Return value:  Size  Location     Type
                  2    4[BANK1 ] int 
 Registers used:
		wreg, status,2, status,0
 Tracked objects:
		On entry : 
		On exit  : 
		Unchanged: 
 Data sizes:     COMRAM   BANK0   BANK1   BANK2   BANK3   BANK4   BANK5   BANK6   BANK7   BANK8   BANK9  BANK10  BANK11  BANK12  BANK13  BANK14  BANK15
      Params:         0       0       2       0       0       0       0       0       0       0       0       0       0       0       0       0       0
      Locals:         0       0       0       0       0       0       0       0       0       0       0       0       0       0       0       0       0
      Temps:          0       0       4       0       0       0       0       0       0       0       0       0       0       0       0       0       0
      Totals:         0       0       6       0       0       0       0       0       0       0       0       0       0       0       0       0       0
Total ram usage:        6 bytes
 Hardware stack levels used:    1
 Hardware stack levels required when called:   16
 This function calls:
		Nothing
 This function is called by:
		_vfpfcnvrt
		_atoi
 This function uses a non-reentrant model


 *************** function ___wmul *****************
 Defined at:
		line 15 in file "/Applications/microchip/xc8/v2.10/pic/sources/c99/common/Umul16.c"
 Parameters:    Size  Location     Type
  multiplier      2    4[BANK1 ] unsigned int 
  multiplicand    2    6[BANK1 ] unsigned int 
 Auto vars:     Size  Location     Type
  product         2    8[BANK1 ] unsigned int 
 Return value:  Size  Location     Type
                  2    4[BANK1 ] unsigned int 
 Registers used:
		wreg, status,2, status,0, prodl, prodh
 Tracked objects:
		On entry : 
		On exit  : 
		Unchanged: 
 Data sizes:     COMRAM   BANK0   BANK1   BANK2   BANK3   BANK4   BANK5   BANK6   BANK7   BANK8   BANK9  BANK10  BANK11  BANK12  BANK13  BANK14  BANK15
      Params:         0       0       4       0       0       0       0       0       0       0       0       0       0       0       0       0       0
      Locals:         0       0       2       0       0       0       0       0       0       0       0       0       0       0       0       0       0
      Temps:          0       0       0       0       0       0       0       0       0       0       0       0       0       0       0       0       0
      Totals:         0       0       6       0       0       0       0       0       0       0       0       0       0       0       0       0       0
Total ram usage:        6 bytes
 Hardware stack levels used:    1
 Hardware stack levels required when called:   16
 This function calls:
		Nothing
 This function is called by:
		_ValueDisplay
		_HigherAlarm
		_MuteAlarm
		_AlarmUpdateLCD
		_AlarmCheckTask
		_atoi
		_AdcInit
		_AdcSeeData
		_AdcGetData
		_AdcDataReady
 This function uses a non-reentrant model


 *************** function ___awmod *****************
 Defined at:
		line 7 in file "/Applications/microchip/xc8/v2.10/pic/sources/c99/common/awmod.c"
 Parameters:    Size  Location     Type
  dividend        2    4[BANK1 ] int 
  divisor         2    6[BANK1 ] int 
 Auto vars:     Size  Location     Type
  sign            1    9[BANK1 ] unsigned char 
  counter         1    8[BANK1 ] unsigned char 
 Return value:  Size  Location     Type
                  2    4[BANK1 ] int 
 Registers used:
		wreg, status,2, status,0
 Tracked objects:
		On entry : 
		On exit  : 
		Unchanged: 
 Data sizes:     COMRAM   BANK0   BANK1   BANK2   BANK3   BANK4   BANK5   BANK6   BANK7   BANK8   BANK9  BANK10  BANK11  BANK12  BANK13  BANK14  BANK15
      Params:         0       0       4       0       0       0       0       0       0       0       0       0       0       0       0       0       0
      Locals:         0       0       2       0       0       0       0       0       0       0       0       0       0       0       0       0       0
      Temps:          0       0       0       0       0       0       0       0       0       0       0       0       0       0       0       0       0
      Totals:         0       0       6       0       0       0       0       0       0       0       0       0       0       0       0       0       0
Total ram usage:        6 bytes
 Hardware stack levels used:    1
 Hardware stack levels required when called:   16
 This function calls:
		Nothing
 This function is called by:
		_ValueDisplay
		_AlarmDisplay
 This function uses a non-reentrant model


 *************** function _GetVolume *****************
 Defined at:
		line 169 in file "monitor.c"
 Parameters:    Size  Location     Type
		None
 Auto vars:     Size  Location     Type
		None
 Return value:  Size  Location     Type
                  2    4[BANK1 ] short 
 Registers used:
		None
 Tracked objects:
		On entry : 
		On exit  : 
		Unchanged: 
 Data sizes:     COMRAM   BANK0   BANK1   BANK2   BANK3   BANK4   BANK5   BANK6   BANK7   BANK8   BANK9  BANK10  BANK11  BANK12  BANK13  BANK14  BANK15
      Params:         0       0       2       0       0       0       0       0       0       0       0       0       0       0       0       0       0
      Locals:         0       0       0       0       0       0       0       0       0       0       0       0       0       0       0       0       0
      Temps:          0       0       0       0       0       0       0       0       0       0       0       0       0       0       0       0       0
      Totals:         0       0       2       0       0       0       0       0       0       0       0       0       0       0       0       0       0
Total ram usage:        2 bytes
 Hardware stack levels used:    1
 Hardware stack levels required when called:   16
 This function calls:
		Nothing
 This function is called by:
		_ValueDisplay
 This function uses a non-reentrant model


 *************** function _GetTi *****************
 Defined at:
		line 162 in file "monitor.c"
 Parameters:    Size  Location     Type
		None
 Auto vars:     Size  Location     Type
		None
 Return value:  Size  Location     Type
                  2    4[BANK1 ] short 
 Registers used:
		wreg, status,2, status,0
 Tracked objects:
		On entry : 
		On exit  : 
		Unchanged: 
 Data sizes:     COMRAM   BANK0   BANK1   BANK2   BANK3   BANK4   BANK5   BANK6   BANK7   BANK8   BANK9  BANK10  BANK11  BANK12  BANK13  BANK14  BANK15
      Params:         0       0       2       0       0       0       0       0       0       0       0       0       0       0       0       0       0
      Locals:         0       0       0       0       0       0       0       0       0       0       0       0       0       0       0       0       0
      Temps:          0       0       0       0       0       0       0       0       0       0       0       0       0       0       0       0       0
      Totals:         0       0       2       0       0       0       0       0       0       0       0       0       0       0       0       0       0
Total ram usage:        2 bytes
 Hardware stack levels used:    1
 Hardware stack levels required when called:   16
 This function calls:
		Nothing
 This function is called by:
		_ValueDisplay
 This function uses a non-reentrant model


 *************** function _GetTe *****************
 Defined at:
		line 163 in file "monitor.c"
 Parameters:    Size  Location     Type
		None
 Auto vars:     Size  Location     Type
		None
 Return value:  Size  Location     Type
                  2    4[BANK1 ] short 
 Registers used:
		wreg, status,2, status,0
 Tracked objects:
		On entry : 
		On exit  : 
		Unchanged: 
 Data sizes:     COMRAM   BANK0   BANK1   BANK2   BANK3   BANK4   BANK5   BANK6   BANK7   BANK8   BANK9  BANK10  BANK11  BANK12  BANK13  BANK14  BANK15
      Params:         0       0       2       0       0       0       0       0       0       0       0       0       0       0       0       0       0
      Locals:         0       0       0       0       0       0       0       0       0       0       0       0       0       0       0       0       0
      Temps:          0       0       0       0       0       0       0       0       0       0       0       0       0       0       0       0       0
      Totals:         0       0       2       0       0       0       0       0       0       0       0       0       0       0       0       0       0
Total ram usage:        2 bytes
 Hardware stack levels used:    1
 Hardware stack levels required when called:   16
 This function calls:
		Nothing
 This function is called by:
		_ValueDisplay
 This function uses a non-reentrant model


 *************** function _GetTdi *****************
 Defined at:
		line 161 in file "monitor.c"
 Parameters:    Size  Location     Type
		None
 Auto vars:     Size  Location     Type
		None
 Return value:  Size  Location     Type
                  2    4[BANK1 ] short 
 Registers used:
		wreg, status,2, status,0
 Tracked objects:
		On entry : 
		On exit  : 
		Unchanged: 
 Data sizes:     COMRAM   BANK0   BANK1   BANK2   BANK3   BANK4   BANK5   BANK6   BANK7   BANK8   BANK9  BANK10  BANK11  BANK12  BANK13  BANK14  BANK15
      Params:         0       0       2       0       0       0       0       0       0       0       0       0       0       0       0       0       0
      Locals:         0       0       0       0       0       0       0       0       0       0       0       0       0       0       0       0       0
      Temps:          0       0       0       0       0       0       0       0       0       0       0       0       0       0       0       0       0
      Totals:         0       0       2       0       0       0       0       0       0       0       0       0       0       0       0       0       0
Total ram usage:        2 bytes
 Hardware stack levels used:    1
 Hardware stack levels required when called:   16
 This function calls:
		Nothing
 This function is called by:
		_ValueDisplay
 This function uses a non-reentrant model


 *************** function _GetTde *****************
 Defined at:
		line 160 in file "monitor.c"
 Parameters:    Size  Location     Type
		None
 Auto vars:     Size  Location     Type
		None
 Return value:  Size  Location     Type
                  2    4[BANK1 ] short 
 Registers used:
		wreg, status,2, status,0
 Tracked objects:
		On entry : 
		On exit  : 
		Unchanged: 
 Data sizes:     COMRAM   BANK0   BANK1   BANK2   BANK3   BANK4   BANK5   BANK6   BANK7   BANK8   BANK9  BANK10  BANK11  BANK12  BANK13  BANK14  BANK15
      Params:         0       0       2       0       0       0       0       0       0       0       0       0       0       0       0       0       0
      Locals:         0       0       0       0       0       0       0       0       0       0       0       0       0       0       0       0       0
      Temps:          0       0       0       0       0       0       0       0       0       0       0       0       0       0       0       0       0
      Totals:         0       0       2       0       0       0       0       0       0       0       0       0       0       0       0       0       0
Total ram usage:        2 bytes
 Hardware stack levels used:    1
 Hardware stack levels required when called:   16
 This function calls:
		Nothing
 This function is called by:
		_ValueDisplay
 This function uses a non-reentrant model


 *************** function _GetTargetIp *****************
 Defined at:
		line 189 in file "monitor.c"
 Parameters:    Size  Location     Type
		None
 Auto vars:     Size  Location     Type
		None
 Return value:  Size  Location     Type
                  2   18[BANK1 ] short 
 Registers used:
		wreg, status,2, status,0, cstack
 Tracked objects:
		On entry : 
		On exit  : 
		Unchanged: 
 Data sizes:     COMRAM   BANK0   BANK1   BANK2   BANK3   BANK4   BANK5   BANK6   BANK7   BANK8   BANK9  BANK10  BANK11  BANK12  BANK13  BANK14  BANK15
      Params:         0       0       2       0       0       0       0       0       0       0       0       0       0       0       0       0       0
      Locals:         0       0       0       0       0       0       0       0       0       0       0       0       0       0       0       0       0
      Temps:          0       0       0       0       0       0       0       0       0       0       0       0       0       0       0       0       0
      Totals:         0       0       2       0       0       0       0       0       0       0       0       0       0       0       0       0       0
Total ram usage:        2 bytes
 Hardware stack levels used:    1
 Hardware stack levels required when called:   17
 This function calls:
		___awdiv
 This function is called by:
		_ValueDisplay
 This function uses a non-reentrant model


 *************** function _GetTargetEp *****************
 Defined at:
		line 193 in file "monitor.c"
 Parameters:    Size  Location     Type
		None
 Auto vars:     Size  Location     Type
		None
 Return value:  Size  Location     Type
                  2   18[BANK1 ] short 
 Registers used:
		wreg, status,2, status,0, cstack
 Tracked objects:
		On entry : 
		On exit  : 
		Unchanged: 
 Data sizes:     COMRAM   BANK0   BANK1   BANK2   BANK3   BANK4   BANK5   BANK6   BANK7   BANK8   BANK9  BANK10  BANK11  BANK12  BANK13  BANK14  BANK15
      Params:         0       0       2       0       0       0       0       0       0       0       0       0       0       0       0       0       0
      Locals:         0       0       0       0       0       0       0       0       0       0       0       0       0       0       0       0       0
      Temps:          0       0       0       0       0       0       0       0       0       0       0       0       0       0       0       0       0
      Totals:         0       0       2       0       0       0       0       0       0       0       0       0       0       0       0       0       0
Total ram usage:        2 bytes
 Hardware stack levels used:    1
 Hardware stack levels required when called:   17
 This function calls:
		___awdiv
 This function is called by:
		_ValueDisplay
 This function uses a non-reentrant model


 *************** function _GetSpr *****************
 Defined at:
		line 60 in file "controller.c"
 Parameters:    Size  Location     Type
		None
 Auto vars:     Size  Location     Type
		None
 Return value:  Size  Location     Type
                  2    4[BANK1 ] short 
 Registers used:
		None
 Tracked objects:
		On entry : 
		On exit  : 
		Unchanged: 
 Data sizes:     COMRAM   BANK0   BANK1   BANK2   BANK3   BANK4   BANK5   BANK6   BANK7   BANK8   BANK9  BANK10  BANK11  BANK12  BANK13  BANK14  BANK15
      Params:         0       0       2       0       0       0       0       0       0       0       0       0       0       0       0       0       0
      Locals:         0       0       0       0       0       0       0       0       0       0       0       0       0       0       0       0       0
      Temps:          0       0       0       0       0       0       0       0       0       0       0       0       0       0       0       0       0
      Totals:         0       0       2       0       0       0       0       0       0       0       0       0       0       0       0       0       0
Total ram usage:        2 bytes
 Hardware stack levels used:    1
 Hardware stack levels required when called:   16
 This function calls:
		Nothing
 This function is called by:
		_ValueDisplay
 This function uses a non-reentrant model


 *************** function _GetPmax *****************
 Defined at:
		line 170 in file "monitor.c"
 Parameters:    Size  Location     Type
		None
 Auto vars:     Size  Location     Type
		None
 Return value:  Size  Location     Type
                  2   18[BANK1 ] short 
 Registers used:
		wreg, status,2, status,0, cstack
 Tracked objects:
		On entry : 
		On exit  : 
		Unchanged: 
 Data sizes:     COMRAM   BANK0   BANK1   BANK2   BANK3   BANK4   BANK5   BANK6   BANK7   BANK8   BANK9  BANK10  BANK11  BANK12  BANK13  BANK14  BANK15
      Params:         0       0       2       0       0       0       0       0       0       0       0       0       0       0       0       0       0
      Locals:         0       0       0       0       0       0       0       0       0       0       0       0       0       0       0       0       0
      Temps:          0       0       0       0       0       0       0       0       0       0       0       0       0       0       0       0       0
      Totals:         0       0       2       0       0       0       0       0       0       0       0       0       0       0       0       0       0
Total ram usage:        2 bytes
 Hardware stack levels used:    1
 Hardware stack levels required when called:   17
 This function calls:
		___awdiv
 This function is called by:
		_ValueDisplay
 This function uses a non-reentrant model


 *************** function _GetIp *****************
 Defined at:
		line 168 in file "monitor.c"
 Parameters:    Size  Location     Type
		None
 Auto vars:     Size  Location     Type
		None
 Return value:  Size  Location     Type
                  2   18[BANK1 ] short 
 Registers used:
		wreg, status,2, status,0, cstack
 Tracked objects:
		On entry : 
		On exit  : 
		Unchanged: 
 Data sizes:     COMRAM   BANK0   BANK1   BANK2   BANK3   BANK4   BANK5   BANK6   BANK7   BANK8   BANK9  BANK10  BANK11  BANK12  BANK13  BANK14  BANK15
      Params:         0       0       2       0       0       0       0       0       0       0       0       0       0       0       0       0       0
      Locals:         0       0       4       0       0       0       0       0       0       0       0       0       0       0       0       0       0
      Temps:          0       0       3       0       0       0       0       0       0       0       0       0       0       0       0       0       0
      Totals:         0       0       9       0       0       0       0       0       0       0       0       0       0       0       0       0       0
Total ram usage:        9 bytes
 Hardware stack levels used:    1
 Hardware stack levels required when called:   17
 This function calls:
		___awdiv
 This function is called by:
		_ValueDisplay
 This function uses a non-reentrant model


 *************** function _GetEp *****************
 Defined at:
		line 167 in file "monitor.c"
 Parameters:    Size  Location     Type
		None
 Auto vars:     Size  Location     Type
		None
 Return value:  Size  Location     Type
                  2   18[BANK1 ] short 
 Registers used:
		wreg, status,2, status,0, cstack
 Tracked objects:
		On entry : 
		On exit  : 
		Unchanged: 
 Data sizes:     COMRAM   BANK0   BANK1   BANK2   BANK3   BANK4   BANK5   BANK6   BANK7   BANK8   BANK9  BANK10  BANK11  BANK12  BANK13  BANK14  BANK15
      Params:         0       0       2       0       0       0       0       0       0       0       0       0       0       0       0       0       0
      Locals:         0       0       0       0       0       0       0       0       0       0       0       0       0       0       0       0       0
      Temps:          0       0       0       0       0       0       0       0       0       0       0       0       0       0       0       0       0
      Totals:         0       0       2       0       0       0       0       0       0       0       0       0       0       0       0       0       0
Total ram usage:        2 bytes
 Hardware stack levels used:    1
 Hardware stack levels required when called:   17
 This function calls:
		___awdiv
 This function is called by:
		_ValueDisplay
 This function uses a non-reentrant model


 *************** function ___awdiv *****************
 Defined at:
		line 7 in file "/Applications/microchip/xc8/v2.10/pic/sources/c99/common/awdiv.c"
 Parameters:    Size  Location     Type
  dividend        2   10[BANK1 ] int 
  divisor         2   12[BANK1 ] int 
 Auto vars:     Size  Location     Type
  quotient        2   16[BANK1 ] int 
  sign            1   15[BANK1 ] unsigned char 
  counter         1   14[BANK1 ] unsigned char 
 Return value:  Size  Location     Type
                  2   10[BANK1 ] int 
 Registers used:
		wreg, status,2, status,0
 Tracked objects:
		On entry : 
		On exit  : 
		Unchanged: 
 Data sizes:     COMRAM   BANK0   BANK1   BANK2   BANK3   BANK4   BANK5   BANK6   BANK7   BANK8   BANK9  BANK10  BANK11  BANK12  BANK13  BANK14  BANK15
      Params:         0       0       4       0       0       0       0       0       0       0       0       0       0       0       0       0       0
      Locals:         0       0       4       0       0       0       0       0       0       0       0       0       0       0       0       0       0
      Temps:          0       0       0       0       0       0       0       0       0       0       0       0       0       0       0       0       0
      Totals:         0       0       8       0       0       0       0       0       0       0       0       0       0       0       0       0       0
Total ram usage:        8 bytes
 Hardware stack levels used:    1
 Hardware stack levels required when called:   16
 This function calls:
		Nothing
 This function is called by:
		_ValueDisplay
		_GetEp
		_GetIp
		_GetPmax
		_GetMaxPressure
		_GetTargetIp
		_GetTargetEp
		_MonitorDump
		_SetCalibrateState
		_GetPressure_pa
		_SeePressure_pa
		_GetPressureV_pa
		_SeePressureV_pa
 This function uses a non-reentrant model


 *************** function _GetDisableAlarmSV1 *****************
 Defined at:
		line 881 in file "monitor.c"
 Parameters:    Size  Location     Type
		None
 Auto vars:     Size  Location     Type
		None
 Return value:  Size  Location     Type
                  1    wreg      _Bool 
 Registers used:
		wreg, status,2
 Tracked objects:
		On entry : 
		On exit  : 
		Unchanged: 
 Data sizes:     COMRAM   BANK0   BANK1   BANK2   BANK3   BANK4   BANK5   BANK6   BANK7   BANK8   BANK9  BANK10  BANK11  BANK12  BANK13  BANK14  BANK15
      Params:         0       0       0       0       0       0       0       0       0       0       0       0       0       0       0       0       0
      Locals:         0       0       0       0       0       0       0       0       0       0       0       0       0       0       0       0       0
      Temps:          0       0       0       0       0       0       0       0       0       0       0       0       0       0       0       0       0
      Totals:         0       0       0       0       0       0       0       0       0       0       0       0       0       0       0       0       0
Total ram usage:        0 bytes
 Hardware stack levels used:    1
 Hardware stack levels required when called:   16
 This function calls:
		Nothing
 This function is called by:
		_ValueDisplay
 This function uses a non-reentrant model


 *************** function _GetBpm *****************
 Defined at:
		line 165 in file "monitor.c"
 Parameters:    Size  Location     Type
		None
 Auto vars:     Size  Location     Type
		None
 Return value:  Size  Location     Type
                  2    4[BANK1 ] short 
 Registers used:
		None
 Tracked objects:
		On entry : 
		On exit  : 
		Unchanged: 
 Data sizes:     COMRAM   BANK0   BANK1   BANK2   BANK3   BANK4   BANK5   BANK6   BANK7   BANK8   BANK9  BANK10  BANK11  BANK12  BANK13  BANK14  BANK15
      Params:         0       0       2       0       0       0       0       0       0       0       0       0       0       0       0       0       0
      Locals:         0       0       0       0       0       0       0       0       0       0       0       0       0       0       0       0       0
      Temps:          0       0       0       0       0       0       0       0       0       0       0       0       0       0       0       0       0
      Totals:         0       0       2       0       0       0       0       0       0       0       0       0       0       0       0       0       0
Total ram usage:        2 bytes
 Hardware stack levels used:    1
 Hardware stack levels required when called:   16
 This function calls:
		Nothing
 This function is called by:
		_ValueDisplay
 This function uses a non-reentrant model


 *************** function _GetAlarmState *****************
 Defined at:
		line 431 in file "alarm.c"
 Parameters:    Size  Location     Type
		None
 Auto vars:     Size  Location     Type
		None
 Return value:  Size  Location     Type
                  2    8[BANK1 ] PTR unsigned char 
 Registers used:
		wreg, fsr2l, fsr2h, status,2, status,0, cstack
 Tracked objects:
		On entry : 
		On exit  : 
		Unchanged: 
 Data sizes:     COMRAM   BANK0   BANK1   BANK2   BANK3   BANK4   BANK5   BANK6   BANK7   BANK8   BANK9  BANK10  BANK11  BANK12  BANK13  BANK14  BANK15
      Params:         0       0       2       0       0       0       0       0       0       0       0       0       0       0       0       0       0
      Locals:         0       0       0       0       0       0       0       0       0       0       0       0       0       0       0       0       0
      Temps:          0       0       0       0       0       0       0       0       0       0       0       0       0       0       0       0       0
      Totals:         0       0       2       0       0       0       0       0       0       0       0       0       0       0       0       0       0
Total ram usage:        2 bytes
 Hardware stack levels used:    1
 Hardware stack levels required when called:   17
 This function calls:
		_AnyAlarm
 This function is called by:
		_ValueDisplay
 This function uses a non-reentrant model


 *************** function _AnyAlarm *****************
 Defined at:
		line 370 in file "alarm.c"
 Parameters:    Size  Location     Type
		None
 Auto vars:     Size  Location     Type
  i               2    6[BANK1 ] int 
 Return value:  Size  Location     Type
                  1    wreg      _Bool 
 Registers used:
		wreg, fsr2l, fsr2h, status,2, status,0
 Tracked objects:
		On entry : 
		On exit  : 
		Unchanged: 
 Data sizes:     COMRAM   BANK0   BANK1   BANK2   BANK3   BANK4   BANK5   BANK6   BANK7   BANK8   BANK9  BANK10  BANK11  BANK12  BANK13  BANK14  BANK15
      Params:         0       0       0       0       0       0       0       0       0       0       0       0       0       0       0       0       0
      Locals:         0       0       2       0       0       0       0       0       0       0       0       0       0       0       0       0       0
      Temps:          0       0       2       0       0       0       0       0       0       0       0       0       0       0       0       0       0
      Totals:         0       0       4       0       0       0       0       0       0       0       0       0       0       0       0       0       0
Total ram usage:        4 bytes
 Hardware stack levels used:    1
 Hardware stack levels required when called:   16
 This function calls:
		Nothing
 This function is called by:
		_MuteAlarm
		_GetAlarmState
		_AlarmUpdateLCD
		_AlarmCheckTask
 This function uses a non-reentrant model


 *************** function _AlarmSet *****************
 Defined at:
		line 351 in file "alarm.c"
 Parameters:    Size  Location     Type
  id              1    wreg     unsigned char 
 Auto vars:     Size  Location     Type
  id              1    4[BANK1 ] unsigned char 
 Return value:  Size  Location     Type
                  1    wreg      void 
 Registers used:
		wreg, fsr2l, fsr2h, status,2, status,0, prodl, prodh
 Tracked objects:
		On entry : 
		On exit  : 
		Unchanged: 
 Data sizes:     COMRAM   BANK0   BANK1   BANK2   BANK3   BANK4   BANK5   BANK6   BANK7   BANK8   BANK9  BANK10  BANK11  BANK12  BANK13  BANK14  BANK15
      Params:         0       0       0       0       0       0       0       0       0       0       0       0       0       0       0       0       0
      Locals:         0       0       1       0       0       0       0       0       0       0       0       0       0       0       0       0       0
      Temps:          0       0       0       0       0       0       0       0       0       0       0       0       0       0       0       0       0
      Totals:         0       0       1       0       0       0       0       0       0       0       0       0       0       0       0       0       0
Total ram usage:        1 bytes
 Hardware stack levels used:    1
 Hardware stack levels required when called:   16
 This function calls:
		Nothing
 This function is called by:
		_AlarmCheckTask
 This function uses a non-reentrant model


 *************** function _AlarmClear *****************
 Defined at:
		line 355 in file "alarm.c"
 Parameters:    Size  Location     Type
  id              1    wreg     unsigned char 
 Auto vars:     Size  Location     Type
  id              1    4[BANK1 ] unsigned char 
 Return value:  Size  Location     Type
                  1    wreg      void 
 Registers used:
		wreg, fsr2l, fsr2h, status,2, status,0, prodl, prodh
 Tracked objects:
		On entry : 
		On exit  : 
		Unchanged: 
 Data sizes:     COMRAM   BANK0   BANK1   BANK2   BANK3   BANK4   BANK5   BANK6   BANK7   BANK8   BANK9  BANK10  BANK11  BANK12  BANK13  BANK14  BANK15
      Params:         0       0       0       0       0       0       0       0       0       0       0       0       0       0       0       0       0
      Locals:         0       0       1       0       0       0       0       0       0       0       0       0       0       0       0       0       0
      Temps:          0       0       0       0       0       0       0       0       0       0       0       0       0       0       0       0       0
      Totals:         0       0       1       0       0       0       0       0       0       0       0       0       0       0       0       0       0
Total ram usage:        1 bytes
 Hardware stack levels used:    1
 Hardware stack levels required when called:   16
 This function calls:
		Nothing
 This function is called by:
		_AlarmCheckTask
 This function uses a non-reentrant model


 *************** function _INTERRUPT_InterruptManager *****************
 Defined at:
		line 58 in file "mcc_generated_files/interrupt_manager.c"
 Parameters:    Size  Location     Type
		None
 Auto vars:     Size  Location     Type
		None
 Return value:  Size  Location     Type
                  1    wreg      void 
 Registers used:
		wreg, fsr1l, fsr1h, fsr2l, fsr2h, status,2, status,0, pclath, tosl, tblptrl, tblptrh, tblptru, prodl, prodh, cstack
 Tracked objects:
		On entry : 
		On exit  : 
		Unchanged: 
 Data sizes:     COMRAM   BANK0   BANK1   BANK2   BANK3   BANK4   BANK5   BANK6   BANK7   BANK8   BANK9  BANK10  BANK11  BANK12  BANK13  BANK14  BANK15
      Params:         0       0       0       0       0       0       0       0       0       0       0       0       0       0       0       0       0
      Locals:         0       0       0       0       0       0       0       0       0       0       0       0       0       0       0       0       0
      Temps:          0       0       4       0       0       0       0       0       0       0       0       0       0       0       0       0       0
      Totals:         0       0       4       0       0       0       0       0       0       0       0       0       0       0       0       0       0
Total ram usage:        4 bytes
 Hardware stack levels used:    1
 Hardware stack levels required when called:   15
 This function calls:
		Absolute function
		_ADCC_ThresholdISR
		_CMP1_ISR
		_I2C2_Isr
		_TMR0_ISR
		_TMR1_ISR
		_TMR4_ISR
		_TMR5_ISR
		_TMR6_ISR
		_UART1_Receive_ISR
		_UART1_Transmit_ISR
 This function is called by:
		Interrupt level 2
 This function uses a non-reentrant model


 *************** function _UART1_Transmit_ISR *****************
 Defined at:
		line 238 in file "mcc_generated_files/uart1.c"
 Parameters:    Size  Location     Type
		None
 Auto vars:     Size  Location     Type
		None
 Return value:  Size  Location     Type
                  1    wreg      void 
 Registers used:
		wreg, fsr2l, fsr2h, status,2, status,0
 Tracked objects:
		On entry : 
		On exit  : 
		Unchanged: 
 Data sizes:     COMRAM   BANK0   BANK1   BANK2   BANK3   BANK4   BANK5   BANK6   BANK7   BANK8   BANK9  BANK10  BANK11  BANK12  BANK13  BANK14  BANK15
      Params:         0       0       0       0       0       0       0       0       0       0       0       0       0       0       0       0       0
      Locals:         0       0       0       0       0       0       0       0       0       0       0       0       0       0       0       0       0
      Temps:          0       0       0       0       0       0       0       0       0       0       0       0       0       0       0       0       0
      Totals:         0       0       0       0       0       0       0       0       0       0       0       0       0       0       0       0       0
Total ram usage:        0 bytes
 Hardware stack levels used:    1
 This function calls:
		Nothing
 This function is called by:
		_UART1_Initialize
		_INTERRUPT_InterruptManager
 This function uses a non-reentrant model


 *************** function _UART1_Receive_ISR *****************
 Defined at:
		line 258 in file "mcc_generated_files/uart1.c"
 Parameters:    Size  Location     Type
		None
 Auto vars:     Size  Location     Type
		None
 Return value:  Size  Location     Type
                  1    wreg      void 
 Registers used:
		wreg, fsr2l, fsr2h, status,2, status,0, pclath, tosl, cstack
 Tracked objects:
		On entry : 
		On exit  : 
		Unchanged: 
 Data sizes:     COMRAM   BANK0   BANK1   BANK2   BANK3   BANK4   BANK5   BANK6   BANK7   BANK8   BANK9  BANK10  BANK11  BANK12  BANK13  BANK14  BANK15
      Params:         0       0       0       0       0       0       0       0       0       0       0       0       0       0       0       0       0
      Locals:         0       0       0       0       0       0       0       0       0       0       0       0       0       0       0       0       0
      Temps:          0       0       0       0       0       0       0       0       0       0       0       0       0       0       0       0       0
      Totals:         0       0       0       0       0       0       0       0       0       0       0       0       0       0       0       0       0
Total ram usage:        0 bytes
 Hardware stack levels used:    1
 Hardware stack levels required when called:    2
 This function calls:
		Absolute function
		_UART1_DefaultErrorHandler
		_UART1_DefaultFramingErrorHandler
		_UART1_DefaultOverrunErrorHandler
		_UART1_RxDataHandler
 This function is called by:
		_UART1_Initialize
		_INTERRUPT_InterruptManager
 This function uses a non-reentrant model


 *************** function _UART1_DefaultOverrunErrorHandler *****************
 Defined at:
		line 294 in file "mcc_generated_files/uart1.c"
 Parameters:    Size  Location     Type
		None
 Auto vars:     Size  Location     Type
		None
 Return value:  Size  Location     Type
                  1    wreg      void 
 Registers used:
		None
 Tracked objects:
		On entry : 
		On exit  : 
		Unchanged: 
 Data sizes:     COMRAM   BANK0   BANK1   BANK2   BANK3   BANK4   BANK5   BANK6   BANK7   BANK8   BANK9  BANK10  BANK11  BANK12  BANK13  BANK14  BANK15
      Params:         0       0       0       0       0       0       0       0       0       0       0       0       0       0       0       0       0
      Locals:         0       0       0       0       0       0       0       0       0       0       0       0       0       0       0       0       0
      Temps:          0       0       0       0       0       0       0       0       0       0       0       0       0       0       0       0       0
      Totals:         0       0       0       0       0       0       0       0       0       0       0       0       0       0       0       0       0
Total ram usage:        0 bytes
 Hardware stack levels used:    1
 This function calls:
		Nothing
 This function is called by:
		_UART1_Initialize
		_UART1_Receive_ISR
 This function uses a non-reentrant model


 *************** function _UART1_DefaultFramingErrorHandler *****************
 Defined at:
		line 292 in file "mcc_generated_files/uart1.c"
 Parameters:    Size  Location     Type
		None
 Auto vars:     Size  Location     Type
		None
 Return value:  Size  Location     Type
                  1    wreg      void 
 Registers used:
		None
 Tracked objects:
		On entry : 
		On exit  : 
		Unchanged: 
 Data sizes:     COMRAM   BANK0   BANK1   BANK2   BANK3   BANK4   BANK5   BANK6   BANK7   BANK8   BANK9  BANK10  BANK11  BANK12  BANK13  BANK14  BANK15
      Params:         0       0       0       0       0       0       0       0       0       0       0       0       0       0       0       0       0
      Locals:         0       0       0       0       0       0       0       0       0       0       0       0       0       0       0       0       0
      Temps:          0       0       0       0       0       0       0       0       0       0       0       0       0       0       0       0       0
      Totals:         0       0       0       0       0       0       0       0       0       0       0       0       0       0       0       0       0
Total ram usage:        0 bytes
 Hardware stack levels used:    1
 This function calls:
		Nothing
 This function is called by:
		_UART1_Initialize
		_UART1_Receive_ISR
 This function uses a non-reentrant model


 *************** function _UART1_DefaultErrorHandler *****************
 Defined at:
		line 296 in file "mcc_generated_files/uart1.c"
 Parameters:    Size  Location     Type
		None
 Auto vars:     Size  Location     Type
		None
 Return value:  Size  Location     Type
                  1    wreg      void 
 Registers used:
		wreg, fsr2l, fsr2h, status,2, status,0, cstack
 Tracked objects:
		On entry : 
		On exit  : 
		Unchanged: 
 Data sizes:     COMRAM   BANK0   BANK1   BANK2   BANK3   BANK4   BANK5   BANK6   BANK7   BANK8   BANK9  BANK10  BANK11  BANK12  BANK13  BANK14  BANK15
      Params:         0       0       0       0       0       0       0       0       0       0       0       0       0       0       0       0       0
      Locals:         0       0       0       0       0       0       0       0       0       0       0       0       0       0       0       0       0
      Temps:          0       0       0       0       0       0       0       0       0       0       0       0       0       0       0       0       0
      Totals:         0       0       0       0       0       0       0       0       0       0       0       0       0       0       0       0       0
Total ram usage:        0 bytes
 Hardware stack levels used:    1
 Hardware stack levels required when called:    1
 This function calls:
		_UART1_RxDataHandler
 This function is called by:
		_UART1_Initialize
		_UART1_Receive_ISR
 This function uses a non-reentrant model


 *************** function _UART1_RxDataHandler *****************
 Defined at:
		line 282 in file "mcc_generated_files/uart1.c"
 Parameters:    Size  Location     Type
		None
 Auto vars:     Size  Location     Type
		None
 Return value:  Size  Location     Type
                  1    wreg      void 
 Registers used:
		wreg, fsr2l, fsr2h, status,2, status,0
 Tracked objects:
		On entry : 
		On exit  : 
		Unchanged: 
 Data sizes:     COMRAM   BANK0   BANK1   BANK2   BANK3   BANK4   BANK5   BANK6   BANK7   BANK8   BANK9  BANK10  BANK11  BANK12  BANK13  BANK14  BANK15
      Params:         0       0       0       0       0       0       0       0       0       0       0       0       0       0       0       0       0
      Locals:         0       0       0       0       0       0       0       0       0       0       0       0       0       0       0       0       0
      Temps:          0       0       0       0       0       0       0       0       0       0       0       0       0       0       0       0       0
      Totals:         0       0       0       0       0       0       0       0       0       0       0       0       0       0       0       0       0
Total ram usage:        0 bytes
 Hardware stack levels used:    1
 This function calls:
		Nothing
 This function is called by:
		_UART1_Receive_ISR
		_UART1_DefaultErrorHandler
 This function uses a non-reentrant model


 *************** function _TMR6_ISR *****************
 Defined at:
		line 165 in file "mcc_generated_files/tmr6.c"
 Parameters:    Size  Location     Type
		None
 Auto vars:     Size  Location     Type
		None
 Return value:  Size  Location     Type
                  1    wreg      void 
 Registers used:
		wreg, fsr1l, fsr1h, fsr2l, fsr2h, status,2, status,0, pclath, tosl, tblptrl, tblptrh, tblptru, prodl, prodh, cstack
 Tracked objects:
		On entry : 
		On exit  : 
		Unchanged: 
 Data sizes:     COMRAM   BANK0   BANK1   BANK2   BANK3   BANK4   BANK5   BANK6   BANK7   BANK8   BANK9  BANK10  BANK11  BANK12  BANK13  BANK14  BANK15
      Params:         0       0       0       0       0       0       0       0       0       0       0       0       0       0       0       0       0
      Locals:         0       0       0       0       0       0       0       0       0       0       0       0       0       0       0       0       0
      Temps:          0       0       0       0       0       0       0       0       0       0       0       0       0       0       0       0       0
      Totals:         0       0       0       0       0       0       0       0       0       0       0       0       0       0       0       0       0
Total ram usage:        0 bytes
 Hardware stack levels used:    1
 Hardware stack levels required when called:   10
 This function calls:
		Absolute function
		_ControllerTimerHandler
		_TMR6_DefaultInterruptHandler
 This function is called by:
		_INTERRUPT_InterruptManager
 This function uses a non-reentrant model


 *************** function _ControllerTimerHandler *****************
 Defined at:
		line 193 in file "controller.c"
 Parameters:    Size  Location     Type
		None
 Auto vars:     Size  Location     Type
		None
 Return value:  Size  Location     Type
                  1    wreg      void 
 Registers used:
		wreg, fsr1l, fsr1h, fsr2l, fsr2h, status,2, status,0, tblptrl, tblptrh, tblptru, prodl, prodh, cstack
 Tracked objects:
		On entry : 
		On exit  : 
		Unchanged: 
 Data sizes:     COMRAM   BANK0   BANK1   BANK2   BANK3   BANK4   BANK5   BANK6   BANK7   BANK8   BANK9  BANK10  BANK11  BANK12  BANK13  BANK14  BANK15
      Params:         0       0       0       0       0       0       0       0       0       0       0       0       0       0       0       0       0
      Locals:         0       0       0       0       0       0       0       0       0       0       0       0       0       0       0       0       0
      Temps:          0       0       0       0       0       0       0       0       0       0       0       0       0       0       0       0       0
      Totals:         0       0       0       0       0       0       0       0       0       0       0       0       0       0       0       0       0
Total ram usage:        0 bytes
 Hardware stack levels used:    1
 Hardware stack levels required when called:    9
 This function calls:
		_SetControlFailAlarm
		i2_ClearControlFailAlarm
		i2___awmod
		i2_printf
 This function is called by:
		_ControllerInit
		_TMR6_ISR
 This function uses a non-reentrant model


 *************** function _TMR6_DefaultInterruptHandler *****************
 Defined at:
		line 182 in file "mcc_generated_files/tmr6.c"
 Parameters:    Size  Location     Type
		None
 Auto vars:     Size  Location     Type
		None
 Return value:  Size  Location     Type
                  1    wreg      void 
 Registers used:
		None
 Tracked objects:
		On entry : 
		On exit  : 
		Unchanged: 
 Data sizes:     COMRAM   BANK0   BANK1   BANK2   BANK3   BANK4   BANK5   BANK6   BANK7   BANK8   BANK9  BANK10  BANK11  BANK12  BANK13  BANK14  BANK15
      Params:         0       0       0       0       0       0       0       0       0       0       0       0       0       0       0       0       0
      Locals:         0       0       0       0       0       0       0       0       0       0       0       0       0       0       0       0       0
      Temps:          0       0       0       0       0       0       0       0       0       0       0       0       0       0       0       0       0
      Totals:         0       0       0       0       0       0       0       0       0       0       0       0       0       0       0       0       0
Total ram usage:        0 bytes
 Hardware stack levels used:    1
 This function calls:
		Nothing
 This function is called by:
		_TMR6_Initialize
		_TMR6_ISR
 This function uses a non-reentrant model


 *************** function _TMR5_ISR *****************
 Defined at:
		line 164 in file "mcc_generated_files/tmr5.c"
 Parameters:    Size  Location     Type
		None
 Auto vars:     Size  Location     Type
		None
 Return value:  Size  Location     Type
                  1    wreg      void 
 Registers used:
		wreg, fsr1l, fsr1h, fsr2l, fsr2h, status,2, status,0, pclath, tosl, tblptrl, tblptrh, tblptru, prodl, prodh, cstack
 Tracked objects:
		On entry : 
		On exit  : 
		Unchanged: 
 Data sizes:     COMRAM   BANK0   BANK1   BANK2   BANK3   BANK4   BANK5   BANK6   BANK7   BANK8   BANK9  BANK10  BANK11  BANK12  BANK13  BANK14  BANK15
      Params:         0       0       0       0       0       0       0       0       0       0       0       0       0       0       0       0       0
      Locals:         0       0       0       0       0       0       0       0       0       0       0       0       0       0       0       0       0
      Temps:          0       0       0       0       0       0       0       0       0       0       0       0       0       0       0       0       0
      Totals:         0       0       0       0       0       0       0       0       0       0       0       0       0       0       0       0       0
Total ram usage:        0 bytes
 Hardware stack levels used:    1
 Hardware stack levels required when called:   10
 This function calls:
		Absolute function
		_AlarmHandler
		_TMR5_DefaultInterruptHandler
		_TMR5_WriteTimer
 This function is called by:
		_INTERRUPT_InterruptManager
 This function uses a non-reentrant model


 *************** function _TMR5_WriteTimer *****************
 Defined at:
		line 127 in file "mcc_generated_files/tmr5.c"
 Parameters:    Size  Location     Type
  timerVal        2    0[COMRAM] unsigned short 
 Auto vars:     Size  Location     Type
		None
 Return value:  Size  Location     Type
                  1    wreg      void 
 Registers used:
		None
 Tracked objects:
		On entry : 
		On exit  : 
		Unchanged: 
 Data sizes:     COMRAM   BANK0   BANK1   BANK2   BANK3   BANK4   BANK5   BANK6   BANK7   BANK8   BANK9  BANK10  BANK11  BANK12  BANK13  BANK14  BANK15
      Params:         2       0       0       0       0       0       0       0       0       0       0       0       0       0       0       0       0
      Locals:         0       0       0       0       0       0       0       0       0       0       0       0       0       0       0       0       0
      Temps:          0       0       0       0       0       0       0       0       0       0       0       0       0       0       0       0       0
      Totals:         2       0       0       0       0       0       0       0       0       0       0       0       0       0       0       0       0
Total ram usage:        2 bytes
 Hardware stack levels used:    1
 This function calls:
		Nothing
 This function is called by:
		_TMR5_ISR
 This function uses a non-reentrant model


 *************** function _AlarmHandler *****************
 Defined at:
		line 557 in file "alarm.c"
 Parameters:    Size  Location     Type
		None
 Auto vars:     Size  Location     Type
		None
 Return value:  Size  Location     Type
                  1    wreg      void 
 Registers used:
		wreg, fsr1l, fsr1h, fsr2l, fsr2h, status,2, status,0, tblptrl, tblptrh, tblptru, prodl, prodh, cstack
 Tracked objects:
		On entry : 
		On exit  : 
		Unchanged: 
 Data sizes:     COMRAM   BANK0   BANK1   BANK2   BANK3   BANK4   BANK5   BANK6   BANK7   BANK8   BANK9  BANK10  BANK11  BANK12  BANK13  BANK14  BANK15
      Params:         0       0       0       0       0       0       0       0       0       0       0       0       0       0       0       0       0
      Locals:         0       0       0       0       0       0       0       0       0       0       0       0       0       0       0       0       0
      Temps:          2       0       0       0       0       0       0       0       0       0       0       0       0       0       0       0       0
      Totals:         2       0       0       0       0       0       0       0       0       0       0       0       0       0       0       0       0
Total ram usage:        2 bytes
 Hardware stack levels used:    1
 Hardware stack levels required when called:    9
 This function calls:
		i2_AnyAlarm
		i2_printf
 This function is called by:
		_AlarmInit
		_TMR5_ISR
 This function uses a non-reentrant model


 *************** function _TMR5_DefaultInterruptHandler *****************
 Defined at:
		line 182 in file "mcc_generated_files/tmr5.c"
 Parameters:    Size  Location     Type
		None
 Auto vars:     Size  Location     Type
		None
 Return value:  Size  Location     Type
                  1    wreg      void 
 Registers used:
		None
 Tracked objects:
		On entry : 
		On exit  : 
		Unchanged: 
 Data sizes:     COMRAM   BANK0   BANK1   BANK2   BANK3   BANK4   BANK5   BANK6   BANK7   BANK8   BANK9  BANK10  BANK11  BANK12  BANK13  BANK14  BANK15
      Params:         0       0       0       0       0       0       0       0       0       0       0       0       0       0       0       0       0
      Locals:         0       0       0       0       0       0       0       0       0       0       0       0       0       0       0       0       0
      Temps:          0       0       0       0       0       0       0       0       0       0       0       0       0       0       0       0       0
      Totals:         0       0       0       0       0       0       0       0       0       0       0       0       0       0       0       0       0
Total ram usage:        0 bytes
 Hardware stack levels used:    1
 This function calls:
		Nothing
 This function is called by:
		_TMR5_Initialize
		_TMR5_ISR
 This function uses a non-reentrant model


 *************** function _TMR4_ISR *****************
 Defined at:
		line 165 in file "mcc_generated_files/tmr4.c"
 Parameters:    Size  Location     Type
		None
 Auto vars:     Size  Location     Type
		None
 Return value:  Size  Location     Type
                  1    wreg      void 
 Registers used:
		wreg, fsr1l, fsr1h, fsr2l, fsr2h, status,2, status,0, pclath, tosl, tblptrl, tblptrh, tblptru, prodl, prodh, cstack
 Tracked objects:
		On entry : 
		On exit  : 
		Unchanged: 
 Data sizes:     COMRAM   BANK0   BANK1   BANK2   BANK3   BANK4   BANK5   BANK6   BANK7   BANK8   BANK9  BANK10  BANK11  BANK12  BANK13  BANK14  BANK15
      Params:         0       0       0       0       0       0       0       0       0       0       0       0       0       0       0       0       0
      Locals:         0       0       0       0       0       0       0       0       0       0       0       0       0       0       0       0       0
      Temps:          0       0       0       0       0       0       0       0       0       0       0       0       0       0       0       0       0
      Totals:         0       0       0       0       0       0       0       0       0       0       0       0       0       0       0       0       0
Total ram usage:        0 bytes
 Hardware stack levels used:    1
 Hardware stack levels required when called:   11
 This function calls:
		Absolute function
		_BuzzerHandler
		_BuzzerTestHandler
		_TMR4_DefaultInterruptHandler
 This function is called by:
		_INTERRUPT_InterruptManager
 This function uses a non-reentrant model


 *************** function _BuzzerTestHandler *****************
 Defined at:
		line 82 in file "buzzer.c"
 Parameters:    Size  Location     Type
		None
 Auto vars:     Size  Location     Type
		None
 Return value:  Size  Location     Type
                  1    wreg      void 
 Registers used:
		wreg, fsr1l, fsr1h, fsr2l, fsr2h, status,2, status,0, tblptrl, tblptrh, tblptru, prodl, prodh, cstack
 Tracked objects:
		On entry : 
		On exit  : 
		Unchanged: 
 Data sizes:     COMRAM   BANK0   BANK1   BANK2   BANK3   BANK4   BANK5   BANK6   BANK7   BANK8   BANK9  BANK10  BANK11  BANK12  BANK13  BANK14  BANK15
      Params:         0       0       0       0       0       0       0       0       0       0       0       0       0       0       0       0       0
      Locals:         0       0       0       0       0       0       0       0       0       0       0       0       0       0       0       0       0
      Temps:          0       0       0       0       0       0       0       0       0       0       0       0       0       0       0       0       0
      Totals:         0       0       0       0       0       0       0       0       0       0       0       0       0       0       0       0       0
Total ram usage:        0 bytes
 Hardware stack levels used:    1
 Hardware stack levels required when called:    9
 This function calls:
		i2_BuzzerOff
		i2_printf
 This function is called by:
		_BuzzerTest
		_TMR4_ISR
 This function uses a non-reentrant model


 *************** function _BuzzerHandler *****************
 Defined at:
		line 77 in file "buzzer.c"
 Parameters:    Size  Location     Type
		None
 Auto vars:     Size  Location     Type
		None
 Return value:  Size  Location     Type
                  1    wreg      void 
 Registers used:
		wreg, fsr1l, fsr1h, fsr2l, fsr2h, status,2, status,0, tblptrl, tblptrh, tblptru, prodl, prodh, cstack
 Tracked objects:
		On entry : 
		On exit  : 
		Unchanged: 
 Data sizes:     COMRAM   BANK0   BANK1   BANK2   BANK3   BANK4   BANK5   BANK6   BANK7   BANK8   BANK9  BANK10  BANK11  BANK12  BANK13  BANK14  BANK15
      Params:         0       0       0       0       0       0       0       0       0       0       0       0       0       0       0       0       0
      Locals:         0       0       0       0       0       0       0       0       0       0       0       0       0       0       0       0       0
      Temps:          0       0       0       0       0       0       0       0       0       0       0       0       0       0       0       0       0
      Totals:         0       0       0       0       0       0       0       0       0       0       0       0       0       0       0       0       0
Total ram usage:        0 bytes
 Hardware stack levels used:    1
 Hardware stack levels required when called:   10
 This function calls:
		i2_BuzzerTask
 This function is called by:
		_BuzzerTask
		_BuzzerInit
		i2_BuzzerTask
		_TMR4_ISR
 This function uses a non-reentrant model


 *************** function _TMR4_DefaultInterruptHandler *****************
 Defined at:
		line 182 in file "mcc_generated_files/tmr4.c"
 Parameters:    Size  Location     Type
		None
 Auto vars:     Size  Location     Type
		None
 Return value:  Size  Location     Type
                  1    wreg      void 
 Registers used:
		None
 Tracked objects:
		On entry : 
		On exit  : 
		Unchanged: 
 Data sizes:     COMRAM   BANK0   BANK1   BANK2   BANK3   BANK4   BANK5   BANK6   BANK7   BANK8   BANK9  BANK10  BANK11  BANK12  BANK13  BANK14  BANK15
      Params:         0       0       0       0       0       0       0       0       0       0       0       0       0       0       0       0       0
      Locals:         0       0       0       0       0       0       0       0       0       0       0       0       0       0       0       0       0
      Temps:          0       0       0       0       0       0       0       0       0       0       0       0       0       0       0       0       0
      Totals:         0       0       0       0       0       0       0       0       0       0       0       0       0       0       0       0       0
Total ram usage:        0 bytes
 Hardware stack levels used:    1
 This function calls:
		Nothing
 This function is called by:
		_TMR4_Initialize
		_TMR4_ISR
 This function uses a non-reentrant model


 *************** function i2_BuzzerTask *****************
 Defined at:
		line 132 in file "buzzer.c"
 Parameters:    Size  Location     Type
		None
 Auto vars:     Size  Location     Type
		None
 Return value:  Size  Location     Type
                  1    wreg      void 
 Registers used:
		wreg, fsr1l, fsr1h, fsr2l, fsr2h, status,2, status,0, tblptrl, tblptrh, tblptru, prodl, prodh, cstack
 Tracked objects:
		On entry : 
		On exit  : 
		Unchanged: 
 Data sizes:     COMRAM   BANK0   BANK1   BANK2   BANK3   BANK4   BANK5   BANK6   BANK7   BANK8   BANK9  BANK10  BANK11  BANK12  BANK13  BANK14  BANK15
      Params:         0       0       0       0       0       0       0       0       0       0       0       0       0       0       0       0       0
      Locals:         0       0       0       0       0       0       0       0       0       0       0       0       0       0       0       0       0
      Temps:          2       0       0       0       0       0       0       0       0       0       0       0       0       0       0       0       0
      Totals:         2       0       0       0       0       0       0       0       0       0       0       0       0       0       0       0       0
Total ram usage:        2 bytes
 Hardware stack levels used:    1
 Hardware stack levels required when called:    9
 This function calls:
		i2_BuzzerOff
		i2_BuzzerOn
		i2_ClearMonitorFailAlarm
		i2_SetMonitorFailAlarm
		i2_TMR4_Period8BitSet
		i2_TMR4_SetInterruptHandler
		i2_TMR4_Start
		i2_TMR4_Stop
		i2_printf
 This function is called by:
		_BuzzerHandler
 This function uses a non-reentrant model


 *************** function i2_TMR4_Start *****************
 Defined at:
		line 108 in file "mcc_generated_files/tmr4.c"
 Parameters:    Size  Location     Type
		None
 Auto vars:     Size  Location     Type
		None
 Return value:  Size  Location     Type
                  1    wreg      void 
 Registers used:
		None
 Tracked objects:
		On entry : 
		On exit  : 
		Unchanged: 
 Data sizes:     COMRAM   BANK0   BANK1   BANK2   BANK3   BANK4   BANK5   BANK6   BANK7   BANK8   BANK9  BANK10  BANK11  BANK12  BANK13  BANK14  BANK15
      Params:         0       0       0       0       0       0       0       0       0       0       0       0       0       0       0       0       0
      Locals:         0       0       0       0       0       0       0       0       0       0       0       0       0       0       0       0       0
      Temps:          0       0       0       0       0       0       0       0       0       0       0       0       0       0       0       0       0
      Totals:         0       0       0       0       0       0       0       0       0       0       0       0       0       0       0       0       0
Total ram usage:        0 bytes
 Hardware stack levels used:    1
 This function calls:
		Nothing
 This function is called by:
		i2_BuzzerTask
 This function uses a non-reentrant model


 *************** function i2_TMR4_SetInterruptHandler *****************
 Defined at:
		line 178 in file "mcc_generated_files/tmr4.c"
 Parameters:    Size  Location     Type
  InterruptHan    2    0[COMRAM] PTR FTN()void 
		 -> BuzzerTestHandler(1), BuzzerHandler(1), TMR4_DefaultInterruptHandler(1), 
 Auto vars:     Size  Location     Type
		None
 Return value:  Size  Location     Type
                  1    wreg      void 
 Registers used:
		wreg, status,2, status,0
 Tracked objects:
		On entry : 
		On exit  : 
		Unchanged: 
 Data sizes:     COMRAM   BANK0   BANK1   BANK2   BANK3   BANK4   BANK5   BANK6   BANK7   BANK8   BANK9  BANK10  BANK11  BANK12  BANK13  BANK14  BANK15
      Params:         2       0       0       0       0       0       0       0       0       0       0       0       0       0       0       0       0
      Locals:         0       0       0       0       0       0       0       0       0       0       0       0       0       0       0       0       0
      Temps:          0       0       0       0       0       0       0       0       0       0       0       0       0       0       0       0       0
      Totals:         2       0       0       0       0       0       0       0       0       0       0       0       0       0       0       0       0
Total ram usage:        2 bytes
 Hardware stack levels used:    1
 This function calls:
		Nothing
 This function is called by:
		i2_BuzzerTask
 This function uses a non-reentrant model


 *************** function i2_TMR4_Period8BitSet *****************
 Defined at:
		line 155 in file "mcc_generated_files/tmr4.c"
 Parameters:    Size  Location     Type
  periodVal       1    wreg     unsigned char 
 Auto vars:     Size  Location     Type
  periodVal       1    0[COMRAM] unsigned char 
 Return value:  Size  Location     Type
                  1    wreg      void 
 Registers used:
		wreg
 Tracked objects:
		On entry : 
		On exit  : 
		Unchanged: 
 Data sizes:     COMRAM   BANK0   BANK1   BANK2   BANK3   BANK4   BANK5   BANK6   BANK7   BANK8   BANK9  BANK10  BANK11  BANK12  BANK13  BANK14  BANK15
      Params:         0       0       0       0       0       0       0       0       0       0       0       0       0       0       0       0       0
      Locals:         1       0       0       0       0       0       0       0       0       0       0       0       0       0       0       0       0
      Temps:          0       0       0       0       0       0       0       0       0       0       0       0       0       0       0       0       0
      Totals:         1       0       0       0       0       0       0       0       0       0       0       0       0       0       0       0       0
Total ram usage:        1 bytes
 Hardware stack levels used:    1
 This function calls:
		Nothing
 This function is called by:
		i2_BuzzerTask
 This function uses a non-reentrant model


 *************** function i2_SetMonitorFailAlarm *****************
 Defined at:
		line 225 in file "alarm.c"
 Parameters:    Size  Location     Type
		None
 Auto vars:     Size  Location     Type
		None
 Return value:  Size  Location     Type
                  1    wreg      void 
 Registers used:
		wreg, status,2
 Tracked objects:
		On entry : 
		On exit  : 
		Unchanged: 
 Data sizes:     COMRAM   BANK0   BANK1   BANK2   BANK3   BANK4   BANK5   BANK6   BANK7   BANK8   BANK9  BANK10  BANK11  BANK12  BANK13  BANK14  BANK15
      Params:         0       0       0       0       0       0       0       0       0       0       0       0       0       0       0       0       0
      Locals:         0       0       0       0       0       0       0       0       0       0       0       0       0       0       0       0       0
      Temps:          0       0       0       0       0       0       0       0       0       0       0       0       0       0       0       0       0
      Totals:         0       0       0       0       0       0       0       0       0       0       0       0       0       0       0       0       0
Total ram usage:        0 bytes
 Hardware stack levels used:    1
 This function calls:
		Nothing
 This function is called by:
		i2_BuzzerTask
 This function uses a non-reentrant model


 *************** function i2_BuzzerOn *****************
 Defined at:
		line 446 in file "buzzer.c"
 Parameters:    Size  Location     Type
  period          1    wreg     unsigned char 
 Auto vars:     Size  Location     Type
  period          1    0[COMRAM] unsigned char 
 Return value:  Size  Location     Type
                  1    wreg      void 
 Registers used:
		wreg, status,2, cstack
 Tracked objects:
		On entry : 
		On exit  : 
		Unchanged: 
 Data sizes:     COMRAM   BANK0   BANK1   BANK2   BANK3   BANK4   BANK5   BANK6   BANK7   BANK8   BANK9  BANK10  BANK11  BANK12  BANK13  BANK14  BANK15
      Params:         0       0       0       0       0       0       0       0       0       0       0       0       0       0       0       0       0
      Locals:         1       0       0       0       0       0       0       0       0       0       0       0       0       0       0       0       0
      Temps:          0       0       0       0       0       0       0       0       0       0       0       0       0       0       0       0       0
      Totals:         1       0       0       0       0       0       0       0       0       0       0       0       0       0       0       0       0
Total ram usage:        1 bytes
 Hardware stack levels used:    1
 Hardware stack levels required when called:    1
 This function calls:
		i2_CMP1_Enable
 This function is called by:
		i2_BuzzerTask
 This function uses a non-reentrant model


 *************** function _TMR1_ISR *****************
 Defined at:
		line 164 in file "mcc_generated_files/tmr1.c"
 Parameters:    Size  Location     Type
		None
 Auto vars:     Size  Location     Type
		None
 Return value:  Size  Location     Type
                  1    wreg      void 
 Registers used:
		wreg, fsr1l, fsr1h, fsr2l, fsr2h, status,2, status,0, pclath, tosl, tblptrl, tblptrh, tblptru, prodl, prodh, cstack
 Tracked objects:
		On entry : 
		On exit  : 
		Unchanged: 
 Data sizes:     COMRAM   BANK0   BANK1   BANK2   BANK3   BANK4   BANK5   BANK6   BANK7   BANK8   BANK9  BANK10  BANK11  BANK12  BANK13  BANK14  BANK15
      Params:         0       0       0       0       0       0       0       0       0       0       0       0       0       0       0       0       0
      Locals:         0       0       0       0       0       0       0       0       0       0       0       0       0       0       0       0       0
      Temps:          0       0       0       0       0       0       0       0       0       0       0       0       0       0       0       0       0
      Totals:         0       0       0       0       0       0       0       0       0       0       0       0       0       0       0       0       0
Total ram usage:        0 bytes
 Hardware stack levels used:    1
 Hardware stack levels required when called:   14
 This function calls:
		Absolute function
		_ButtonTask
		_TMR1_DefaultInterruptHandler
		_TMR1_WriteTimer
 This function is called by:
		_INTERRUPT_InterruptManager
 This function uses a non-reentrant model


 *************** function _TMR1_WriteTimer *****************
 Defined at:
		line 127 in file "mcc_generated_files/tmr1.c"
 Parameters:    Size  Location     Type
  timerVal        2    0[COMRAM] unsigned short 
 Auto vars:     Size  Location     Type
		None
 Return value:  Size  Location     Type
                  1    wreg      void 
 Registers used:
		None
 Tracked objects:
		On entry : 
		On exit  : 
		Unchanged: 
 Data sizes:     COMRAM   BANK0   BANK1   BANK2   BANK3   BANK4   BANK5   BANK6   BANK7   BANK8   BANK9  BANK10  BANK11  BANK12  BANK13  BANK14  BANK15
      Params:         2       0       0       0       0       0       0       0       0       0       0       0       0       0       0       0       0
      Locals:         0       0       0       0       0       0       0       0       0       0       0       0       0       0       0       0       0
      Temps:          0       0       0       0       0       0       0       0       0       0       0       0       0       0       0       0       0
      Totals:         2       0       0       0       0       0       0       0       0       0       0       0       0       0       0       0       0
Total ram usage:        2 bytes
 Hardware stack levels used:    1
 This function calls:
		Nothing
 This function is called by:
		_TMR1_ISR
 This function uses a non-reentrant model


 *************** function _ButtonTask *****************
 Defined at:
		line 43 in file "buttons.c"
 Parameters:    Size  Location     Type
		None
 Auto vars:     Size  Location     Type
		None
 Return value:  Size  Location     Type
                  1    wreg      void 
 Registers used:
		wreg, fsr1l, fsr1h, fsr2l, fsr2h, status,2, status,0, tblptrl, tblptrh, tblptru, prodl, prodh, cstack
 Tracked objects:
		On entry : 
		On exit  : 
		Unchanged: 
 Data sizes:     COMRAM   BANK0   BANK1   BANK2   BANK3   BANK4   BANK5   BANK6   BANK7   BANK8   BANK9  BANK10  BANK11  BANK12  BANK13  BANK14  BANK15
      Params:         0       0       0       0       0       0       0       0       0       0       0       0       0       0       0       0       0
      Locals:         0       0       0       0       0       0       0       0       0       0       0       0       0       0       0       0       0
      Temps:          0       1       0       0       0       0       0       0       0       0       0       0       0       0       0       0       0
      Totals:         0       1       0       0       0       0       0       0       0       0       0       0       0       0       0       0       0
Total ram usage:        1 bytes
 Hardware stack levels used:    1
 Hardware stack levels required when called:   13
 This function calls:
		i2_DisableAlarmSV1
		i2_HistAlarm
		i2_MuteAlarm
		i2_printf
 This function is called by:
		_ButtonInit
		_TMR1_ISR
 This function uses a non-reentrant model


 *************** function _TMR1_DefaultInterruptHandler *****************
 Defined at:
		line 182 in file "mcc_generated_files/tmr1.c"
 Parameters:    Size  Location     Type
		None
 Auto vars:     Size  Location     Type
		None
 Return value:  Size  Location     Type
                  1    wreg      void 
 Registers used:
		None
 Tracked objects:
		On entry : 
		On exit  : 
		Unchanged: 
 Data sizes:     COMRAM   BANK0   BANK1   BANK2   BANK3   BANK4   BANK5   BANK6   BANK7   BANK8   BANK9  BANK10  BANK11  BANK12  BANK13  BANK14  BANK15
      Params:         0       0       0       0       0       0       0       0       0       0       0       0       0       0       0       0       0
      Locals:         0       0       0       0       0       0       0       0       0       0       0       0       0       0       0       0       0
      Temps:          0       0       0       0       0       0       0       0       0       0       0       0       0       0       0       0       0
      Totals:         0       0       0       0       0       0       0       0       0       0       0       0       0       0       0       0       0
Total ram usage:        0 bytes
 Hardware stack levels used:    1
 This function calls:
		Nothing
 This function is called by:
		_TMR1_Initialize
		_TMR1_ISR
 This function uses a non-reentrant model


 *************** function i2_MuteAlarm *****************
 Defined at:
		line 377 in file "alarm.c"
 Parameters:    Size  Location     Type
		None
 Auto vars:     Size  Location     Type
  MuteAlarm       2   34[BANK0 ] int 
 Return value:  Size  Location     Type
                  1    wreg      void 
 Registers used:
		wreg, fsr1l, fsr1h, fsr2l, fsr2h, status,2, status,0, tblptrl, tblptrh, tblptru, prodl, prodh, cstack
 Tracked objects:
		On entry : 
		On exit  : 
		Unchanged: 
 Data sizes:     COMRAM   BANK0   BANK1   BANK2   BANK3   BANK4   BANK5   BANK6   BANK7   BANK8   BANK9  BANK10  BANK11  BANK12  BANK13  BANK14  BANK15
      Params:         0       0       0       0       0       0       0       0       0       0       0       0       0       0       0       0       0
      Locals:         0       3       0       0       0       0       0       0       0       0       0       0       0       0       0       0       0
      Temps:          2       0       0       0       0       0       0       0       0       0       0       0       0       0       0       0       0
      Totals:         2       3       0       0       0       0       0       0       0       0       0       0       0       0       0       0       0
Total ram usage:        5 bytes
 Hardware stack levels used:    1
 Hardware stack levels required when called:   10
 This function calls:
		i2_AnyAlarm
		i2_BuzzerClear
		i2_ClearCircuitFailureAlarm
		i2_ClearControlFailAlarm
		i2_ClearGasFailureAlarm
		i2_ClearHighPressureAlarmHigh
		i2_ClearMonitorFailAlarm
		i2_ClearVeryHighPressureAlarmHigh
		i2_HigherAlarm
		i2_SetAlarmSV1
		i2___wmul
		i2_printf
 This function is called by:
		_ButtonTask
 This function uses a non-reentrant model


 *************** function i2_SetAlarmSV1 *****************
 Defined at:
		line 883 in file "monitor.c"
 Parameters:    Size  Location     Type
  value           1    wreg     _Bool 
 Auto vars:     Size  Location     Type
  value           1   90[COMRAM] _Bool 
 Return value:  Size  Location     Type
                  1    wreg      void 
 Registers used:
		wreg, fsr1l, fsr1h, fsr2l, fsr2h, status,2, status,0, tblptrl, tblptrh, tblptru, prodl, prodh, cstack
 Tracked objects:
		On entry : 
		On exit  : 
		Unchanged: 
 Data sizes:     COMRAM   BANK0   BANK1   BANK2   BANK3   BANK4   BANK5   BANK6   BANK7   BANK8   BANK9  BANK10  BANK11  BANK12  BANK13  BANK14  BANK15
      Params:         0       0       0       0       0       0       0       0       0       0       0       0       0       0       0       0       0
      Locals:         1       0       0       0       0       0       0       0       0       0       0       0       0       0       0       0       0
      Temps:          0       0       0       0       0       0       0       0       0       0       0       0       0       0       0       0       0
      Totals:         1       0       0       0       0       0       0       0       0       0       0       0       0       0       0       0       0
Total ram usage:        1 bytes
 Hardware stack levels used:    1
 Hardware stack levels required when called:    9
 This function calls:
		i2_printf
 This function is called by:
		i2_MuteAlarm
 This function uses a non-reentrant model


 *************** function i2_BuzzerClear *****************
 Defined at:
		line 71 in file "buzzer.c"
 Parameters:    Size  Location     Type
		None
 Auto vars:     Size  Location     Type
		None
 Return value:  Size  Location     Type
                  1    wreg      void 
 Registers used:
		wreg, status,2, cstack
 Tracked objects:
		On entry : 
		On exit  : 
		Unchanged: 
 Data sizes:     COMRAM   BANK0   BANK1   BANK2   BANK3   BANK4   BANK5   BANK6   BANK7   BANK8   BANK9  BANK10  BANK11  BANK12  BANK13  BANK14  BANK15
      Params:         0       0       0       0       0       0       0       0       0       0       0       0       0       0       0       0       0
      Locals:         0       0       0       0       0       0       0       0       0       0       0       0       0       0       0       0       0
      Temps:          0       0       0       0       0       0       0       0       0       0       0       0       0       0       0       0       0
      Totals:         0       0       0       0       0       0       0       0       0       0       0       0       0       0       0       0       0
Total ram usage:        0 bytes
 Hardware stack levels used:    1
 Hardware stack levels required when called:    2
 This function calls:
		i2_BuzzerOff
		i2_TMR4_Stop
 This function is called by:
		i2_MuteAlarm
 This function uses a non-reentrant model


 *************** function i2_TMR4_Stop *****************
 Defined at:
		line 119 in file "mcc_generated_files/tmr4.c"
 Parameters:    Size  Location     Type
		None
 Auto vars:     Size  Location     Type
		None
 Return value:  Size  Location     Type
                  1    wreg      void 
 Registers used:
		None
 Tracked objects:
		On entry : 
		On exit  : 
		Unchanged: 
 Data sizes:     COMRAM   BANK0   BANK1   BANK2   BANK3   BANK4   BANK5   BANK6   BANK7   BANK8   BANK9  BANK10  BANK11  BANK12  BANK13  BANK14  BANK15
      Params:         0       0       0       0       0       0       0       0       0       0       0       0       0       0       0       0       0
      Locals:         0       0       0       0       0       0       0       0       0       0       0       0       0       0       0       0       0
      Temps:          0       0       0       0       0       0       0       0       0       0       0       0       0       0       0       0       0
      Totals:         0       0       0       0       0       0       0       0       0       0       0       0       0       0       0       0       0
Total ram usage:        0 bytes
 Hardware stack levels used:    1
 This function calls:
		Nothing
 This function is called by:
		i2_BuzzerClear
		i2_BuzzerTask
 This function uses a non-reentrant model


 *************** function i2_BuzzerOff *****************
 Defined at:
		line 458 in file "buzzer.c"
 Parameters:    Size  Location     Type
		None
 Auto vars:     Size  Location     Type
		None
 Return value:  Size  Location     Type
                  1    wreg      void 
 Registers used:
		wreg, status,2, cstack
 Tracked objects:
		On entry : 
		On exit  : 
		Unchanged: 
 Data sizes:     COMRAM   BANK0   BANK1   BANK2   BANK3   BANK4   BANK5   BANK6   BANK7   BANK8   BANK9  BANK10  BANK11  BANK12  BANK13  BANK14  BANK15
      Params:         0       0       0       0       0       0       0       0       0       0       0       0       0       0       0       0       0
      Locals:         0       0       0       0       0       0       0       0       0       0       0       0       0       0       0       0       0
      Temps:          0       0       0       0       0       0       0       0       0       0       0       0       0       0       0       0       0
      Totals:         0       0       0       0       0       0       0       0       0       0       0       0       0       0       0       0       0
Total ram usage:        0 bytes
 Hardware stack levels used:    1
 Hardware stack levels required when called:    1
 This function calls:
		i2_CMP1_Disable
 This function is called by:
		_BuzzerTestHandler
		i2_BuzzerClear
		i2_BuzzerTask
 This function uses a non-reentrant model


 *************** function i2_HistAlarm *****************
 Defined at:
		line 465 in file "alarm.c"
 Parameters:    Size  Location     Type
		None
 Auto vars:     Size  Location     Type
  HistAlarm       2   93[COMRAM] int 
 Return value:  Size  Location     Type
                  1    wreg      void 
 Registers used:
		wreg, fsr1l, fsr1h, fsr2l, fsr2h, status,2, status,0, tblptrl, tblptrh, tblptru, prodl, prodh, cstack
 Tracked objects:
		On entry : 
		On exit  : 
		Unchanged: 
 Data sizes:     COMRAM   BANK0   BANK1   BANK2   BANK3   BANK4   BANK5   BANK6   BANK7   BANK8   BANK9  BANK10  BANK11  BANK12  BANK13  BANK14  BANK15
      Params:         0       0       0       0       0       0       0       0       0       0       0       0       0       0       0       0       0
      Locals:         2       0       0       0       0       0       0       0       0       0       0       0       0       0       0       0       0
      Temps:          2       0       0       0       0       0       0       0       0       0       0       0       0       0       0       0       0
      Totals:         4       0       0       0       0       0       0       0       0       0       0       0       0       0       0       0       0
Total ram usage:        4 bytes
 Hardware stack levels used:    1
 Hardware stack levels required when called:   12
 This function calls:
		i2_AlarmUpdateLCD
		i2_TMR5_StartTimer
		i2_TMR5_StopTimer
 This function is called by:
		_ButtonTask
 This function uses a non-reentrant model


 *************** function i2_TMR5_StopTimer *****************
 Defined at:
		line 105 in file "mcc_generated_files/tmr5.c"
 Parameters:    Size  Location     Type
		None
 Auto vars:     Size  Location     Type
		None
 Return value:  Size  Location     Type
                  1    wreg      void 
 Registers used:
		None
 Tracked objects:
		On entry : 
		On exit  : 
		Unchanged: 
 Data sizes:     COMRAM   BANK0   BANK1   BANK2   BANK3   BANK4   BANK5   BANK6   BANK7   BANK8   BANK9  BANK10  BANK11  BANK12  BANK13  BANK14  BANK15
      Params:         0       0       0       0       0       0       0       0       0       0       0       0       0       0       0       0       0
      Locals:         0       0       0       0       0       0       0       0       0       0       0       0       0       0       0       0       0
      Temps:          0       0       0       0       0       0       0       0       0       0       0       0       0       0       0       0       0
      Totals:         0       0       0       0       0       0       0       0       0       0       0       0       0       0       0       0       0
Total ram usage:        0 bytes
 Hardware stack levels used:    1
 This function calls:
		Nothing
 This function is called by:
		i2_HistAlarm
 This function uses a non-reentrant model


 *************** function i2_TMR5_StartTimer *****************
 Defined at:
		line 99 in file "mcc_generated_files/tmr5.c"
 Parameters:    Size  Location     Type
		None
 Auto vars:     Size  Location     Type
		None
 Return value:  Size  Location     Type
                  1    wreg      void 
 Registers used:
		None
 Tracked objects:
		On entry : 
		On exit  : 
		Unchanged: 
 Data sizes:     COMRAM   BANK0   BANK1   BANK2   BANK3   BANK4   BANK5   BANK6   BANK7   BANK8   BANK9  BANK10  BANK11  BANK12  BANK13  BANK14  BANK15
      Params:         0       0       0       0       0       0       0       0       0       0       0       0       0       0       0       0       0
      Locals:         0       0       0       0       0       0       0       0       0       0       0       0       0       0       0       0       0
      Temps:          0       0       0       0       0       0       0       0       0       0       0       0       0       0       0       0       0
      Totals:         0       0       0       0       0       0       0       0       0       0       0       0       0       0       0       0       0
Total ram usage:        0 bytes
 Hardware stack levels used:    1
 This function calls:
		Nothing
 This function is called by:
		i2_HistAlarm
 This function uses a non-reentrant model


 *************** function i2_AlarmUpdateLCD *****************
 Defined at:
		line 440 in file "alarm.c"
 Parameters:    Size  Location     Type
		None
 Auto vars:     Size  Location     Type
  AlarmUpdateL    2   97[BANK0 ] int 
 Return value:  Size  Location     Type
                  1    wreg      void 
 Registers used:
		wreg, fsr1l, fsr1h, fsr2l, fsr2h, status,2, status,0, tblptrl, tblptrh, tblptru, prodl, prodh, cstack
 Tracked objects:
		On entry : 
		On exit  : 
		Unchanged: 
 Data sizes:     COMRAM   BANK0   BANK1   BANK2   BANK3   BANK4   BANK5   BANK6   BANK7   BANK8   BANK9  BANK10  BANK11  BANK12  BANK13  BANK14  BANK15
      Params:         0       0       0       0       0       0       0       0       0       0       0       0       0       0       0       0       0
      Locals:         0       6       0       0       0       0       0       0       0       0       0       0       0       0       0       0       0
      Temps:          0       0       0       0       0       0       0       0       0       0       0       0       0       0       0       0       0
      Totals:         0       6       0       0       0       0       0       0       0       0       0       0       0       0       0       0       0
Total ram usage:        6 bytes
 Hardware stack levels used:    1
 Hardware stack levels required when called:   11
 This function calls:
		i2_AlarmDisplay
		i2_AnyAlarm
		i2_HigherAlarm
		i2_ValueDisplay
		i2___wmul
 This function is called by:
		i2_HistAlarm
 This function uses a non-reentrant model


 *************** function i2_HigherAlarm *****************
 Defined at:
		line 359 in file "alarm.c"
 Parameters:    Size  Location     Type
		None
 Auto vars:     Size  Location     Type
  HigherAlarm     2   15[COMRAM] int 
  HigherAlarm     2   13[COMRAM] int 
 Return value:  Size  Location     Type
                  2    6[COMRAM] int 
 Registers used:
		wreg, fsr1l, fsr1h, fsr2l, fsr2h, status,2, status,0, prodl, prodh, cstack
 Tracked objects:
		On entry : 
		On exit  : 
		Unchanged: 
 Data sizes:     COMRAM   BANK0   BANK1   BANK2   BANK3   BANK4   BANK5   BANK6   BANK7   BANK8   BANK9  BANK10  BANK11  BANK12  BANK13  BANK14  BANK15
      Params:         2       0       0       0       0       0       0       0       0       0       0       0       0       0       0       0       0
      Locals:         4       0       0       0       0       0       0       0       0       0       0       0       0       0       0       0       0
      Temps:          5       0       0       0       0       0       0       0       0       0       0       0       0       0       0       0       0
      Totals:        11       0       0       0       0       0       0       0       0       0       0       0       0       0       0       0       0
Total ram usage:       11 bytes
 Hardware stack levels used:    1
 Hardware stack levels required when called:    1
 This function calls:
		i2___wmul
 This function is called by:
		i2_MuteAlarm
		i2_AlarmUpdateLCD
 This function uses a non-reentrant model


 *************** function i2_AlarmDisplay *****************
 Defined at:
		line 110 in file "display.c"
 Parameters:    Size  Location     Type
  type            2   93[BANK0 ] int 
  alarm           2   95[BANK0 ] PTR unsigned char 
		 -> alarmData(399), 
 Auto vars:     Size  Location     Type
  AlarmDisplay    1   86[COMRAM] unsigned char 
 Return value:  Size  Location     Type
                  1    wreg      void 
 Registers used:
		wreg, fsr1l, fsr1h, fsr2l, fsr2h, status,2, status,0, tblptrl, tblptrh, tblptru, prodl, prodh, cstack
 Tracked objects:
		On entry : 
		On exit  : 
		Unchanged: 
 Data sizes:     COMRAM   BANK0   BANK1   BANK2   BANK3   BANK4   BANK5   BANK6   BANK7   BANK8   BANK9  BANK10  BANK11  BANK12  BANK13  BANK14  BANK15
      Params:         0       4       0       0       0       0       0       0       0       0       0       0       0       0       0       0       0
      Locals:         5       0       0       0       0       0       0       0       0       0       0       0       0       0       0       0       0
      Temps:          0       0       0       0       0       0       0       0       0       0       0       0       0       0       0       0       0
      Totals:         5       4       0       0       0       0       0       0       0       0       0       0       0       0       0       0       0
Total ram usage:        9 bytes
 Hardware stack levels used:    1
 Hardware stack levels required when called:   10
 This function calls:
		i2_ValueDisplay
		i2___awmod
		i2_sprintf
 This function is called by:
		i2_AlarmUpdateLCD
 This function uses a non-reentrant model


 *************** function i2_DisableAlarmSV1 *****************
 Defined at:
		line 873 in file "monitor.c"
 Parameters:    Size  Location     Type
		None
 Auto vars:     Size  Location     Type
		None
 Return value:  Size  Location     Type
                  1    wreg      void 
 Registers used:
		wreg, status,2
 Tracked objects:
		On entry : 
		On exit  : 
		Unchanged: 
 Data sizes:     COMRAM   BANK0   BANK1   BANK2   BANK3   BANK4   BANK5   BANK6   BANK7   BANK8   BANK9  BANK10  BANK11  BANK12  BANK13  BANK14  BANK15
      Params:         0       0       0       0       0       0       0       0       0       0       0       0       0       0       0       0       0
      Locals:         0       0       0       0       0       0       0       0       0       0       0       0       0       0       0       0       0
      Temps:          0       0       0       0       0       0       0       0       0       0       0       0       0       0       0       0       0
      Totals:         0       0       0       0       0       0       0       0       0       0       0       0       0       0       0       0       0
Total ram usage:        0 bytes
 Hardware stack levels used:    1
 This function calls:
		Nothing
 This function is called by:
		_ButtonTask
 This function uses a non-reentrant model


 *************** function _TMR0_ISR *****************
 Defined at:
		line 121 in file "mcc_generated_files/tmr0.c"
 Parameters:    Size  Location     Type
		None
 Auto vars:     Size  Location     Type
		None
 Return value:  Size  Location     Type
                  1    wreg      void 
 Registers used:
		wreg, fsr1l, fsr1h, fsr2l, fsr2h, status,2, status,0, pclath, tosl, tblptrl, tblptrh, tblptru, prodl, prodh, cstack
 Tracked objects:
		On entry : 
		On exit  : 
		Unchanged: 
 Data sizes:     COMRAM   BANK0   BANK1   BANK2   BANK3   BANK4   BANK5   BANK6   BANK7   BANK8   BANK9  BANK10  BANK11  BANK12  BANK13  BANK14  BANK15
      Params:         0       0       0       0       0       0       0       0       0       0       0       0       0       0       0       0       0
      Locals:         0       0       0       0       0       0       0       0       0       0       0       0       0       0       0       0       0
      Temps:          0       0       0       0       0       0       0       0       0       0       0       0       0       0       0       0       0
      Totals:         0       0       0       0       0       0       0       0       0       0       0       0       0       0       0       0       0
Total ram usage:        0 bytes
 Hardware stack levels used:    1
 Hardware stack levels required when called:   11
 This function calls:
		Absolute function
		_MonitorPressureTask
		_TMR0_DefaultInterruptHandler
 This function is called by:
		_INTERRUPT_InterruptManager
 This function uses a non-reentrant model


 *************** function _MonitorPressureTask *****************
 Defined at:
		line 275 in file "monitor.c"
 Parameters:    Size  Location     Type
		None
 Auto vars:     Size  Location     Type
  i               2   89[BANK0 ] int 
  i               2   87[BANK0 ] int 
  i               2   95[BANK0 ] int 
  i               2   93[BANK0 ] int 
  tmp2            2   81[BANK0 ] unsigned short 
  tmp             2   79[BANK0 ] unsigned short 
  sqpr            4    0        unsigned long 
  pr              2   97[BANK0 ] short 
  temp            2   91[BANK0 ] unsigned short 
  next            2   85[BANK0 ] int 
  v2              2   83[BANK0 ] unsigned short 
  adcv            2   77[BANK0 ] short 
  v1              2   65[BANK0 ] unsigned short 
  halfLimit       2   63[BANK0 ] short 
  v5              2   61[BANK0 ] short 
  v12             2   59[BANK0 ] short 
 Return value:  Size  Location     Type
                  1    wreg      void 
 Registers used:
		wreg, fsr1l, fsr1h, fsr2l, fsr2h, status,2, status,0, tblptrl, tblptrh, tblptru, prodl, prodh, cstack
 Tracked objects:
		On entry : 
		On exit  : 
		Unchanged: 
 Data sizes:     COMRAM   BANK0   BANK1   BANK2   BANK3   BANK4   BANK5   BANK6   BANK7   BANK8   BANK9  BANK10  BANK11  BANK12  BANK13  BANK14  BANK15
      Params:         0       0       0       0       0       0       0       0       0       0       0       0       0       0       0       0       0
      Locals:         0      40       0       0       0       0       0       0       0       0       0       0       0       0       0       0       0
      Temps:          5       0       0       0       0       0       0       0       0       0       0       0       0       0       0       0       0
      Totals:         5      40       0       0       0       0       0       0       0       0       0       0       0       0       0       0       0
Total ram usage:       45 bytes
 Hardware stack levels used:    1
 Hardware stack levels required when called:   10
 This function calls:
		_AdcReStartCycle
		_AdcReady
		_ClearTdeTooLongAlarm
		_ClearTdiTooLongAlarm
		_ClearVAboveMaxAlarm
		_ClearVBelowMinAlarm
		_DisplayCalibrate
		_GetPressure_mbar02
		_SetCircuitFailureAlarm
		_SetEPAboveSetAlarm
		_SetEPBelowSetAlarm
		_SetGasFailureAlarm
		_SetIPAboveSetAlarm
		_SetIPBelowSetAlarm
		_SetTdeTooLongAlarm
		_SetTdiTooLongAlarm
		_SetVAboveMaxAlarm
		_SetVBelowMinAlarm
		___lldiv
		___lwdiv
		_isqrt
		i2_AdcDataReady
		i2_ClearCircuitFailureAlarm
		i2_ClearEPAboveSetAlarm
		i2_ClearEPBelowSetAlarm
		i2_ClearGasFailureAlarm
		i2_ClearIPAboveSetAlarm
		i2_ClearIPBelowSetAlarm
		i2_ClearVars
		i2_GetPressureV_pa
		i2_GetPressure_pa
		i2_See12V
		i2_See5V
		i2___aldiv
		i2___awdiv
		i2___awmod
		i2___wmul
		i2_printf
 This function is called by:
		_MonitorInit
		_TMR0_ISR
 This function uses a non-reentrant model


 *************** function _TMR0_DefaultInterruptHandler *****************
 Defined at:
		line 138 in file "mcc_generated_files/tmr0.c"
 Parameters:    Size  Location     Type
		None
 Auto vars:     Size  Location     Type
		None
 Return value:  Size  Location     Type
                  1    wreg      void 
 Registers used:
		None
 Tracked objects:
		On entry : 
		On exit  : 
		Unchanged: 
 Data sizes:     COMRAM   BANK0   BANK1   BANK2   BANK3   BANK4   BANK5   BANK6   BANK7   BANK8   BANK9  BANK10  BANK11  BANK12  BANK13  BANK14  BANK15
      Params:         0       0       0       0       0       0       0       0       0       0       0       0       0       0       0       0       0
      Locals:         0       0       0       0       0       0       0       0       0       0       0       0       0       0       0       0       0
      Temps:          0       0       0       0       0       0       0       0       0       0       0       0       0       0       0       0       0
      Totals:         0       0       0       0       0       0       0       0       0       0       0       0       0       0       0       0       0
Total ram usage:        0 bytes
 Hardware stack levels used:    1
 This function calls:
		Nothing
 This function is called by:
		_TMR0_Initialize
		_TMR0_ISR
 This function uses a non-reentrant model


 *************** function i2_See5V *****************
 Defined at:
		line 840 in file "monitor.c"
 Parameters:    Size  Location     Type
		None
 Auto vars:     Size  Location     Type
  See5V           4   28[COMRAM] long 
  See5V           2   34[COMRAM] short 
  See5V           2   32[COMRAM] unsigned short 
 Return value:  Size  Location     Type
                  2   26[COMRAM] short 
 Registers used:
		wreg, fsr2l, fsr2h, status,2, status,0, prodl, prodh, cstack
 Tracked objects:
		On entry : 
		On exit  : 
		Unchanged: 
 Data sizes:     COMRAM   BANK0   BANK1   BANK2   BANK3   BANK4   BANK5   BANK6   BANK7   BANK8   BANK9  BANK10  BANK11  BANK12  BANK13  BANK14  BANK15
      Params:         2       0       0       0       0       0       0       0       0       0       0       0       0       0       0       0       0
      Locals:         8       0       0       0       0       0       0       0       0       0       0       0       0       0       0       0       0
      Temps:          0       0       0       0       0       0       0       0       0       0       0       0       0       0       0       0       0
      Totals:        10       0       0       0       0       0       0       0       0       0       0       0       0       0       0       0       0
Total ram usage:       10 bytes
 Hardware stack levels used:    1
 Hardware stack levels required when called:    2
 This function calls:
		i2_AdcSeeData
		i2___aldiv
 This function is called by:
		_MonitorPressureTask
 This function uses a non-reentrant model


 *************** function i2_See12V *****************
 Defined at:
		line 857 in file "monitor.c"
 Parameters:    Size  Location     Type
		None
 Auto vars:     Size  Location     Type
  See12V          4   28[COMRAM] long 
  See12V          2   34[COMRAM] short 
  See12V          2   32[COMRAM] unsigned short 
 Return value:  Size  Location     Type
                  2   26[COMRAM] short 
 Registers used:
		wreg, fsr2l, fsr2h, status,2, status,0, prodl, prodh, cstack
 Tracked objects:
		On entry : 
		On exit  : 
		Unchanged: 
 Data sizes:     COMRAM   BANK0   BANK1   BANK2   BANK3   BANK4   BANK5   BANK6   BANK7   BANK8   BANK9  BANK10  BANK11  BANK12  BANK13  BANK14  BANK15
      Params:         2       0       0       0       0       0       0       0       0       0       0       0       0       0       0       0       0
      Locals:         8       0       0       0       0       0       0       0       0       0       0       0       0       0       0       0       0
      Temps:          0       0       0       0       0       0       0       0       0       0       0       0       0       0       0       0       0
      Totals:        10       0       0       0       0       0       0       0       0       0       0       0       0       0       0       0       0
Total ram usage:       10 bytes
 Hardware stack levels used:    1
 Hardware stack levels required when called:    2
 This function calls:
		i2_AdcSeeData
		i2___aldiv
		i2___lmul
 This function is called by:
		_MonitorPressureTask
 This function uses a non-reentrant model


 *************** function i2_AdcSeeData *****************
 Defined at:
		line 82 in file "monitor.c"
 Parameters:    Size  Location     Type
  id              2    6[COMRAM] int 
 Auto vars:     Size  Location     Type
  AdcSeeData      2    8[COMRAM] unsigned short 
 Return value:  Size  Location     Type
                  2    6[COMRAM] unsigned short 
 Registers used:
		wreg, fsr2l, fsr2h, status,2, status,0, prodl, prodh, cstack
 Tracked objects:
		On entry : 
		On exit  : 
		Unchanged: 
 Data sizes:     COMRAM   BANK0   BANK1   BANK2   BANK3   BANK4   BANK5   BANK6   BANK7   BANK8   BANK9  BANK10  BANK11  BANK12  BANK13  BANK14  BANK15
      Params:         2       0       0       0       0       0       0       0       0       0       0       0       0       0       0       0       0
      Locals:         2       0       0       0       0       0       0       0       0       0       0       0       0       0       0       0       0
      Temps:          0       0       0       0       0       0       0       0       0       0       0       0       0       0       0       0       0
      Totals:         4       0       0       0       0       0       0       0       0       0       0       0       0       0       0       0       0
Total ram usage:        4 bytes
 Hardware stack levels used:    1
 Hardware stack levels required when called:    1
 This function calls:
		i2___wmul
 This function is called by:
		i2_See5V
		i2_See12V
 This function uses a non-reentrant model


 *************** function i2_AdcDataReady *****************
 Defined at:
		line 78 in file "monitor.c"
 Parameters:    Size  Location     Type
  id              2    6[COMRAM] int 
 Auto vars:     Size  Location     Type
		None
 Return value:  Size  Location     Type
                  1    wreg      _Bool 
 Registers used:
		wreg, fsr2l, fsr2h, status,2, status,0, prodl, prodh, cstack
 Tracked objects:
		On entry : 
		On exit  : 
		Unchanged: 
 Data sizes:     COMRAM   BANK0   BANK1   BANK2   BANK3   BANK4   BANK5   BANK6   BANK7   BANK8   BANK9  BANK10  BANK11  BANK12  BANK13  BANK14  BANK15
      Params:         2       0       0       0       0       0       0       0       0       0       0       0       0       0       0       0       0
      Locals:         0       0       0       0       0       0       0       0       0       0       0       0       0       0       0       0       0
      Temps:          0       0       0       0       0       0       0       0       0       0       0       0       0       0       0       0       0
      Totals:         2       0       0       0       0       0       0       0       0       0       0       0       0       0       0       0       0
Total ram usage:        2 bytes
 Hardware stack levels used:    1
 Hardware stack levels required when called:    1
 This function calls:
		i2___wmul
 This function is called by:
		_MonitorPressureTask
 This function uses a non-reentrant model


 *************** function _isqrt *****************
 Defined at:
		line 3 in file "../Controller.X/cmath.c"
 Parameters:    Size  Location     Type
  x               2    0[COMRAM] unsigned short 
 Auto vars:     Size  Location     Type
  one             2    8[COMRAM] unsigned short 
  res             2    6[COMRAM] unsigned short 
  op              2    4[COMRAM] unsigned short 
 Return value:  Size  Location     Type
                  2    0[COMRAM] unsigned short 
 Registers used:
		wreg, status,2, status,0
 Tracked objects:
		On entry : 
		On exit  : 
		Unchanged: 
 Data sizes:     COMRAM   BANK0   BANK1   BANK2   BANK3   BANK4   BANK5   BANK6   BANK7   BANK8   BANK9  BANK10  BANK11  BANK12  BANK13  BANK14  BANK15
      Params:         2       0       0       0       0       0       0       0       0       0       0       0       0       0       0       0       0
      Locals:         6       0       0       0       0       0       0       0       0       0       0       0       0       0       0       0       0
      Temps:          2       0       0       0       0       0       0       0       0       0       0       0       0       0       0       0       0
      Totals:        10       0       0       0       0       0       0       0       0       0       0       0       0       0       0       0       0
Total ram usage:       10 bytes
 Hardware stack levels used:    1
 This function calls:
		Nothing
 This function is called by:
		_MonitorPressureTask
 This function uses a non-reentrant model


 *************** function ___lwdiv *****************
 Defined at:
		line 7 in file "/Applications/microchip/xc8/v2.10/pic/sources/c99/common/lwdiv.c"
 Parameters:    Size  Location     Type
  dividend        2    0[COMRAM] unsigned int 
  divisor         2    2[COMRAM] unsigned int 
 Auto vars:     Size  Location     Type
  quotient        2    4[COMRAM] unsigned int 
  counter         1    6[COMRAM] unsigned char 
 Return value:  Size  Location     Type
                  2    0[COMRAM] unsigned int 
 Registers used:
		wreg, status,2, status,0
 Tracked objects:
		On entry : 
		On exit  : 
		Unchanged: 
 Data sizes:     COMRAM   BANK0   BANK1   BANK2   BANK3   BANK4   BANK5   BANK6   BANK7   BANK8   BANK9  BANK10  BANK11  BANK12  BANK13  BANK14  BANK15
      Params:         4       0       0       0       0       0       0       0       0       0       0       0       0       0       0       0       0
      Locals:         3       0       0       0       0       0       0       0       0       0       0       0       0       0       0       0       0
      Temps:          0       0       0       0       0       0       0       0       0       0       0       0       0       0       0       0       0
      Totals:         7       0       0       0       0       0       0       0       0       0       0       0       0       0       0       0       0
Total ram usage:        7 bytes
 Hardware stack levels used:    1
 This function calls:
		Nothing
 This function is called by:
		_MonitorPressureTask
 This function uses a non-reentrant model


 *************** function ___lldiv *****************
 Defined at:
		line 7 in file "/Applications/microchip/xc8/v2.10/pic/sources/c99/common/__lldiv.c"
 Parameters:    Size  Location     Type
  dividend        4    0[COMRAM] unsigned long 
  divisor         4    4[COMRAM] unsigned long 
 Auto vars:     Size  Location     Type
  quotient        4    8[COMRAM] unsigned long 
  counter         1   12[COMRAM] unsigned char 
 Return value:  Size  Location     Type
                  4    0[COMRAM] unsigned long 
 Registers used:
		wreg, status,2, status,0
 Tracked objects:
		On entry : 
		On exit  : 
		Unchanged: 
 Data sizes:     COMRAM   BANK0   BANK1   BANK2   BANK3   BANK4   BANK5   BANK6   BANK7   BANK8   BANK9  BANK10  BANK11  BANK12  BANK13  BANK14  BANK15
      Params:         8       0       0       0       0       0       0       0       0       0       0       0       0       0       0       0       0
      Locals:         5       0       0       0       0       0       0       0       0       0       0       0       0       0       0       0       0
      Temps:          0       0       0       0       0       0       0       0       0       0       0       0       0       0       0       0       0
      Totals:        13       0       0       0       0       0       0       0       0       0       0       0       0       0       0       0       0
Total ram usage:       13 bytes
 Hardware stack levels used:    1
 This function calls:
		Nothing
 This function is called by:
		_MonitorPressureTask
 This function uses a non-reentrant model


 *************** function _SetVBelowMinAlarm *****************
 Defined at:
		line 244 in file "alarm.c"
 Parameters:    Size  Location     Type
		None
 Auto vars:     Size  Location     Type
		None
 Return value:  Size  Location     Type
                  1    wreg      void 
 Registers used:
		wreg, status,2
 Tracked objects:
		On entry : 
		On exit  : 
		Unchanged: 
 Data sizes:     COMRAM   BANK0   BANK1   BANK2   BANK3   BANK4   BANK5   BANK6   BANK7   BANK8   BANK9  BANK10  BANK11  BANK12  BANK13  BANK14  BANK15
      Params:         0       0       0       0       0       0       0       0       0       0       0       0       0       0       0       0       0
      Locals:         0       0       0       0       0       0       0       0       0       0       0       0       0       0       0       0       0
      Temps:          0       0       0       0       0       0       0       0       0       0       0       0       0       0       0       0       0
      Totals:         0       0       0       0       0       0       0       0       0       0       0       0       0       0       0       0       0
Total ram usage:        0 bytes
 Hardware stack levels used:    1
 This function calls:
		Nothing
 This function is called by:
		_MonitorPressureTask
 This function uses a non-reentrant model


 *************** function _SetVAboveMaxAlarm *****************
 Defined at:
		line 243 in file "alarm.c"
 Parameters:    Size  Location     Type
		None
 Auto vars:     Size  Location     Type
		None
 Return value:  Size  Location     Type
                  1    wreg      void 
 Registers used:
		wreg, status,2
 Tracked objects:
		On entry : 
		On exit  : 
		Unchanged: 
 Data sizes:     COMRAM   BANK0   BANK1   BANK2   BANK3   BANK4   BANK5   BANK6   BANK7   BANK8   BANK9  BANK10  BANK11  BANK12  BANK13  BANK14  BANK15
      Params:         0       0       0       0       0       0       0       0       0       0       0       0       0       0       0       0       0
      Locals:         0       0       0       0       0       0       0       0       0       0       0       0       0       0       0       0       0
      Temps:          0       0       0       0       0       0       0       0       0       0       0       0       0       0       0       0       0
      Totals:         0       0       0       0       0       0       0       0       0       0       0       0       0       0       0       0       0
Total ram usage:        0 bytes
 Hardware stack levels used:    1
 This function calls:
		Nothing
 This function is called by:
		_MonitorPressureTask
 This function uses a non-reentrant model


 *************** function _SetTdiTooLongAlarm *****************
 Defined at:
		line 241 in file "alarm.c"
 Parameters:    Size  Location     Type
		None
 Auto vars:     Size  Location     Type
		None
 Return value:  Size  Location     Type
                  1    wreg      void 
 Registers used:
		wreg, status,2
 Tracked objects:
		On entry : 
		On exit  : 
		Unchanged: 
 Data sizes:     COMRAM   BANK0   BANK1   BANK2   BANK3   BANK4   BANK5   BANK6   BANK7   BANK8   BANK9  BANK10  BANK11  BANK12  BANK13  BANK14  BANK15
      Params:         0       0       0       0       0       0       0       0       0       0       0       0       0       0       0       0       0
      Locals:         0       0       0       0       0       0       0       0       0       0       0       0       0       0       0       0       0
      Temps:          0       0       0       0       0       0       0       0       0       0       0       0       0       0       0       0       0
      Totals:         0       0       0       0       0       0       0       0       0       0       0       0       0       0       0       0       0
Total ram usage:        0 bytes
 Hardware stack levels used:    1
 This function calls:
		Nothing
 This function is called by:
		_MonitorPressureTask
 This function uses a non-reentrant model


 *************** function _SetTdeTooLongAlarm *****************
 Defined at:
		line 242 in file "alarm.c"
 Parameters:    Size  Location     Type
		None
 Auto vars:     Size  Location     Type
		None
 Return value:  Size  Location     Type
                  1    wreg      void 
 Registers used:
		wreg, status,2
 Tracked objects:
		On entry : 
		On exit  : 
		Unchanged: 
 Data sizes:     COMRAM   BANK0   BANK1   BANK2   BANK3   BANK4   BANK5   BANK6   BANK7   BANK8   BANK9  BANK10  BANK11  BANK12  BANK13  BANK14  BANK15
      Params:         0       0       0       0       0       0       0       0       0       0       0       0       0       0       0       0       0
      Locals:         0       0       0       0       0       0       0       0       0       0       0       0       0       0       0       0       0
      Temps:          0       0       0       0       0       0       0       0       0       0       0       0       0       0       0       0       0
      Totals:         0       0       0       0       0       0       0       0       0       0       0       0       0       0       0       0       0
Total ram usage:        0 bytes
 Hardware stack levels used:    1
 This function calls:
		Nothing
 This function is called by:
		_MonitorPressureTask
 This function uses a non-reentrant model


 *************** function _SetIPBelowSetAlarm *****************
 Defined at:
		line 239 in file "alarm.c"
 Parameters:    Size  Location     Type
		None
 Auto vars:     Size  Location     Type
		None
 Return value:  Size  Location     Type
                  1    wreg      void 
 Registers used:
		wreg, status,2, status,0
 Tracked objects:
		On entry : 
		On exit  : 
		Unchanged: 
 Data sizes:     COMRAM   BANK0   BANK1   BANK2   BANK3   BANK4   BANK5   BANK6   BANK7   BANK8   BANK9  BANK10  BANK11  BANK12  BANK13  BANK14  BANK15
      Params:         0       0       0       0       0       0       0       0       0       0       0       0       0       0       0       0       0
      Locals:         0       0       0       0       0       0       0       0       0       0       0       0       0       0       0       0       0
      Temps:          0       0       0       0       0       0       0       0       0       0       0       0       0       0       0       0       0
      Totals:         0       0       0       0       0       0       0       0       0       0       0       0       0       0       0       0       0
Total ram usage:        0 bytes
 Hardware stack levels used:    1
 This function calls:
		Nothing
 This function is called by:
		_MonitorPressureTask
 This function uses a non-reentrant model


 *************** function _SetIPAboveSetAlarm *****************
 Defined at:
		line 240 in file "alarm.c"
 Parameters:    Size  Location     Type
		None
 Auto vars:     Size  Location     Type
		None
 Return value:  Size  Location     Type
                  1    wreg      void 
 Registers used:
		wreg, status,2, status,0
 Tracked objects:
		On entry : 
		On exit  : 
		Unchanged: 
 Data sizes:     COMRAM   BANK0   BANK1   BANK2   BANK3   BANK4   BANK5   BANK6   BANK7   BANK8   BANK9  BANK10  BANK11  BANK12  BANK13  BANK14  BANK15
      Params:         0       0       0       0       0       0       0       0       0       0       0       0       0       0       0       0       0
      Locals:         0       0       0       0       0       0       0       0       0       0       0       0       0       0       0       0       0
      Temps:          0       0       0       0       0       0       0       0       0       0       0       0       0       0       0       0       0
      Totals:         0       0       0       0       0       0       0       0       0       0       0       0       0       0       0       0       0
Total ram usage:        0 bytes
 Hardware stack levels used:    1
 This function calls:
		Nothing
 This function is called by:
		_MonitorPressureTask
 This function uses a non-reentrant model


 *************** function _SetGasFailureAlarm *****************
 Defined at:
		line 230 in file "alarm.c"
 Parameters:    Size  Location     Type
		None
 Auto vars:     Size  Location     Type
		None
 Return value:  Size  Location     Type
                  1    wreg      void 
 Registers used:
		wreg, status,2
 Tracked objects:
		On entry : 
		On exit  : 
		Unchanged: 
 Data sizes:     COMRAM   BANK0   BANK1   BANK2   BANK3   BANK4   BANK5   BANK6   BANK7   BANK8   BANK9  BANK10  BANK11  BANK12  BANK13  BANK14  BANK15
      Params:         0       0       0       0       0       0       0       0       0       0       0       0       0       0       0       0       0
      Locals:         0       0       0       0       0       0       0       0       0       0       0       0       0       0       0       0       0
      Temps:          0       0       0       0       0       0       0       0       0       0       0       0       0       0       0       0       0
      Totals:         0       0       0       0       0       0       0       0       0       0       0       0       0       0       0       0       0
Total ram usage:        0 bytes
 Hardware stack levels used:    1
 This function calls:
		Nothing
 This function is called by:
		_MonitorPressureTask
 This function uses a non-reentrant model


 *************** function _SetEPBelowSetAlarm *****************
 Defined at:
		line 237 in file "alarm.c"
 Parameters:    Size  Location     Type
		None
 Auto vars:     Size  Location     Type
		None
 Return value:  Size  Location     Type
                  1    wreg      void 
 Registers used:
		wreg, status,2, status,0
 Tracked objects:
		On entry : 
		On exit  : 
		Unchanged: 
 Data sizes:     COMRAM   BANK0   BANK1   BANK2   BANK3   BANK4   BANK5   BANK6   BANK7   BANK8   BANK9  BANK10  BANK11  BANK12  BANK13  BANK14  BANK15
      Params:         0       0       0       0       0       0       0       0       0       0       0       0       0       0       0       0       0
      Locals:         0       0       0       0       0       0       0       0       0       0       0       0       0       0       0       0       0
      Temps:          0       0       0       0       0       0       0       0       0       0       0       0       0       0       0       0       0
      Totals:         0       0       0       0       0       0       0       0       0       0       0       0       0       0       0       0       0
Total ram usage:        0 bytes
 Hardware stack levels used:    1
 This function calls:
		Nothing
 This function is called by:
		_MonitorPressureTask
 This function uses a non-reentrant model


 *************** function _SetEPAboveSetAlarm *****************
 Defined at:
		line 238 in file "alarm.c"
 Parameters:    Size  Location     Type
		None
 Auto vars:     Size  Location     Type
		None
 Return value:  Size  Location     Type
                  1    wreg      void 
 Registers used:
		wreg, status,2, status,0
 Tracked objects:
		On entry : 
		On exit  : 
		Unchanged: 
 Data sizes:     COMRAM   BANK0   BANK1   BANK2   BANK3   BANK4   BANK5   BANK6   BANK7   BANK8   BANK9  BANK10  BANK11  BANK12  BANK13  BANK14  BANK15
      Params:         0       0       0       0       0       0       0       0       0       0       0       0       0       0       0       0       0
      Locals:         0       0       0       0       0       0       0       0       0       0       0       0       0       0       0       0       0
      Temps:          0       0       0       0       0       0       0       0       0       0       0       0       0       0       0       0       0
      Totals:         0       0       0       0       0       0       0       0       0       0       0       0       0       0       0       0       0
Total ram usage:        0 bytes
 Hardware stack levels used:    1
 This function calls:
		Nothing
 This function is called by:
		_MonitorPressureTask
 This function uses a non-reentrant model


 *************** function _SetCircuitFailureAlarm *****************
 Defined at:
		line 234 in file "alarm.c"
 Parameters:    Size  Location     Type
		None
 Auto vars:     Size  Location     Type
		None
 Return value:  Size  Location     Type
                  1    wreg      void 
 Registers used:
		wreg, status,2
 Tracked objects:
		On entry : 
		On exit  : 
		Unchanged: 
 Data sizes:     COMRAM   BANK0   BANK1   BANK2   BANK3   BANK4   BANK5   BANK6   BANK7   BANK8   BANK9  BANK10  BANK11  BANK12  BANK13  BANK14  BANK15
      Params:         0       0       0       0       0       0       0       0       0       0       0       0       0       0       0       0       0
      Locals:         0       0       0       0       0       0       0       0       0       0       0       0       0       0       0       0       0
      Temps:          0       0       0       0       0       0       0       0       0       0       0       0       0       0       0       0       0
      Totals:         0       0       0       0       0       0       0       0       0       0       0       0       0       0       0       0       0
Total ram usage:        0 bytes
 Hardware stack levels used:    1
 This function calls:
		Nothing
 This function is called by:
		_MonitorPressureTask
 This function uses a non-reentrant model


 *************** function _GetPressure_mbar02 *****************
 Defined at:
		line 772 in file "monitor.c"
 Parameters:    Size  Location     Type
		None
 Auto vars:     Size  Location     Type
		None
 Return value:  Size  Location     Type
                  2   42[COMRAM] short 
 Registers used:
		wreg, fsr2l, fsr2h, status,2, status,0, prodl, prodh, cstack
 Tracked objects:
		On entry : 
		On exit  : 
		Unchanged: 
 Data sizes:     COMRAM   BANK0   BANK1   BANK2   BANK3   BANK4   BANK5   BANK6   BANK7   BANK8   BANK9  BANK10  BANK11  BANK12  BANK13  BANK14  BANK15
      Params:         2       0       0       0       0       0       0       0       0       0       0       0       0       0       0       0       0
      Locals:         2       0       0       0       0       0       0       0       0       0       0       0       0       0       0       0       0
      Temps:          0       0       0       0       0       0       0       0       0       0       0       0       0       0       0       0       0
      Totals:         4       0       0       0       0       0       0       0       0       0       0       0       0       0       0       0       0
Total ram usage:        4 bytes
 Hardware stack levels used:    1
 Hardware stack levels required when called:    3
 This function calls:
		i2_GetPressure_pa
		i2___awdiv
 This function is called by:
		_MonitorPressureTask
 This function uses a non-reentrant model


 *************** function _DisplayCalibrate *****************
 Defined at:
		line 56 in file "display.c"
 Parameters:    Size  Location     Type
  pr              2   51[BANK0 ] short 
  off             2   53[BANK0 ] short 
  prv             2   55[BANK0 ] short 
  offv            2   57[BANK0 ] short 
 Auto vars:     Size  Location     Type
		None
 Return value:  Size  Location     Type
                  1    wreg      void 
 Registers used:
		wreg, fsr1l, fsr1h, fsr2l, fsr2h, status,2, status,0, tblptrl, tblptrh, tblptru, prodl, prodh, cstack
 Tracked objects:
		On entry : 
		On exit  : 
		Unchanged: 
 Data sizes:     COMRAM   BANK0   BANK1   BANK2   BANK3   BANK4   BANK5   BANK6   BANK7   BANK8   BANK9  BANK10  BANK11  BANK12  BANK13  BANK14  BANK15
      Params:         0       8       0       0       0       0       0       0       0       0       0       0       0       0       0       0       0
      Locals:         0       0       0       0       0       0       0       0       0       0       0       0       0       0       0       0       0
      Temps:          0       0       0       0       0       0       0       0       0       0       0       0       0       0       0       0       0
      Totals:         0       8       0       0       0       0       0       0       0       0       0       0       0       0       0       0       0
Total ram usage:        8 bytes
 Hardware stack levels used:    1
 Hardware stack levels required when called:    9
 This function calls:
		i2_sprintf
 This function is called by:
		_MonitorPressureTask
 This function uses a non-reentrant model


 *************** function _AdcReStartCycle *****************
 Defined at:
		line 71 in file "monitor.c"
 Parameters:    Size  Location     Type
		None
 Auto vars:     Size  Location     Type
		None
 Return value:  Size  Location     Type
                  1    wreg      void 
 Registers used:
		wreg, fsr2l, fsr2h, status,2, status,0, prodl, prodh, cstack
 Tracked objects:
		On entry : 
		On exit  : 
		Unchanged: 
 Data sizes:     COMRAM   BANK0   BANK1   BANK2   BANK3   BANK4   BANK5   BANK6   BANK7   BANK8   BANK9  BANK10  BANK11  BANK12  BANK13  BANK14  BANK15
      Params:         0       0       0       0       0       0       0       0       0       0       0       0       0       0       0       0       0
      Locals:         0       0       0       0       0       0       0       0       0       0       0       0       0       0       0       0       0
      Temps:          0       0       0       0       0       0       0       0       0       0       0       0       0       0       0       0       0
      Totals:         0       0       0       0       0       0       0       0       0       0       0       0       0       0       0       0       0
Total ram usage:        0 bytes
 Hardware stack levels used:    1
 Hardware stack levels required when called:    1
 This function calls:
		i2_ADCC_StartConversion
		i2___wmul
 This function is called by:
		_MonitorPressureTask
 This function uses a non-reentrant model


 *************** function _I2C2_Isr *****************
 Defined at:
		line 179 in file "mcc_generated_files/i2c2_slave.c"
 Parameters:    Size  Location     Type
		None
 Auto vars:     Size  Location     Type
		None
 Return value:  Size  Location     Type
                  1    wreg      void 
 Registers used:
		wreg, fsr1l, fsr1h, fsr2l, fsr2h, status,2, status,0, pclath, tosl, tblptrl, tblptrh, tblptru, prodl, prodh, cstack
 Tracked objects:
		On entry : 
		On exit  : 
		Unchanged: 
 Data sizes:     COMRAM   BANK0   BANK1   BANK2   BANK3   BANK4   BANK5   BANK6   BANK7   BANK8   BANK9  BANK10  BANK11  BANK12  BANK13  BANK14  BANK15
      Params:         0       0       0       0       0       0       0       0       0       0       0       0       0       0       0       0       0
      Locals:         0       0       0       0       0       0       0       0       0       0       0       0       0       0       0       0       0
      Temps:          0       0       0       0       0       0       0       0       0       0       0       0       0       0       0       0       0
      Totals:         0       0       0       0       0       0       0       0       0       0       0       0       0       0       0       0       0
Total ram usage:        0 bytes
 Hardware stack levels used:    1
 Hardware stack levels required when called:   14
 This function calls:
		_I2C2_SlaveClearBuff
		_I2C2_SlaveClearStopFlag
		_I2C2_SlaveIsRxBufFull
		_I2C2_SlaveRdCallBack
		_I2C2_SlaveReleaseClock
		_I2C2_SlaveSetCounter
		_I2C2_SlaveStopCallBack
 This function is called by:
		_I2C2_Open
		_INTERRUPT_InterruptManager
 This function uses a non-reentrant model


 *************** function _I2C2_SlaveStopCallBack *****************
 Defined at:
		line 273 in file "mcc_generated_files/i2c2_slave.c"
 Parameters:    Size  Location     Type
		None
 Auto vars:     Size  Location     Type
		None
 Return value:  Size  Location     Type
                  1    wreg      void 
 Registers used:
		wreg, fsr1l, fsr1h, fsr2l, fsr2h, status,2, status,0, pclath, tosl, tblptrl, tblptrh, tblptru, prodl, prodh, cstack
 Tracked objects:
		On entry : 
		On exit  : 
		Unchanged: 
 Data sizes:     COMRAM   BANK0   BANK1   BANK2   BANK3   BANK4   BANK5   BANK6   BANK7   BANK8   BANK9  BANK10  BANK11  BANK12  BANK13  BANK14  BANK15
      Params:         0       0       0       0       0       0       0       0       0       0       0       0       0       0       0       0       0
      Locals:         0       0       0       0       0       0       0       0       0       0       0       0       0       0       0       0       0
      Temps:          0       0       0       0       0       0       0       0       0       0       0       0       0       0       0       0       0
      Totals:         0       0       0       0       0       0       0       0       0       0       0       0       0       0       0       0       0
Total ram usage:        0 bytes
 Hardware stack levels used:    1
 Hardware stack levels required when called:   13
 This function calls:
		Absolute function
		_StopHandler
 This function is called by:
		_I2C2_Isr
 This function uses a non-reentrant model


 *************** function _StopHandler *****************
 Defined at:
		line 161 in file "controller.c"
 Parameters:    Size  Location     Type
		None
 Auto vars:     Size  Location     Type
  stat1           1    0        unsigned char 
  stat0           1    0        unsigned char 
 Return value:  Size  Location     Type
                  1    wreg      void 
 Registers used:
		wreg, fsr1l, fsr1h, fsr2l, fsr2h, status,2, status,0, tblptrl, tblptrh, tblptru, prodl, prodh, cstack
 Tracked objects:
		On entry : 
		On exit  : 
		Unchanged: 
 Data sizes:     COMRAM   BANK0   BANK1   BANK2   BANK3   BANK4   BANK5   BANK6   BANK7   BANK8   BANK9  BANK10  BANK11  BANK12  BANK13  BANK14  BANK15
      Params:         0       0       0       0       0       0       0       0       0       0       0       0       0       0       0       0       0
      Locals:         2       0       0       0       0       0       0       0       0       0       0       0       0       0       0       0       0
      Temps:          0       0       0       0       0       0       0       0       0       0       0       0       0       0       0       0       0
      Totals:         2       0       0       0       0       0       0       0       0       0       0       0       0       0       0       0       0
Total ram usage:        2 bytes
 Hardware stack levels used:    1
 Hardware stack levels required when called:   12
 This function calls:
		_ReceiveHandler
		_UpdateState
		i2_printf
 This function is called by:
		_ControllerInit
		_I2C2_SlaveStopCallBack
 This function uses a non-reentrant model


 *************** function _UpdateState *****************
 Defined at:
		line 65 in file "controller.c"
 Parameters:    Size  Location     Type
		None
 Auto vars:     Size  Location     Type
  initPhase       2   91[COMRAM] int 
 Return value:  Size  Location     Type
                  1    wreg      void 
 Registers used:
		wreg, fsr1l, fsr1h, fsr2l, fsr2h, status,2, status,0, tblptrl, tblptrh, tblptru, prodl, prodh, cstack
 Tracked objects:
		On entry : 
		On exit  : 
		Unchanged: 
 Data sizes:     COMRAM   BANK0   BANK1   BANK2   BANK3   BANK4   BANK5   BANK6   BANK7   BANK8   BANK9  BANK10  BANK11  BANK12  BANK13  BANK14  BANK15
      Params:         0       0       0       0       0       0       0       0       0       0       0       0       0       0       0       0       0
      Locals:         2       0       0       0       0       0       0       0       0       0       0       0       0       0       0       0       0
      Temps:          0       6       0       0       0       0       0       0       0       0       0       0       0       0       0       0       0
      Totals:         2       6       0       0       0       0       0       0       0       0       0       0       0       0       0       0       0
Total ram usage:        8 bytes
 Hardware stack levels used:    1
 Hardware stack levels required when called:   11
 This function calls:
		_ClearAllAlarm
		_ControllerBuzzerCheck
		_DisplayDisable
		_DisplayEnable
		_GetControllerBuzzerCheck
		_SetControlFailAlarm
		_SetMaxPressure
		_SetTarget
		_SetVolumeControl
		i2_ClearControlFailAlarm
		i2_EnableAlarmSV1
		i2_LCDOff
		i2_LCDOn
		i2_MonitorDisable
		i2_MonitorEnable
		i2_SetCalibrateState
		i2_SetSV1
		i2_printf
 This function is called by:
		_StopHandler
 This function uses a non-reentrant model


 *************** function i2_SetSV1 *****************
 Defined at:
		line 890 in file "monitor.c"
 Parameters:    Size  Location     Type
  value           1    wreg     _Bool 
 Auto vars:     Size  Location     Type
  value           1   90[COMRAM] _Bool 
 Return value:  Size  Location     Type
                  1    wreg      void 
 Registers used:
		wreg, fsr1l, fsr1h, fsr2l, fsr2h, status,2, status,0, tblptrl, tblptrh, tblptru, prodl, prodh, cstack
 Tracked objects:
		On entry : 
		On exit  : 
		Unchanged: 
 Data sizes:     COMRAM   BANK0   BANK1   BANK2   BANK3   BANK4   BANK5   BANK6   BANK7   BANK8   BANK9  BANK10  BANK11  BANK12  BANK13  BANK14  BANK15
      Params:         0       0       0       0       0       0       0       0       0       0       0       0       0       0       0       0       0
      Locals:         1       0       0       0       0       0       0       0       0       0       0       0       0       0       0       0       0
      Temps:          0       0       0       0       0       0       0       0       0       0       0       0       0       0       0       0       0
      Totals:         1       0       0       0       0       0       0       0       0       0       0       0       0       0       0       0       0
Total ram usage:        1 bytes
 Hardware stack levels used:    1
 Hardware stack levels required when called:    9
 This function calls:
		i2_printf
 This function is called by:
		_UpdateState
 This function uses a non-reentrant model


 *************** function i2_SetCalibrateState *****************
 Defined at:
		line 245 in file "monitor.c"
 Parameters:    Size  Location     Type
  calib           1    wreg     _Bool 
 Auto vars:     Size  Location     Type
  calib           1   90[COMRAM] _Bool 
 Return value:  Size  Location     Type
                  1    wreg      void 
 Registers used:
		wreg, fsr1l, fsr1h, fsr2l, fsr2h, status,2, status,0, tblptrl, tblptrh, tblptru, prodl, prodh, cstack
 Tracked objects:
		On entry : 
		On exit  : 
		Unchanged: 
 Data sizes:     COMRAM   BANK0   BANK1   BANK2   BANK3   BANK4   BANK5   BANK6   BANK7   BANK8   BANK9  BANK10  BANK11  BANK12  BANK13  BANK14  BANK15
      Params:         0       0       0       0       0       0       0       0       0       0       0       0       0       0       0       0       0
      Locals:         1       0       0       0       0       0       0       0       0       0       0       0       0       0       0       0       0
      Temps:          0       0       0       0       0       0       0       0       0       0       0       0       0       0       0       0       0
      Totals:         1       0       0       0       0       0       0       0       0       0       0       0       0       0       0       0       0
Total ram usage:        1 bytes
 Hardware stack levels used:    1
 Hardware stack levels required when called:    9
 This function calls:
		i2_ClearVars
		i2_GetPressureV_pa
		i2_GetPressure_pa
		i2_TMR0_StartTimer
		i2_TMR0_StopTimer
		i2_UnDisplayCalibrate
		i2___awdiv
		i2_printf
 This function is called by:
		_UpdateState
 This function uses a non-reentrant model


 *************** function i2_UnDisplayCalibrate *****************
 Defined at:
		line 61 in file "display.c"
 Parameters:    Size  Location     Type
		None
 Auto vars:     Size  Location     Type
		None
 Return value:  Size  Location     Type
                  1    wreg      void 
 Registers used:
		wreg, status,2
 Tracked objects:
		On entry : 
		On exit  : 
		Unchanged: 
 Data sizes:     COMRAM   BANK0   BANK1   BANK2   BANK3   BANK4   BANK5   BANK6   BANK7   BANK8   BANK9  BANK10  BANK11  BANK12  BANK13  BANK14  BANK15
      Params:         0       0       0       0       0       0       0       0       0       0       0       0       0       0       0       0       0
      Locals:         0       0       0       0       0       0       0       0       0       0       0       0       0       0       0       0       0
      Temps:          0       0       0       0       0       0       0       0       0       0       0       0       0       0       0       0       0
      Totals:         0       0       0       0       0       0       0       0       0       0       0       0       0       0       0       0       0
Total ram usage:        0 bytes
 Hardware stack levels used:    1
 This function calls:
		Nothing
 This function is called by:
		i2_SetCalibrateState
 This function uses a non-reentrant model


 *************** function i2_TMR0_StopTimer *****************
 Defined at:
		line 93 in file "mcc_generated_files/tmr0.c"
 Parameters:    Size  Location     Type
		None
 Auto vars:     Size  Location     Type
		None
 Return value:  Size  Location     Type
                  1    wreg      void 
 Registers used:
		None
 Tracked objects:
		On entry : 
		On exit  : 
		Unchanged: 
 Data sizes:     COMRAM   BANK0   BANK1   BANK2   BANK3   BANK4   BANK5   BANK6   BANK7   BANK8   BANK9  BANK10  BANK11  BANK12  BANK13  BANK14  BANK15
      Params:         0       0       0       0       0       0       0       0       0       0       0       0       0       0       0       0       0
      Locals:         0       0       0       0       0       0       0       0       0       0       0       0       0       0       0       0       0
      Temps:          0       0       0       0       0       0       0       0       0       0       0       0       0       0       0       0       0
      Totals:         0       0       0       0       0       0       0       0       0       0       0       0       0       0       0       0       0
Total ram usage:        0 bytes
 Hardware stack levels used:    1
 This function calls:
		Nothing
 This function is called by:
		i2_SetCalibrateState
 This function uses a non-reentrant model


 *************** function i2_TMR0_StartTimer *****************
 Defined at:
		line 87 in file "mcc_generated_files/tmr0.c"
 Parameters:    Size  Location     Type
		None
 Auto vars:     Size  Location     Type
		None
 Return value:  Size  Location     Type
                  1    wreg      void 
 Registers used:
		None
 Tracked objects:
		On entry : 
		On exit  : 
		Unchanged: 
 Data sizes:     COMRAM   BANK0   BANK1   BANK2   BANK3   BANK4   BANK5   BANK6   BANK7   BANK8   BANK9  BANK10  BANK11  BANK12  BANK13  BANK14  BANK15
      Params:         0       0       0       0       0       0       0       0       0       0       0       0       0       0       0       0       0
      Locals:         0       0       0       0       0       0       0       0       0       0       0       0       0       0       0       0       0
      Temps:          0       0       0       0       0       0       0       0       0       0       0       0       0       0       0       0       0
      Totals:         0       0       0       0       0       0       0       0       0       0       0       0       0       0       0       0       0
Total ram usage:        0 bytes
 Hardware stack levels used:    1
 This function calls:
		Nothing
 This function is called by:
		i2_SetCalibrateState
 This function uses a non-reentrant model


 *************** function i2_GetPressure_pa *****************
 Defined at:
		line 787 in file "monitor.c"
 Parameters:    Size  Location     Type
		None
 Auto vars:     Size  Location     Type
  GetPressure_    4   38[COMRAM] long 
  GetPressure_    4   30[COMRAM] long 
  GetPressure_    2   36[COMRAM] short 
  GetPressure_    2   34[COMRAM] unsigned short 
 Return value:  Size  Location     Type
                  2   26[COMRAM] short 
 Registers used:
		wreg, fsr2l, fsr2h, status,2, status,0, prodl, prodh, cstack
 Tracked objects:
		On entry : 
		On exit  : 
		Unchanged: 
 Data sizes:     COMRAM   BANK0   BANK1   BANK2   BANK3   BANK4   BANK5   BANK6   BANK7   BANK8   BANK9  BANK10  BANK11  BANK12  BANK13  BANK14  BANK15
      Params:         2       0       0       0       0       0       0       0       0       0       0       0       0       0       0       0       0
      Locals:        12       0       0       0       0       0       0       0       0       0       0       0       0       0       0       0       0
      Temps:          2       0       0       0       0       0       0       0       0       0       0       0       0       0       0       0       0
      Totals:        16       0       0       0       0       0       0       0       0       0       0       0       0       0       0       0       0
Total ram usage:       16 bytes
 Hardware stack levels used:    1
 Hardware stack levels required when called:    2
 This function calls:
		i2_AdcGetData
		i2___aldiv
		i2___awdiv
		i2___lmul
 This function is called by:
		_MonitorPressureTask
		_GetPressure_mbar02
		i2_SetCalibrateState
 This function uses a non-reentrant model


 *************** function i2___lmul *****************
 Defined at:
		line 15 in file "/Applications/microchip/xc8/v2.10/pic/sources/c99/common/Umul32.c"
 Parameters:    Size  Location     Type
  multiplier      4    0[COMRAM] unsigned long 
  multiplicand    4    4[COMRAM] unsigned long 
 Auto vars:     Size  Location     Type
  __lmul          4    8[COMRAM] unsigned long 
 Return value:  Size  Location     Type
                  4    0[COMRAM] unsigned long 
 Registers used:
		wreg, status,2, status,0
 Tracked objects:
		On entry : 
		On exit  : 
		Unchanged: 
 Data sizes:     COMRAM   BANK0   BANK1   BANK2   BANK3   BANK4   BANK5   BANK6   BANK7   BANK8   BANK9  BANK10  BANK11  BANK12  BANK13  BANK14  BANK15
      Params:         8       0       0       0       0       0       0       0       0       0       0       0       0       0       0       0       0
      Locals:         4       0       0       0       0       0       0       0       0       0       0       0       0       0       0       0       0
      Temps:          0       0       0       0       0       0       0       0       0       0       0       0       0       0       0       0       0
      Totals:        12       0       0       0       0       0       0       0       0       0       0       0       0       0       0       0       0
Total ram usage:       12 bytes
 Hardware stack levels used:    1
 This function calls:
		Nothing
 This function is called by:
		i2_GetPressure_pa
		i2_See12V
 This function uses a non-reentrant model


 *************** function i2_GetPressureV_pa *****************
 Defined at:
		line 814 in file "monitor.c"
 Parameters:    Size  Location     Type
		None
 Auto vars:     Size  Location     Type
  GetPressureV    4   20[COMRAM] long 
  GetPressureV    2   24[COMRAM] short 
  GetPressureV    2   18[COMRAM] unsigned short 
 Return value:  Size  Location     Type
                  2   14[COMRAM] short 
 Registers used:
		wreg, fsr2l, fsr2h, status,2, status,0, prodl, prodh, cstack
 Tracked objects:
		On entry : 
		On exit  : 
		Unchanged: 
 Data sizes:     COMRAM   BANK0   BANK1   BANK2   BANK3   BANK4   BANK5   BANK6   BANK7   BANK8   BANK9  BANK10  BANK11  BANK12  BANK13  BANK14  BANK15
      Params:         2       0       0       0       0       0       0       0       0       0       0       0       0       0       0       0       0
      Locals:         8       0       0       0       0       0       0       0       0       0       0       0       0       0       0       0       0
      Temps:          2       0       0       0       0       0       0       0       0       0       0       0       0       0       0       0       0
      Totals:        12       0       0       0       0       0       0       0       0       0       0       0       0       0       0       0       0
Total ram usage:       12 bytes
 Hardware stack levels used:    1
 Hardware stack levels required when called:    2
 This function calls:
		i2_AdcGetData
		i2___awdiv
 This function is called by:
		_MonitorPressureTask
		i2_SetCalibrateState
 This function uses a non-reentrant model


 *************** function i2_AdcGetData *****************
 Defined at:
		line 89 in file "monitor.c"
 Parameters:    Size  Location     Type
  id              2    6[COMRAM] int 
 Auto vars:     Size  Location     Type
  AdcGetData      2    8[COMRAM] unsigned short 
 Return value:  Size  Location     Type
                  2    6[COMRAM] unsigned short 
 Registers used:
		wreg, fsr2l, fsr2h, status,2, status,0, prodl, prodh, cstack
 Tracked objects:
		On entry : 
		On exit  : 
		Unchanged: 
 Data sizes:     COMRAM   BANK0   BANK1   BANK2   BANK3   BANK4   BANK5   BANK6   BANK7   BANK8   BANK9  BANK10  BANK11  BANK12  BANK13  BANK14  BANK15
      Params:         2       0       0       0       0       0       0       0       0       0       0       0       0       0       0       0       0
      Locals:         2       0       0       0       0       0       0       0       0       0       0       0       0       0       0       0       0
      Temps:          0       0       0       0       0       0       0       0       0       0       0       0       0       0       0       0       0
      Totals:         4       0       0       0       0       0       0       0       0       0       0       0       0       0       0       0       0
Total ram usage:        4 bytes
 Hardware stack levels used:    1
 Hardware stack levels required when called:    1
 This function calls:
		i2___wmul
 This function is called by:
		i2_GetPressure_pa
		i2_GetPressureV_pa
 This function uses a non-reentrant model


 *************** function i2_ClearVars *****************
 Defined at:
		line 692 in file "monitor.c"
 Parameters:    Size  Location     Type
		None
 Auto vars:     Size  Location     Type
  ClearVars       2    2[COMRAM] int 
  ClearVars       2    0[COMRAM] int 
 Return value:  Size  Location     Type
                  1    wreg      void 
 Registers used:
		wreg, fsr2l, fsr2h, status,2, status,0, cstack
 Tracked objects:
		On entry : 
		On exit  : 
		Unchanged: 
 Data sizes:     COMRAM   BANK0   BANK1   BANK2   BANK3   BANK4   BANK5   BANK6   BANK7   BANK8   BANK9  BANK10  BANK11  BANK12  BANK13  BANK14  BANK15
      Params:         0       0       0       0       0       0       0       0       0       0       0       0       0       0       0       0       0
      Locals:         4       0       0       0       0       0       0       0       0       0       0       0       0       0       0       0       0
      Temps:          0       0       0       0       0       0       0       0       0       0       0       0       0       0       0       0       0
      Totals:         4       0       0       0       0       0       0       0       0       0       0       0       0       0       0       0       0
Total ram usage:        4 bytes
 Hardware stack levels used:    1
 Hardware stack levels required when called:    1
 This function calls:
		i2_ClearCircuitFailureAlarm
		i2_ClearEPAboveSetAlarm
		i2_ClearEPBelowSetAlarm
		i2_ClearIPAboveSetAlarm
		i2_ClearIPBelowSetAlarm
 This function is called by:
		_MonitorPressureTask
		i2_SetCalibrateState
 This function uses a non-reentrant model


 *************** function i2_MonitorEnable *****************
 Defined at:
		line 272 in file "monitor.c"
 Parameters:    Size  Location     Type
		None
 Auto vars:     Size  Location     Type
		None
 Return value:  Size  Location     Type
                  1    wreg      void 
 Registers used:
		wreg, status,2
 Tracked objects:
		On entry : 
		On exit  : 
		Unchanged: 
 Data sizes:     COMRAM   BANK0   BANK1   BANK2   BANK3   BANK4   BANK5   BANK6   BANK7   BANK8   BANK9  BANK10  BANK11  BANK12  BANK13  BANK14  BANK15
      Params:         0       0       0       0       0       0       0       0       0       0       0       0       0       0       0       0       0
      Locals:         0       0       0       0       0       0       0       0       0       0       0       0       0       0       0       0       0
      Temps:          0       0       0       0       0       0       0       0       0       0       0       0       0       0       0       0       0
      Totals:         0       0       0       0       0       0       0       0       0       0       0       0       0       0       0       0       0
Total ram usage:        0 bytes
 Hardware stack levels used:    1
 This function calls:
		Nothing
 This function is called by:
		_UpdateState
 This function uses a non-reentrant model


 *************** function i2_MonitorDisable *****************
 Defined at:
		line 273 in file "monitor.c"
 Parameters:    Size  Location     Type
		None
 Auto vars:     Size  Location     Type
		None
 Return value:  Size  Location     Type
                  1    wreg      void 
 Registers used:
		wreg, status,2
 Tracked objects:
		On entry : 
		On exit  : 
		Unchanged: 
 Data sizes:     COMRAM   BANK0   BANK1   BANK2   BANK3   BANK4   BANK5   BANK6   BANK7   BANK8   BANK9  BANK10  BANK11  BANK12  BANK13  BANK14  BANK15
      Params:         0       0       0       0       0       0       0       0       0       0       0       0       0       0       0       0       0
      Locals:         0       0       0       0       0       0       0       0       0       0       0       0       0       0       0       0       0
      Temps:          0       0       0       0       0       0       0       0       0       0       0       0       0       0       0       0       0
      Totals:         0       0       0       0       0       0       0       0       0       0       0       0       0       0       0       0       0
Total ram usage:        0 bytes
 Hardware stack levels used:    1
 This function calls:
		Nothing
 This function is called by:
		_UpdateState
 This function uses a non-reentrant model


 *************** function i2_LCDOn *****************
 Defined at:
		line 119 in file "lcd.c"
 Parameters:    Size  Location     Type
		None
 Auto vars:     Size  Location     Type
		None
 Return value:  Size  Location     Type
                  1    wreg      void 
 Registers used:
		wreg, status,2
 Tracked objects:
		On entry : 
		On exit  : 
		Unchanged: 
 Data sizes:     COMRAM   BANK0   BANK1   BANK2   BANK3   BANK4   BANK5   BANK6   BANK7   BANK8   BANK9  BANK10  BANK11  BANK12  BANK13  BANK14  BANK15
      Params:         0       0       0       0       0       0       0       0       0       0       0       0       0       0       0       0       0
      Locals:         0       0       0       0       0       0       0       0       0       0       0       0       0       0       0       0       0
      Temps:          0       0       0       0       0       0       0       0       0       0       0       0       0       0       0       0       0
      Totals:         0       0       0       0       0       0       0       0       0       0       0       0       0       0       0       0       0
Total ram usage:        0 bytes
 Hardware stack levels used:    1
 This function calls:
		Nothing
 This function is called by:
		_UpdateState
 This function uses a non-reentrant model


 *************** function i2_LCDOff *****************
 Defined at:
		line 112 in file "lcd.c"
 Parameters:    Size  Location     Type
		None
 Auto vars:     Size  Location     Type
		None
 Return value:  Size  Location     Type
                  1    wreg      void 
 Registers used:
		wreg, status,2
 Tracked objects:
		On entry : 
		On exit  : 
		Unchanged: 
 Data sizes:     COMRAM   BANK0   BANK1   BANK2   BANK3   BANK4   BANK5   BANK6   BANK7   BANK8   BANK9  BANK10  BANK11  BANK12  BANK13  BANK14  BANK15
      Params:         0       0       0       0       0       0       0       0       0       0       0       0       0       0       0       0       0
      Locals:         0       0       0       0       0       0       0       0       0       0       0       0       0       0       0       0       0
      Temps:          0       0       0       0       0       0       0       0       0       0       0       0       0       0       0       0       0
      Totals:         0       0       0       0       0       0       0       0       0       0       0       0       0       0       0       0       0
Total ram usage:        0 bytes
 Hardware stack levels used:    1
 This function calls:
		Nothing
 This function is called by:
		_UpdateState
 This function uses a non-reentrant model


 *************** function i2_EnableAlarmSV1 *****************
 Defined at:
		line 877 in file "monitor.c"
 Parameters:    Size  Location     Type
		None
 Auto vars:     Size  Location     Type
		None
 Return value:  Size  Location     Type
                  1    wreg      void 
 Registers used:
		wreg, status,2
 Tracked objects:
		On entry : 
		On exit  : 
		Unchanged: 
 Data sizes:     COMRAM   BANK0   BANK1   BANK2   BANK3   BANK4   BANK5   BANK6   BANK7   BANK8   BANK9  BANK10  BANK11  BANK12  BANK13  BANK14  BANK15
      Params:         0       0       0       0       0       0       0       0       0       0       0       0       0       0       0       0       0
      Locals:         0       0       0       0       0       0       0       0       0       0       0       0       0       0       0       0       0
      Temps:          0       0       0       0       0       0       0       0       0       0       0       0       0       0       0       0       0
      Totals:         0       0       0       0       0       0       0       0       0       0       0       0       0       0       0       0       0
Total ram usage:        0 bytes
 Hardware stack levels used:    1
 This function calls:
		Nothing
 This function is called by:
		_UpdateState
 This function uses a non-reentrant model


 *************** function _SetVolumeControl *****************
 Defined at:
		line 197 in file "monitor.c"
 Parameters:    Size  Location     Type
  vc              1    wreg     _Bool 
 Auto vars:     Size  Location     Type
  vc              1    0[COMRAM] _Bool 
 Return value:  Size  Location     Type
                  1    wreg      void 
 Registers used:
		wreg
 Tracked objects:
		On entry : 
		On exit  : 
		Unchanged: 
 Data sizes:     COMRAM   BANK0   BANK1   BANK2   BANK3   BANK4   BANK5   BANK6   BANK7   BANK8   BANK9  BANK10  BANK11  BANK12  BANK13  BANK14  BANK15
      Params:         0       0       0       0       0       0       0       0       0       0       0       0       0       0       0       0       0
      Locals:         1       0       0       0       0       0       0       0       0       0       0       0       0       0       0       0       0
      Temps:          0       0       0       0       0       0       0       0       0       0       0       0       0       0       0       0       0
      Totals:         1       0       0       0       0       0       0       0       0       0       0       0       0       0       0       0       0
Total ram usage:        1 bytes
 Hardware stack levels used:    1
 This function calls:
		Nothing
 This function is called by:
		_UpdateState
 This function uses a non-reentrant model


 *************** function _SetTarget *****************
 Defined at:
		line 199 in file "monitor.c"
 Parameters:    Size  Location     Type
  pmax            2   26[COMRAM] short 
  ip              2   28[COMRAM] short 
  ep              2   30[COMRAM] short 
  br              2   32[COMRAM] unsigned short 
  vmax            2   34[COMRAM] short 
  vmin            2   36[COMRAM] short 
 Auto vars:     Size  Location     Type
		None
 Return value:  Size  Location     Type
                  1    wreg      void 
 Registers used:
		wreg, status,2, status,0, prodl, prodh, cstack
 Tracked objects:
		On entry : 
		On exit  : 
		Unchanged: 
 Data sizes:     COMRAM   BANK0   BANK1   BANK2   BANK3   BANK4   BANK5   BANK6   BANK7   BANK8   BANK9  BANK10  BANK11  BANK12  BANK13  BANK14  BANK15
      Params:        12       0       0       0       0       0       0       0       0       0       0       0       0       0       0       0       0
      Locals:         0       0       0       0       0       0       0       0       0       0       0       0       0       0       0       0       0
      Temps:          0       0       0       0       0       0       0       0       0       0       0       0       0       0       0       0       0
      Totals:        12       0       0       0       0       0       0       0       0       0       0       0       0       0       0       0       0
Total ram usage:       12 bytes
 Hardware stack levels used:    1
 Hardware stack levels required when called:    1
 This function calls:
		i2___aldiv
		i2___wmul
 This function is called by:
		_UpdateState
 This function uses a non-reentrant model


 *************** function i2___aldiv *****************
 Defined at:
		line 7 in file "/Applications/microchip/xc8/v2.10/pic/sources/c99/common/aldiv.c"
 Parameters:    Size  Location     Type
  dividend        4   12[COMRAM] long 
  divisor         4   16[COMRAM] long 
 Auto vars:     Size  Location     Type
  __aldiv         4   22[COMRAM] long 
  __aldiv         1   21[COMRAM] unsigned char 
  __aldiv         1   20[COMRAM] unsigned char 
 Return value:  Size  Location     Type
                  4   12[COMRAM] long 
 Registers used:
		wreg, status,2, status,0
 Tracked objects:
		On entry : 
		On exit  : 
		Unchanged: 
 Data sizes:     COMRAM   BANK0   BANK1   BANK2   BANK3   BANK4   BANK5   BANK6   BANK7   BANK8   BANK9  BANK10  BANK11  BANK12  BANK13  BANK14  BANK15
      Params:         8       0       0       0       0       0       0       0       0       0       0       0       0       0       0       0       0
      Locals:         6       0       0       0       0       0       0       0       0       0       0       0       0       0       0       0       0
      Temps:          0       0       0       0       0       0       0       0       0       0       0       0       0       0       0       0       0
      Totals:        14       0       0       0       0       0       0       0       0       0       0       0       0       0       0       0       0
Total ram usage:       14 bytes
 Hardware stack levels used:    1
 This function calls:
		Nothing
 This function is called by:
		_SetTarget
		_MonitorPressureTask
		i2_GetPressure_pa
		i2_See5V
		i2_See12V
 This function uses a non-reentrant model


 *************** function _SetMaxPressure *****************
 Defined at:
		line 144 in file "alarm.c"
 Parameters:    Size  Location     Type
  pr              2    0[COMRAM] short 
 Auto vars:     Size  Location     Type
		None
 Return value:  Size  Location     Type
                  1    wreg      void 
 Registers used:
		None
 Tracked objects:
		On entry : 
		On exit  : 
		Unchanged: 
 Data sizes:     COMRAM   BANK0   BANK1   BANK2   BANK3   BANK4   BANK5   BANK6   BANK7   BANK8   BANK9  BANK10  BANK11  BANK12  BANK13  BANK14  BANK15
      Params:         2       0       0       0       0       0       0       0       0       0       0       0       0       0       0       0       0
      Locals:         0       0       0       0       0       0       0       0       0       0       0       0       0       0       0       0       0
      Temps:          0       0       0       0       0       0       0       0       0       0       0       0       0       0       0       0       0
      Totals:         2       0       0       0       0       0       0       0       0       0       0       0       0       0       0       0       0
Total ram usage:        2 bytes
 Hardware stack levels used:    1
 This function calls:
		Nothing
 This function is called by:
		_UpdateState
 This function uses a non-reentrant model


 *************** function _SetControlFailAlarm *****************
 Defined at:
		line 229 in file "alarm.c"
 Parameters:    Size  Location     Type
		None
 Auto vars:     Size  Location     Type
		None
 Return value:  Size  Location     Type
                  1    wreg      void 
 Registers used:
		wreg, status,2
 Tracked objects:
		On entry : 
		On exit  : 
		Unchanged: 
 Data sizes:     COMRAM   BANK0   BANK1   BANK2   BANK3   BANK4   BANK5   BANK6   BANK7   BANK8   BANK9  BANK10  BANK11  BANK12  BANK13  BANK14  BANK15
      Params:         0       0       0       0       0       0       0       0       0       0       0       0       0       0       0       0       0
      Locals:         0       0       0       0       0       0       0       0       0       0       0       0       0       0       0       0       0
      Temps:          0       0       0       0       0       0       0       0       0       0       0       0       0       0       0       0       0
      Totals:         0       0       0       0       0       0       0       0       0       0       0       0       0       0       0       0       0
Total ram usage:        0 bytes
 Hardware stack levels used:    1
 This function calls:
		Nothing
 This function is called by:
		_UpdateState
		_ControllerTimerHandler
 This function uses a non-reentrant model


 *************** function _GetControllerBuzzerCheck *****************
 Defined at:
		line 415 in file "buzzer.c"
 Parameters:    Size  Location     Type
		None
 Auto vars:     Size  Location     Type
  tmp             1    0[COMRAM] _Bool 
 Return value:  Size  Location     Type
                  1    wreg      _Bool 
 Registers used:
		wreg, status,2
 Tracked objects:
		On entry : 
		On exit  : 
		Unchanged: 
 Data sizes:     COMRAM   BANK0   BANK1   BANK2   BANK3   BANK4   BANK5   BANK6   BANK7   BANK8   BANK9  BANK10  BANK11  BANK12  BANK13  BANK14  BANK15
      Params:         0       0       0       0       0       0       0       0       0       0       0       0       0       0       0       0       0
      Locals:         1       0       0       0       0       0       0       0       0       0       0       0       0       0       0       0       0
      Temps:          0       0       0       0       0       0       0       0       0       0       0       0       0       0       0       0       0
      Totals:         1       0       0       0       0       0       0       0       0       0       0       0       0       0       0       0       0
Total ram usage:        1 bytes
 Hardware stack levels used:    1
 This function calls:
		Nothing
 This function is called by:
		_UpdateState
 This function uses a non-reentrant model


 *************** function _DisplayEnable *****************
 Defined at:
		line 46 in file "display.c"
 Parameters:    Size  Location     Type
		None
 Auto vars:     Size  Location     Type
		None
 Return value:  Size  Location     Type
                  1    wreg      void 
 Registers used:
		wreg, fsr1l, fsr1h, fsr2l, fsr2h, status,2, status,0, tblptrl, tblptrh, tblptru, prodl, prodh, cstack
 Tracked objects:
		On entry : 
		On exit  : 
		Unchanged: 
 Data sizes:     COMRAM   BANK0   BANK1   BANK2   BANK3   BANK4   BANK5   BANK6   BANK7   BANK8   BANK9  BANK10  BANK11  BANK12  BANK13  BANK14  BANK15
      Params:         0       0       0       0       0       0       0       0       0       0       0       0       0       0       0       0       0
      Locals:         0       0       0       0       0       0       0       0       0       0       0       0       0       0       0       0       0
      Temps:          0       0       0       0       0       0       0       0       0       0       0       0       0       0       0       0       0
      Totals:         0       0       0       0       0       0       0       0       0       0       0       0       0       0       0       0       0
Total ram usage:        0 bytes
 Hardware stack levels used:    1
 Hardware stack levels required when called:   10
 This function calls:
		i2_ValueDisplay
 This function is called by:
		_UpdateState
 This function uses a non-reentrant model


 *************** function _DisplayDisable *****************
 Defined at:
		line 51 in file "display.c"
 Parameters:    Size  Location     Type
		None
 Auto vars:     Size  Location     Type
		None
 Return value:  Size  Location     Type
                  1    wreg      void 
 Registers used:
		wreg, fsr1l, fsr1h, fsr2l, fsr2h, status,2, status,0, tblptrl, tblptrh, tblptru, prodl, prodh, cstack
 Tracked objects:
		On entry : 
		On exit  : 
		Unchanged: 
 Data sizes:     COMRAM   BANK0   BANK1   BANK2   BANK3   BANK4   BANK5   BANK6   BANK7   BANK8   BANK9  BANK10  BANK11  BANK12  BANK13  BANK14  BANK15
      Params:         0       0       0       0       0       0       0       0       0       0       0       0       0       0       0       0       0
      Locals:         0       0       0       0       0       0       0       0       0       0       0       0       0       0       0       0       0
      Temps:          0       0       0       0       0       0       0       0       0       0       0       0       0       0       0       0       0
      Totals:         0       0       0       0       0       0       0       0       0       0       0       0       0       0       0       0       0
Total ram usage:        0 bytes
 Hardware stack levels used:    1
 Hardware stack levels required when called:   10
 This function calls:
		i2_ValueDisplay
 This function is called by:
		_UpdateState
 This function uses a non-reentrant model


 *************** function i2_ValueDisplay *****************
 Defined at:
		line 66 in file "display.c"
 Parameters:    Size  Location     Type
		None
 Auto vars:     Size  Location     Type
  ValueDisplay    2   91[BANK0 ] short 
  ValueDisplay    2   89[BANK0 ] short 
  ValueDisplay    2   87[BANK0 ] short 
  ValueDisplay    2   82[BANK0 ] short 
  ValueDisplay    2   80[BANK0 ] short 
  ValueDisplay    2   67[BANK0 ] short 
  ValueDisplay    2   65[BANK0 ] short 
  ValueDisplay    2   63[BANK0 ] short 
  ValueDisplay    2   61[BANK0 ] short 
  ValueDisplay    2   59[BANK0 ] short 
  ValueDisplay    2    0        short 
  ValueDisplay    2    0        short 
  ValueDisplay    2    0        short 
  ValueDisplay    1   86[BANK0 ] char 
  ValueDisplay    1   85[BANK0 ] char 
  ValueDisplay    1   84[BANK0 ] char 
  ValueDisplay    1   75[BANK0 ] char 
  ValueDisplay    1   74[BANK0 ] char 
  ValueDisplay    1   73[BANK0 ] char 
  ValueDisplay    1   72[BANK0 ] char 
  ValueDisplay    1   71[BANK0 ] char 
  ValueDisplay    1    0        char 
  ValueDisplay    1    0        char 
 Return value:  Size  Location     Type
                  1    wreg      void 
 Registers used:
		wreg, fsr1l, fsr1h, fsr2l, fsr2h, status,2, status,0, tblptrl, tblptrh, tblptru, prodl, prodh, cstack
 Tracked objects:
		On entry : 
		On exit  : 
		Unchanged: 
 Data sizes:     COMRAM   BANK0   BANK1   BANK2   BANK3   BANK4   BANK5   BANK6   BANK7   BANK8   BANK9  BANK10  BANK11  BANK12  BANK13  BANK14  BANK15
      Params:         0       0       0       0       0       0       0       0       0       0       0       0       0       0       0       0       0
      Locals:         0      42       0       0       0       0       0       0       0       0       0       0       0       0       0       0       0
      Temps:          0       0       0       0       0       0       0       0       0       0       0       0       0       0       0       0       0
      Totals:         0      42       0       0       0       0       0       0       0       0       0       0       0       0       0       0       0
Total ram usage:       42 bytes
 Hardware stack levels used:    1
 Hardware stack levels required when called:    9
 This function calls:
		i2_GetAlarmState
		i2_GetBpm
		i2_GetDisableAlarmSV1
		i2_GetEp
		i2_GetIp
		i2_GetPmax
		i2_GetSpr
		i2_GetTargetEp
		i2_GetTargetIp
		i2_GetTde
		i2_GetTdi
		i2_GetTe
		i2_GetTi
		i2_GetVolume
		i2___awdiv
		i2___awmod
		i2___wmul
		i2_sprintf
 This function is called by:
		_DisplayEnable
		_DisplayDisable
		i2_AlarmDisplay
		i2_AlarmUpdateLCD
 This function uses a non-reentrant model


 *************** function i2_sprintf *****************
 Defined at:
		line 9 in file "/Applications/microchip/xc8/v2.10/pic/sources/c99/common/nf_sprintf.c"
 Parameters:    Size  Location     Type
  s               2   23[BANK0 ] PTR unsigned char 
		 -> msg3(20), msg2(20), msg1(20), msg4(20), 
  fmt             2   25[BANK0 ] PTR const unsigned char 
		 -> STR_13(8), STR_12(23), STR_10(26), STR_9(17), 
		 -> STR_8(17), STR_7(15), 
 Auto vars:     Size  Location     Type
  sprintf         6   45[BANK0 ] struct _IO_FILE
  sprintf         2   43[BANK0 ] PTR void [1]
		 -> ?i2_sprintf(2), ?_printf(2), ?_sprintf(2), 
  sprintf         2    0        int 
 Return value:  Size  Location     Type
                  2   23[BANK0 ] int 
 Registers used:
		wreg, fsr1l, fsr1h, fsr2l, fsr2h, status,2, status,0, tblptrl, tblptrh, tblptru, prodl, prodh, cstack
 Tracked objects:
		On entry : 
		On exit  : 
		Unchanged: 
 Data sizes:     COMRAM   BANK0   BANK1   BANK2   BANK3   BANK4   BANK5   BANK6   BANK7   BANK8   BANK9  BANK10  BANK11  BANK12  BANK13  BANK14  BANK15
      Params:         0      18       0       0       0       0       0       0       0       0       0       0       0       0       0       0       0
      Locals:         0      10       0       0       0       0       0       0       0       0       0       0       0       0       0       0       0
      Temps:          0       0       0       0       0       0       0       0       0       0       0       0       0       0       0       0       0
      Totals:         0      28       0       0       0       0       0       0       0       0       0       0       0       0       0       0       0
Total ram usage:       28 bytes
 Hardware stack levels used:    1
 Hardware stack levels required when called:    8
 This function calls:
		i2_vfprintf
 This function is called by:
		_DisplayCalibrate
		i2_ValueDisplay
		i2_AlarmDisplay
 This function uses a non-reentrant model


 *************** function i2___awmod *****************
 Defined at:
		line 7 in file "/Applications/microchip/xc8/v2.10/pic/sources/c99/common/awmod.c"
 Parameters:    Size  Location     Type
  dividend        2    0[COMRAM] int 
  divisor         2    2[COMRAM] int 
 Auto vars:     Size  Location     Type
  __awmod         1    5[COMRAM] unsigned char 
  __awmod         1    4[COMRAM] unsigned char 
 Return value:  Size  Location     Type
                  2    0[COMRAM] int 
 Registers used:
		wreg, status,2, status,0
 Tracked objects:
		On entry : 
		On exit  : 
		Unchanged: 
 Data sizes:     COMRAM   BANK0   BANK1   BANK2   BANK3   BANK4   BANK5   BANK6   BANK7   BANK8   BANK9  BANK10  BANK11  BANK12  BANK13  BANK14  BANK15
      Params:         4       0       0       0       0       0       0       0       0       0       0       0       0       0       0       0       0
      Locals:         2       0       0       0       0       0       0       0       0       0       0       0       0       0       0       0       0
      Temps:          0       0       0       0       0       0       0       0       0       0       0       0       0       0       0       0       0
      Totals:         6       0       0       0       0       0       0       0       0       0       0       0       0       0       0       0       0
Total ram usage:        6 bytes
 Hardware stack levels used:    1
 This function calls:
		Nothing
 This function is called by:
		_MonitorPressureTask
		_ControllerTimerHandler
		i2_ValueDisplay
		i2_AlarmDisplay
 This function uses a non-reentrant model


 *************** function i2_GetVolume *****************
 Defined at:
		line 169 in file "monitor.c"
 Parameters:    Size  Location     Type
		None
 Auto vars:     Size  Location     Type
		None
 Return value:  Size  Location     Type
                  2    0[COMRAM] short 
 Registers used:
		None
 Tracked objects:
		On entry : 
		On exit  : 
		Unchanged: 
 Data sizes:     COMRAM   BANK0   BANK1   BANK2   BANK3   BANK4   BANK5   BANK6   BANK7   BANK8   BANK9  BANK10  BANK11  BANK12  BANK13  BANK14  BANK15
      Params:         2       0       0       0       0       0       0       0       0       0       0       0       0       0       0       0       0
      Locals:         0       0       0       0       0       0       0       0       0       0       0       0       0       0       0       0       0
      Temps:          0       0       0       0       0       0       0       0       0       0       0       0       0       0       0       0       0
      Totals:         2       0       0       0       0       0       0       0       0       0       0       0       0       0       0       0       0
Total ram usage:        2 bytes
 Hardware stack levels used:    1
 This function calls:
		Nothing
 This function is called by:
		i2_ValueDisplay
 This function uses a non-reentrant model


 *************** function i2_GetTi *****************
 Defined at:
		line 162 in file "monitor.c"
 Parameters:    Size  Location     Type
		None
 Auto vars:     Size  Location     Type
		None
 Return value:  Size  Location     Type
                  2    0[COMRAM] short 
 Registers used:
		wreg, status,2, status,0
 Tracked objects:
		On entry : 
		On exit  : 
		Unchanged: 
 Data sizes:     COMRAM   BANK0   BANK1   BANK2   BANK3   BANK4   BANK5   BANK6   BANK7   BANK8   BANK9  BANK10  BANK11  BANK12  BANK13  BANK14  BANK15
      Params:         2       0       0       0       0       0       0       0       0       0       0       0       0       0       0       0       0
      Locals:         0       0       0       0       0       0       0       0       0       0       0       0       0       0       0       0       0
      Temps:          0       0       0       0       0       0       0       0       0       0       0       0       0       0       0       0       0
      Totals:         2       0       0       0       0       0       0       0       0       0       0       0       0       0       0       0       0
Total ram usage:        2 bytes
 Hardware stack levels used:    1
 This function calls:
		Nothing
 This function is called by:
		i2_ValueDisplay
 This function uses a non-reentrant model


 *************** function i2_GetTe *****************
 Defined at:
		line 163 in file "monitor.c"
 Parameters:    Size  Location     Type
		None
 Auto vars:     Size  Location     Type
		None
 Return value:  Size  Location     Type
                  2    0[COMRAM] short 
 Registers used:
		wreg, status,2, status,0
 Tracked objects:
		On entry : 
		On exit  : 
		Unchanged: 
 Data sizes:     COMRAM   BANK0   BANK1   BANK2   BANK3   BANK4   BANK5   BANK6   BANK7   BANK8   BANK9  BANK10  BANK11  BANK12  BANK13  BANK14  BANK15
      Params:         2       0       0       0       0       0       0       0       0       0       0       0       0       0       0       0       0
      Locals:         0       0       0       0       0       0       0       0       0       0       0       0       0       0       0       0       0
      Temps:          0       0       0       0       0       0       0       0       0       0       0       0       0       0       0       0       0
      Totals:         2       0       0       0       0       0       0       0       0       0       0       0       0       0       0       0       0
Total ram usage:        2 bytes
 Hardware stack levels used:    1
 This function calls:
		Nothing
 This function is called by:
		i2_ValueDisplay
 This function uses a non-reentrant model


 *************** function i2_GetTdi *****************
 Defined at:
		line 161 in file "monitor.c"
 Parameters:    Size  Location     Type
		None
 Auto vars:     Size  Location     Type
		None
 Return value:  Size  Location     Type
                  2    0[COMRAM] short 
 Registers used:
		wreg, status,2, status,0
 Tracked objects:
		On entry : 
		On exit  : 
		Unchanged: 
 Data sizes:     COMRAM   BANK0   BANK1   BANK2   BANK3   BANK4   BANK5   BANK6   BANK7   BANK8   BANK9  BANK10  BANK11  BANK12  BANK13  BANK14  BANK15
      Params:         2       0       0       0       0       0       0       0       0       0       0       0       0       0       0       0       0
      Locals:         0       0       0       0       0       0       0       0       0       0       0       0       0       0       0       0       0
      Temps:          0       0       0       0       0       0       0       0       0       0       0       0       0       0       0       0       0
      Totals:         2       0       0       0       0       0       0       0       0       0       0       0       0       0       0       0       0
Total ram usage:        2 bytes
 Hardware stack levels used:    1
 This function calls:
		Nothing
 This function is called by:
		i2_ValueDisplay
 This function uses a non-reentrant model


 *************** function i2_GetTde *****************
 Defined at:
		line 160 in file "monitor.c"
 Parameters:    Size  Location     Type
		None
 Auto vars:     Size  Location     Type
		None
 Return value:  Size  Location     Type
                  2    0[COMRAM] short 
 Registers used:
		wreg, status,2, status,0
 Tracked objects:
		On entry : 
		On exit  : 
		Unchanged: 
 Data sizes:     COMRAM   BANK0   BANK1   BANK2   BANK3   BANK4   BANK5   BANK6   BANK7   BANK8   BANK9  BANK10  BANK11  BANK12  BANK13  BANK14  BANK15
      Params:         2       0       0       0       0       0       0       0       0       0       0       0       0       0       0       0       0
      Locals:         0       0       0       0       0       0       0       0       0       0       0       0       0       0       0       0       0
      Temps:          0       0       0       0       0       0       0       0       0       0       0       0       0       0       0       0       0
      Totals:         2       0       0       0       0       0       0       0       0       0       0       0       0       0       0       0       0
Total ram usage:        2 bytes
 Hardware stack levels used:    1
 This function calls:
		Nothing
 This function is called by:
		i2_ValueDisplay
 This function uses a non-reentrant model


 *************** function i2_GetTargetIp *****************
 Defined at:
		line 189 in file "monitor.c"
 Parameters:    Size  Location     Type
		None
 Auto vars:     Size  Location     Type
		None
 Return value:  Size  Location     Type
                  2   14[COMRAM] short 
 Registers used:
		wreg, status,2, status,0, cstack
 Tracked objects:
		On entry : 
		On exit  : 
		Unchanged: 
 Data sizes:     COMRAM   BANK0   BANK1   BANK2   BANK3   BANK4   BANK5   BANK6   BANK7   BANK8   BANK9  BANK10  BANK11  BANK12  BANK13  BANK14  BANK15
      Params:         2       0       0       0       0       0       0       0       0       0       0       0       0       0       0       0       0
      Locals:         0       0       0       0       0       0       0       0       0       0       0       0       0       0       0       0       0
      Temps:          0       0       0       0       0       0       0       0       0       0       0       0       0       0       0       0       0
      Totals:         2       0       0       0       0       0       0       0       0       0       0       0       0       0       0       0       0
Total ram usage:        2 bytes
 Hardware stack levels used:    1
 Hardware stack levels required when called:    1
 This function calls:
		i2___awdiv
 This function is called by:
		i2_ValueDisplay
 This function uses a non-reentrant model


 *************** function i2_GetTargetEp *****************
 Defined at:
		line 193 in file "monitor.c"
 Parameters:    Size  Location     Type
		None
 Auto vars:     Size  Location     Type
		None
 Return value:  Size  Location     Type
                  2   14[COMRAM] short 
 Registers used:
		wreg, status,2, status,0, cstack
 Tracked objects:
		On entry : 
		On exit  : 
		Unchanged: 
 Data sizes:     COMRAM   BANK0   BANK1   BANK2   BANK3   BANK4   BANK5   BANK6   BANK7   BANK8   BANK9  BANK10  BANK11  BANK12  BANK13  BANK14  BANK15
      Params:         2       0       0       0       0       0       0       0       0       0       0       0       0       0       0       0       0
      Locals:         0       0       0       0       0       0       0       0       0       0       0       0       0       0       0       0       0
      Temps:          0       0       0       0       0       0       0       0       0       0       0       0       0       0       0       0       0
      Totals:         2       0       0       0       0       0       0       0       0       0       0       0       0       0       0       0       0
Total ram usage:        2 bytes
 Hardware stack levels used:    1
 Hardware stack levels required when called:    1
 This function calls:
		i2___awdiv
 This function is called by:
		i2_ValueDisplay
 This function uses a non-reentrant model


 *************** function i2_GetSpr *****************
 Defined at:
		line 60 in file "controller.c"
 Parameters:    Size  Location     Type
		None
 Auto vars:     Size  Location     Type
		None
 Return value:  Size  Location     Type
                  2    0[COMRAM] short 
 Registers used:
		None
 Tracked objects:
		On entry : 
		On exit  : 
		Unchanged: 
 Data sizes:     COMRAM   BANK0   BANK1   BANK2   BANK3   BANK4   BANK5   BANK6   BANK7   BANK8   BANK9  BANK10  BANK11  BANK12  BANK13  BANK14  BANK15
      Params:         2       0       0       0       0       0       0       0       0       0       0       0       0       0       0       0       0
      Locals:         0       0       0       0       0       0       0       0       0       0       0       0       0       0       0       0       0
      Temps:          0       0       0       0       0       0       0       0       0       0       0       0       0       0       0       0       0
      Totals:         2       0       0       0       0       0       0       0       0       0       0       0       0       0       0       0       0
Total ram usage:        2 bytes
 Hardware stack levels used:    1
 This function calls:
		Nothing
 This function is called by:
		i2_ValueDisplay
 This function uses a non-reentrant model


 *************** function i2_GetPmax *****************
 Defined at:
		line 170 in file "monitor.c"
 Parameters:    Size  Location     Type
		None
 Auto vars:     Size  Location     Type
		None
 Return value:  Size  Location     Type
                  2   14[COMRAM] short 
 Registers used:
		wreg, status,2, status,0, cstack
 Tracked objects:
		On entry : 
		On exit  : 
		Unchanged: 
 Data sizes:     COMRAM   BANK0   BANK1   BANK2   BANK3   BANK4   BANK5   BANK6   BANK7   BANK8   BANK9  BANK10  BANK11  BANK12  BANK13  BANK14  BANK15
      Params:         2       0       0       0       0       0       0       0       0       0       0       0       0       0       0       0       0
      Locals:         0       0       0       0       0       0       0       0       0       0       0       0       0       0       0       0       0
      Temps:          0       0       0       0       0       0       0       0       0       0       0       0       0       0       0       0       0
      Totals:         2       0       0       0       0       0       0       0       0       0       0       0       0       0       0       0       0
Total ram usage:        2 bytes
 Hardware stack levels used:    1
 Hardware stack levels required when called:    1
 This function calls:
		i2___awdiv
 This function is called by:
		i2_ValueDisplay
 This function uses a non-reentrant model


 *************** function i2_GetIp *****************
 Defined at:
		line 168 in file "monitor.c"
 Parameters:    Size  Location     Type
		None
 Auto vars:     Size  Location     Type
		None
 Return value:  Size  Location     Type
                  2   14[COMRAM] short 
 Registers used:
		wreg, status,2, status,0, cstack
 Tracked objects:
		On entry : 
		On exit  : 
		Unchanged: 
 Data sizes:     COMRAM   BANK0   BANK1   BANK2   BANK3   BANK4   BANK5   BANK6   BANK7   BANK8   BANK9  BANK10  BANK11  BANK12  BANK13  BANK14  BANK15
      Params:         2       0       0       0       0       0       0       0       0       0       0       0       0       0       0       0       0
      Locals:         4       0       0       0       0       0       0       0       0       0       0       0       0       0       0       0       0
      Temps:          3       0       0       0       0       0       0       0       0       0       0       0       0       0       0       0       0
      Totals:         9       0       0       0       0       0       0       0       0       0       0       0       0       0       0       0       0
Total ram usage:        9 bytes
 Hardware stack levels used:    1
 Hardware stack levels required when called:    1
 This function calls:
		i2___awdiv
 This function is called by:
		i2_ValueDisplay
 This function uses a non-reentrant model


 *************** function i2_GetEp *****************
 Defined at:
		line 167 in file "monitor.c"
 Parameters:    Size  Location     Type
		None
 Auto vars:     Size  Location     Type
		None
 Return value:  Size  Location     Type
                  2   14[COMRAM] short 
 Registers used:
		wreg, status,2, status,0, cstack
 Tracked objects:
		On entry : 
		On exit  : 
		Unchanged: 
 Data sizes:     COMRAM   BANK0   BANK1   BANK2   BANK3   BANK4   BANK5   BANK6   BANK7   BANK8   BANK9  BANK10  BANK11  BANK12  BANK13  BANK14  BANK15
      Params:         2       0       0       0       0       0       0       0       0       0       0       0       0       0       0       0       0
      Locals:         0       0       0       0       0       0       0       0       0       0       0       0       0       0       0       0       0
      Temps:          0       0       0       0       0       0       0       0       0       0       0       0       0       0       0       0       0
      Totals:         2       0       0       0       0       0       0       0       0       0       0       0       0       0       0       0       0
Total ram usage:        2 bytes
 Hardware stack levels used:    1
 Hardware stack levels required when called:    1
 This function calls:
		i2___awdiv
 This function is called by:
		i2_ValueDisplay
 This function uses a non-reentrant model


 *************** function i2___awdiv *****************
 Defined at:
		line 7 in file "/Applications/microchip/xc8/v2.10/pic/sources/c99/common/awdiv.c"
 Parameters:    Size  Location     Type
  dividend        2    6[COMRAM] int 
  divisor         2    8[COMRAM] int 
 Auto vars:     Size  Location     Type
  __awdiv         2   12[COMRAM] int 
  __awdiv         1   11[COMRAM] unsigned char 
  __awdiv         1   10[COMRAM] unsigned char 
 Return value:  Size  Location     Type
                  2    6[COMRAM] int 
 Registers used:
		wreg, status,2, status,0
 Tracked objects:
		On entry : 
		On exit  : 
		Unchanged: 
 Data sizes:     COMRAM   BANK0   BANK1   BANK2   BANK3   BANK4   BANK5   BANK6   BANK7   BANK8   BANK9  BANK10  BANK11  BANK12  BANK13  BANK14  BANK15
      Params:         4       0       0       0       0       0       0       0       0       0       0       0       0       0       0       0       0
      Locals:         4       0       0       0       0       0       0       0       0       0       0       0       0       0       0       0       0
      Temps:          0       0       0       0       0       0       0       0       0       0       0       0       0       0       0       0       0
      Totals:         8       0       0       0       0       0       0       0       0       0       0       0       0       0       0       0       0
Total ram usage:        8 bytes
 Hardware stack levels used:    1
 This function calls:
		Nothing
 This function is called by:
		_MonitorPressureTask
		_GetPressure_mbar02
		i2_ValueDisplay
		i2_GetEp
		i2_GetIp
		i2_GetPmax
		i2_GetTargetIp
		i2_GetTargetEp
		i2_SetCalibrateState
		i2_GetPressure_pa
		i2_GetPressureV_pa
 This function uses a non-reentrant model


 *************** function i2_GetDisableAlarmSV1 *****************
 Defined at:
		line 881 in file "monitor.c"
 Parameters:    Size  Location     Type
		None
 Auto vars:     Size  Location     Type
		None
 Return value:  Size  Location     Type
                  1    wreg      _Bool 
 Registers used:
		wreg, status,2
 Tracked objects:
		On entry : 
		On exit  : 
		Unchanged: 
 Data sizes:     COMRAM   BANK0   BANK1   BANK2   BANK3   BANK4   BANK5   BANK6   BANK7   BANK8   BANK9  BANK10  BANK11  BANK12  BANK13  BANK14  BANK15
      Params:         0       0       0       0       0       0       0       0       0       0       0       0       0       0       0       0       0
      Locals:         0       0       0       0       0       0       0       0       0       0       0       0       0       0       0       0       0
      Temps:          0       0       0       0       0       0       0       0       0       0       0       0       0       0       0       0       0
      Totals:         0       0       0       0       0       0       0       0       0       0       0       0       0       0       0       0       0
Total ram usage:        0 bytes
 Hardware stack levels used:    1
 This function calls:
		Nothing
 This function is called by:
		i2_ValueDisplay
 This function uses a non-reentrant model


 *************** function i2_GetBpm *****************
 Defined at:
		line 165 in file "monitor.c"
 Parameters:    Size  Location     Type
		None
 Auto vars:     Size  Location     Type
		None
 Return value:  Size  Location     Type
                  2    0[COMRAM] short 
 Registers used:
		None
 Tracked objects:
		On entry : 
		On exit  : 
		Unchanged: 
 Data sizes:     COMRAM   BANK0   BANK1   BANK2   BANK3   BANK4   BANK5   BANK6   BANK7   BANK8   BANK9  BANK10  BANK11  BANK12  BANK13  BANK14  BANK15
      Params:         2       0       0       0       0       0       0       0       0       0       0       0       0       0       0       0       0
      Locals:         0       0       0       0       0       0       0       0       0       0       0       0       0       0       0       0       0
      Temps:          0       0       0       0       0       0       0       0       0       0       0       0       0       0       0       0       0
      Totals:         2       0       0       0       0       0       0       0       0       0       0       0       0       0       0       0       0
Total ram usage:        2 bytes
 Hardware stack levels used:    1
 This function calls:
		Nothing
 This function is called by:
		i2_ValueDisplay
 This function uses a non-reentrant model


 *************** function i2_GetAlarmState *****************
 Defined at:
		line 431 in file "alarm.c"
 Parameters:    Size  Location     Type
		None
 Auto vars:     Size  Location     Type
		None
 Return value:  Size  Location     Type
                  2    4[COMRAM] PTR unsigned char 
 Registers used:
		wreg, fsr2l, fsr2h, status,2, status,0, cstack
 Tracked objects:
		On entry : 
		On exit  : 
		Unchanged: 
 Data sizes:     COMRAM   BANK0   BANK1   BANK2   BANK3   BANK4   BANK5   BANK6   BANK7   BANK8   BANK9  BANK10  BANK11  BANK12  BANK13  BANK14  BANK15
      Params:         2       0       0       0       0       0       0       0       0       0       0       0       0       0       0       0       0
      Locals:         0       0       0       0       0       0       0       0       0       0       0       0       0       0       0       0       0
      Temps:          0       0       0       0       0       0       0       0       0       0       0       0       0       0       0       0       0
      Totals:         2       0       0       0       0       0       0       0       0       0       0       0       0       0       0       0       0
Total ram usage:        2 bytes
 Hardware stack levels used:    1
 Hardware stack levels required when called:    1
 This function calls:
		i2_AnyAlarm
 This function is called by:
		i2_ValueDisplay
 This function uses a non-reentrant model


 *************** function i2_AnyAlarm *****************
 Defined at:
		line 370 in file "alarm.c"
 Parameters:    Size  Location     Type
		None
 Auto vars:     Size  Location     Type
  AnyAlarm        2    2[COMRAM] int 
 Return value:  Size  Location     Type
                  1    wreg      _Bool 
 Registers used:
		wreg, fsr2l, fsr2h, status,2, status,0
 Tracked objects:
		On entry : 
		On exit  : 
		Unchanged: 
 Data sizes:     COMRAM   BANK0   BANK1   BANK2   BANK3   BANK4   BANK5   BANK6   BANK7   BANK8   BANK9  BANK10  BANK11  BANK12  BANK13  BANK14  BANK15
      Params:         0       0       0       0       0       0       0       0       0       0       0       0       0       0       0       0       0
      Locals:         2       0       0       0       0       0       0       0       0       0       0       0       0       0       0       0       0
      Temps:          2       0       0       0       0       0       0       0       0       0       0       0       0       0       0       0       0
      Totals:         4       0       0       0       0       0       0       0       0       0       0       0       0       0       0       0       0
Total ram usage:        4 bytes
 Hardware stack levels used:    1
 This function calls:
		Nothing
 This function is called by:
		_AlarmHandler
		i2_MuteAlarm
		i2_GetAlarmState
		i2_AlarmUpdateLCD
 This function uses a non-reentrant model


 *************** function _ControllerBuzzerCheck *****************
 Defined at:
		line 422 in file "buzzer.c"
 Parameters:    Size  Location     Type
		None
 Auto vars:     Size  Location     Type
		None
 Return value:  Size  Location     Type
                  1    wreg      void 
 Registers used:
		wreg, status,2, cstack
 Tracked objects:
		On entry : 
		On exit  : 
		Unchanged: 
 Data sizes:     COMRAM   BANK0   BANK1   BANK2   BANK3   BANK4   BANK5   BANK6   BANK7   BANK8   BANK9  BANK10  BANK11  BANK12  BANK13  BANK14  BANK15
      Params:         0       0       0       0       0       0       0       0       0       0       0       0       0       0       0       0       0
      Locals:         0       0       0       0       0       0       0       0       0       0       0       0       0       0       0       0       0
      Temps:          0       0       0       0       0       0       0       0       0       0       0       0       0       0       0       0       0
      Totals:         0       0       0       0       0       0       0       0       0       0       0       0       0       0       0       0       0
Total ram usage:        0 bytes
 Hardware stack levels used:    1
 Hardware stack levels required when called:    1
 This function calls:
		i2_CMP1_Enable
 This function is called by:
		_UpdateState
 This function uses a non-reentrant model


 *************** function i2_CMP1_Enable *****************
 Defined at:
		line 104 in file "mcc_generated_files/cmp1.c"
 Parameters:    Size  Location     Type
		None
 Auto vars:     Size  Location     Type
		None
 Return value:  Size  Location     Type
                  1    wreg      void 
 Registers used:
		None
 Tracked objects:
		On entry : 
		On exit  : 
		Unchanged: 
 Data sizes:     COMRAM   BANK0   BANK1   BANK2   BANK3   BANK4   BANK5   BANK6   BANK7   BANK8   BANK9  BANK10  BANK11  BANK12  BANK13  BANK14  BANK15
      Params:         0       0       0       0       0       0       0       0       0       0       0       0       0       0       0       0       0
      Locals:         0       0       0       0       0       0       0       0       0       0       0       0       0       0       0       0       0
      Temps:          0       0       0       0       0       0       0       0       0       0       0       0       0       0       0       0       0
      Totals:         0       0       0       0       0       0       0       0       0       0       0       0       0       0       0       0       0
Total ram usage:        0 bytes
 Hardware stack levels used:    1
 This function calls:
		Nothing
 This function is called by:
		_ControllerBuzzerCheck
		i2_BuzzerOn
 This function uses a non-reentrant model


 *************** function _ClearAllAlarm *****************
 Defined at:
		line 247 in file "alarm.c"
 Parameters:    Size  Location     Type
		None
 Auto vars:     Size  Location     Type
		None
 Return value:  Size  Location     Type
                  1    wreg      void 
 Registers used:
		wreg, status,2, status,0, cstack
 Tracked objects:
		On entry : 
		On exit  : 
		Unchanged: 
 Data sizes:     COMRAM   BANK0   BANK1   BANK2   BANK3   BANK4   BANK5   BANK6   BANK7   BANK8   BANK9  BANK10  BANK11  BANK12  BANK13  BANK14  BANK15
      Params:         0       0       0       0       0       0       0       0       0       0       0       0       0       0       0       0       0
      Locals:         0       0       0       0       0       0       0       0       0       0       0       0       0       0       0       0       0
      Temps:          0       0       0       0       0       0       0       0       0       0       0       0       0       0       0       0       0
      Totals:         0       0       0       0       0       0       0       0       0       0       0       0       0       0       0       0       0
Total ram usage:        0 bytes
 Hardware stack levels used:    1
 Hardware stack levels required when called:    1
 This function calls:
		_ClearHighPressureAlarmLow
		_ClearTdeTooLongAlarm
		_ClearTdiTooLongAlarm
		_ClearVAboveMaxAlarm
		_ClearVBelowMinAlarm
		i2_ClearBaterryLowAlarmHigh
		i2_ClearBaterryLowAlarmMed
		i2_ClearBatteryFailAlarm
		i2_ClearCircuitFailureAlarm
		i2_ClearControlFailAlarm
		i2_ClearEPAboveSetAlarm
		i2_ClearEPBelowSetAlarm
		i2_ClearGasFailureAlarm
		i2_ClearHighPressureAlarmHigh
		i2_ClearIPAboveSetAlarm
		i2_ClearIPBelowSetAlarm
		i2_ClearMonitorFailAlarm
		i2_ClearNoPowerSupplyAlarm
		i2_ClearVeryHighPressureAlarmHigh
 This function is called by:
		_UpdateState
 This function uses a non-reentrant model


 *************** function i2_ClearVeryHighPressureAlarmHigh *****************
 Defined at:
		line 278 in file "alarm.c"
 Parameters:    Size  Location     Type
		None
 Auto vars:     Size  Location     Type
		None
 Return value:  Size  Location     Type
                  1    wreg      void 
 Registers used:
		wreg, status,2
 Tracked objects:
		On entry : 
		On exit  : 
		Unchanged: 
 Data sizes:     COMRAM   BANK0   BANK1   BANK2   BANK3   BANK4   BANK5   BANK6   BANK7   BANK8   BANK9  BANK10  BANK11  BANK12  BANK13  BANK14  BANK15
      Params:         0       0       0       0       0       0       0       0       0       0       0       0       0       0       0       0       0
      Locals:         0       0       0       0       0       0       0       0       0       0       0       0       0       0       0       0       0
      Temps:          0       0       0       0       0       0       0       0       0       0       0       0       0       0       0       0       0
      Totals:         0       0       0       0       0       0       0       0       0       0       0       0       0       0       0       0       0
Total ram usage:        0 bytes
 Hardware stack levels used:    1
 This function calls:
		Nothing
 This function is called by:
		_ClearAllAlarm
		i2_MuteAlarm
 This function uses a non-reentrant model


 *************** function i2_ClearNoPowerSupplyAlarm *****************
 Defined at:
		line 290 in file "alarm.c"
 Parameters:    Size  Location     Type
		None
 Auto vars:     Size  Location     Type
		None
 Return value:  Size  Location     Type
                  1    wreg      void 
 Registers used:
		wreg, status,2
 Tracked objects:
		On entry : 
		On exit  : 
		Unchanged: 
 Data sizes:     COMRAM   BANK0   BANK1   BANK2   BANK3   BANK4   BANK5   BANK6   BANK7   BANK8   BANK9  BANK10  BANK11  BANK12  BANK13  BANK14  BANK15
      Params:         0       0       0       0       0       0       0       0       0       0       0       0       0       0       0       0       0
      Locals:         0       0       0       0       0       0       0       0       0       0       0       0       0       0       0       0       0
      Temps:          0       0       0       0       0       0       0       0       0       0       0       0       0       0       0       0       0
      Totals:         0       0       0       0       0       0       0       0       0       0       0       0       0       0       0       0       0
Total ram usage:        0 bytes
 Hardware stack levels used:    1
 This function calls:
		Nothing
 This function is called by:
		_ClearAllAlarm
 This function uses a non-reentrant model


 *************** function i2_ClearMonitorFailAlarm *****************
 Defined at:
		line 270 in file "alarm.c"
 Parameters:    Size  Location     Type
		None
 Auto vars:     Size  Location     Type
		None
 Return value:  Size  Location     Type
                  1    wreg      void 
 Registers used:
		wreg, status,2
 Tracked objects:
		On entry : 
		On exit  : 
		Unchanged: 
 Data sizes:     COMRAM   BANK0   BANK1   BANK2   BANK3   BANK4   BANK5   BANK6   BANK7   BANK8   BANK9  BANK10  BANK11  BANK12  BANK13  BANK14  BANK15
      Params:         0       0       0       0       0       0       0       0       0       0       0       0       0       0       0       0       0
      Locals:         0       0       0       0       0       0       0       0       0       0       0       0       0       0       0       0       0
      Temps:          0       0       0       0       0       0       0       0       0       0       0       0       0       0       0       0       0
      Totals:         0       0       0       0       0       0       0       0       0       0       0       0       0       0       0       0       0
Total ram usage:        0 bytes
 Hardware stack levels used:    1
 This function calls:
		Nothing
 This function is called by:
		_ClearAllAlarm
		i2_BuzzerTask
		i2_MuteAlarm
 This function uses a non-reentrant model


 *************** function i2_ClearIPBelowSetAlarm *****************
 Defined at:
		line 284 in file "alarm.c"
 Parameters:    Size  Location     Type
		None
 Auto vars:     Size  Location     Type
		None
 Return value:  Size  Location     Type
                  1    wreg      void 
 Registers used:
		wreg, status,2, status,0
 Tracked objects:
		On entry : 
		On exit  : 
		Unchanged: 
 Data sizes:     COMRAM   BANK0   BANK1   BANK2   BANK3   BANK4   BANK5   BANK6   BANK7   BANK8   BANK9  BANK10  BANK11  BANK12  BANK13  BANK14  BANK15
      Params:         0       0       0       0       0       0       0       0       0       0       0       0       0       0       0       0       0
      Locals:         0       0       0       0       0       0       0       0       0       0       0       0       0       0       0       0       0
      Temps:          0       0       0       0       0       0       0       0       0       0       0       0       0       0       0       0       0
      Totals:         0       0       0       0       0       0       0       0       0       0       0       0       0       0       0       0       0
Total ram usage:        0 bytes
 Hardware stack levels used:    1
 This function calls:
		Nothing
 This function is called by:
		_ClearAllAlarm
		_MonitorPressureTask
		i2_ClearVars
 This function uses a non-reentrant model


 *************** function i2_ClearIPAboveSetAlarm *****************
 Defined at:
		line 285 in file "alarm.c"
 Parameters:    Size  Location     Type
		None
 Auto vars:     Size  Location     Type
		None
 Return value:  Size  Location     Type
                  1    wreg      void 
 Registers used:
		wreg, status,2, status,0
 Tracked objects:
		On entry : 
		On exit  : 
		Unchanged: 
 Data sizes:     COMRAM   BANK0   BANK1   BANK2   BANK3   BANK4   BANK5   BANK6   BANK7   BANK8   BANK9  BANK10  BANK11  BANK12  BANK13  BANK14  BANK15
      Params:         0       0       0       0       0       0       0       0       0       0       0       0       0       0       0       0       0
      Locals:         0       0       0       0       0       0       0       0       0       0       0       0       0       0       0       0       0
      Temps:          0       0       0       0       0       0       0       0       0       0       0       0       0       0       0       0       0
      Totals:         0       0       0       0       0       0       0       0       0       0       0       0       0       0       0       0       0
Total ram usage:        0 bytes
 Hardware stack levels used:    1
 This function calls:
		Nothing
 This function is called by:
		_ClearAllAlarm
		_MonitorPressureTask
		i2_ClearVars
 This function uses a non-reentrant model


 *************** function i2_ClearHighPressureAlarmHigh *****************
 Defined at:
		line 277 in file "alarm.c"
 Parameters:    Size  Location     Type
		None
 Auto vars:     Size  Location     Type
		None
 Return value:  Size  Location     Type
                  1    wreg      void 
 Registers used:
		wreg, status,2
 Tracked objects:
		On entry : 
		On exit  : 
		Unchanged: 
 Data sizes:     COMRAM   BANK0   BANK1   BANK2   BANK3   BANK4   BANK5   BANK6   BANK7   BANK8   BANK9  BANK10  BANK11  BANK12  BANK13  BANK14  BANK15
      Params:         0       0       0       0       0       0       0       0       0       0       0       0       0       0       0       0       0
      Locals:         0       0       0       0       0       0       0       0       0       0       0       0       0       0       0       0       0
      Temps:          0       0       0       0       0       0       0       0       0       0       0       0       0       0       0       0       0
      Totals:         0       0       0       0       0       0       0       0       0       0       0       0       0       0       0       0       0
Total ram usage:        0 bytes
 Hardware stack levels used:    1
 This function calls:
		Nothing
 This function is called by:
		_ClearAllAlarm
		i2_MuteAlarm
 This function uses a non-reentrant model


 *************** function i2_ClearGasFailureAlarm *****************
 Defined at:
		line 275 in file "alarm.c"
 Parameters:    Size  Location     Type
		None
 Auto vars:     Size  Location     Type
		None
 Return value:  Size  Location     Type
                  1    wreg      void 
 Registers used:
		wreg, status,2
 Tracked objects:
		On entry : 
		On exit  : 
		Unchanged: 
 Data sizes:     COMRAM   BANK0   BANK1   BANK2   BANK3   BANK4   BANK5   BANK6   BANK7   BANK8   BANK9  BANK10  BANK11  BANK12  BANK13  BANK14  BANK15
      Params:         0       0       0       0       0       0       0       0       0       0       0       0       0       0       0       0       0
      Locals:         0       0       0       0       0       0       0       0       0       0       0       0       0       0       0       0       0
      Temps:          0       0       0       0       0       0       0       0       0       0       0       0       0       0       0       0       0
      Totals:         0       0       0       0       0       0       0       0       0       0       0       0       0       0       0       0       0
Total ram usage:        0 bytes
 Hardware stack levels used:    1
 This function calls:
		Nothing
 This function is called by:
		_ClearAllAlarm
		_MonitorPressureTask
		i2_MuteAlarm
 This function uses a non-reentrant model


 *************** function i2_ClearEPBelowSetAlarm *****************
 Defined at:
		line 282 in file "alarm.c"
 Parameters:    Size  Location     Type
		None
 Auto vars:     Size  Location     Type
		None
 Return value:  Size  Location     Type
                  1    wreg      void 
 Registers used:
		wreg, status,2, status,0
 Tracked objects:
		On entry : 
		On exit  : 
		Unchanged: 
 Data sizes:     COMRAM   BANK0   BANK1   BANK2   BANK3   BANK4   BANK5   BANK6   BANK7   BANK8   BANK9  BANK10  BANK11  BANK12  BANK13  BANK14  BANK15
      Params:         0       0       0       0       0       0       0       0       0       0       0       0       0       0       0       0       0
      Locals:         0       0       0       0       0       0       0       0       0       0       0       0       0       0       0       0       0
      Temps:          0       0       0       0       0       0       0       0       0       0       0       0       0       0       0       0       0
      Totals:         0       0       0       0       0       0       0       0       0       0       0       0       0       0       0       0       0
Total ram usage:        0 bytes
 Hardware stack levels used:    1
 This function calls:
		Nothing
 This function is called by:
		_ClearAllAlarm
		_MonitorPressureTask
		i2_ClearVars
 This function uses a non-reentrant model


 *************** function i2_ClearEPAboveSetAlarm *****************
 Defined at:
		line 283 in file "alarm.c"
 Parameters:    Size  Location     Type
		None
 Auto vars:     Size  Location     Type
		None
 Return value:  Size  Location     Type
                  1    wreg      void 
 Registers used:
		wreg, status,2, status,0
 Tracked objects:
		On entry : 
		On exit  : 
		Unchanged: 
 Data sizes:     COMRAM   BANK0   BANK1   BANK2   BANK3   BANK4   BANK5   BANK6   BANK7   BANK8   BANK9  BANK10  BANK11  BANK12  BANK13  BANK14  BANK15
      Params:         0       0       0       0       0       0       0       0       0       0       0       0       0       0       0       0       0
      Locals:         0       0       0       0       0       0       0       0       0       0       0       0       0       0       0       0       0
      Temps:          0       0       0       0       0       0       0       0       0       0       0       0       0       0       0       0       0
      Totals:         0       0       0       0       0       0       0       0       0       0       0       0       0       0       0       0       0
Total ram usage:        0 bytes
 Hardware stack levels used:    1
 This function calls:
		Nothing
 This function is called by:
		_ClearAllAlarm
		_MonitorPressureTask
		i2_ClearVars
 This function uses a non-reentrant model


 *************** function i2_ClearControlFailAlarm *****************
 Defined at:
		line 274 in file "alarm.c"
 Parameters:    Size  Location     Type
		None
 Auto vars:     Size  Location     Type
		None
 Return value:  Size  Location     Type
                  1    wreg      void 
 Registers used:
		wreg, status,2
 Tracked objects:
		On entry : 
		On exit  : 
		Unchanged: 
 Data sizes:     COMRAM   BANK0   BANK1   BANK2   BANK3   BANK4   BANK5   BANK6   BANK7   BANK8   BANK9  BANK10  BANK11  BANK12  BANK13  BANK14  BANK15
      Params:         0       0       0       0       0       0       0       0       0       0       0       0       0       0       0       0       0
      Locals:         0       0       0       0       0       0       0       0       0       0       0       0       0       0       0       0       0
      Temps:          0       0       0       0       0       0       0       0       0       0       0       0       0       0       0       0       0
      Totals:         0       0       0       0       0       0       0       0       0       0       0       0       0       0       0       0       0
Total ram usage:        0 bytes
 Hardware stack levels used:    1
 This function calls:
		Nothing
 This function is called by:
		_ClearAllAlarm
		_UpdateState
		_ControllerTimerHandler
		i2_MuteAlarm
 This function uses a non-reentrant model


 *************** function i2_ClearCircuitFailureAlarm *****************
 Defined at:
		line 279 in file "alarm.c"
 Parameters:    Size  Location     Type
		None
 Auto vars:     Size  Location     Type
		None
 Return value:  Size  Location     Type
                  1    wreg      void 
 Registers used:
		wreg, status,2
 Tracked objects:
		On entry : 
		On exit  : 
		Unchanged: 
 Data sizes:     COMRAM   BANK0   BANK1   BANK2   BANK3   BANK4   BANK5   BANK6   BANK7   BANK8   BANK9  BANK10  BANK11  BANK12  BANK13  BANK14  BANK15
      Params:         0       0       0       0       0       0       0       0       0       0       0       0       0       0       0       0       0
      Locals:         0       0       0       0       0       0       0       0       0       0       0       0       0       0       0       0       0
      Temps:          0       0       0       0       0       0       0       0       0       0       0       0       0       0       0       0       0
      Totals:         0       0       0       0       0       0       0       0       0       0       0       0       0       0       0       0       0
Total ram usage:        0 bytes
 Hardware stack levels used:    1
 This function calls:
		Nothing
 This function is called by:
		_ClearAllAlarm
		_MonitorPressureTask
		i2_MuteAlarm
		i2_ClearVars
 This function uses a non-reentrant model


 *************** function i2_ClearBatteryFailAlarm *****************
 Defined at:
		line 269 in file "alarm.c"
 Parameters:    Size  Location     Type
		None
 Auto vars:     Size  Location     Type
		None
 Return value:  Size  Location     Type
                  1    wreg      void 
 Registers used:
		wreg, status,2
 Tracked objects:
		On entry : 
		On exit  : 
		Unchanged: 
 Data sizes:     COMRAM   BANK0   BANK1   BANK2   BANK3   BANK4   BANK5   BANK6   BANK7   BANK8   BANK9  BANK10  BANK11  BANK12  BANK13  BANK14  BANK15
      Params:         0       0       0       0       0       0       0       0       0       0       0       0       0       0       0       0       0
      Locals:         0       0       0       0       0       0       0       0       0       0       0       0       0       0       0       0       0
      Temps:          0       0       0       0       0       0       0       0       0       0       0       0       0       0       0       0       0
      Totals:         0       0       0       0       0       0       0       0       0       0       0       0       0       0       0       0       0
Total ram usage:        0 bytes
 Hardware stack levels used:    1
 This function calls:
		Nothing
 This function is called by:
		_ClearAllAlarm
 This function uses a non-reentrant model


 *************** function i2_ClearBaterryLowAlarmMed *****************
 Defined at:
		line 280 in file "alarm.c"
 Parameters:    Size  Location     Type
		None
 Auto vars:     Size  Location     Type
		None
 Return value:  Size  Location     Type
                  1    wreg      void 
 Registers used:
		wreg, status,2
 Tracked objects:
		On entry : 
		On exit  : 
		Unchanged: 
 Data sizes:     COMRAM   BANK0   BANK1   BANK2   BANK3   BANK4   BANK5   BANK6   BANK7   BANK8   BANK9  BANK10  BANK11  BANK12  BANK13  BANK14  BANK15
      Params:         0       0       0       0       0       0       0       0       0       0       0       0       0       0       0       0       0
      Locals:         0       0       0       0       0       0       0       0       0       0       0       0       0       0       0       0       0
      Temps:          0       0       0       0       0       0       0       0       0       0       0       0       0       0       0       0       0
      Totals:         0       0       0       0       0       0       0       0       0       0       0       0       0       0       0       0       0
Total ram usage:        0 bytes
 Hardware stack levels used:    1
 This function calls:
		Nothing
 This function is called by:
		_ClearAllAlarm
 This function uses a non-reentrant model


 *************** function i2_ClearBaterryLowAlarmHigh *****************
 Defined at:
		line 281 in file "alarm.c"
 Parameters:    Size  Location     Type
		None
 Auto vars:     Size  Location     Type
		None
 Return value:  Size  Location     Type
                  1    wreg      void 
 Registers used:
		wreg, status,2
 Tracked objects:
		On entry : 
		On exit  : 
		Unchanged: 
 Data sizes:     COMRAM   BANK0   BANK1   BANK2   BANK3   BANK4   BANK5   BANK6   BANK7   BANK8   BANK9  BANK10  BANK11  BANK12  BANK13  BANK14  BANK15
      Params:         0       0       0       0       0       0       0       0       0       0       0       0       0       0       0       0       0
      Locals:         0       0       0       0       0       0       0       0       0       0       0       0       0       0       0       0       0
      Temps:          0       0       0       0       0       0       0       0       0       0       0       0       0       0       0       0       0
      Totals:         0       0       0       0       0       0       0       0       0       0       0       0       0       0       0       0       0
Total ram usage:        0 bytes
 Hardware stack levels used:    1
 This function calls:
		Nothing
 This function is called by:
		_ClearAllAlarm
 This function uses a non-reentrant model


 *************** function _ClearVBelowMinAlarm *****************
 Defined at:
		line 289 in file "alarm.c"
 Parameters:    Size  Location     Type
		None
 Auto vars:     Size  Location     Type
		None
 Return value:  Size  Location     Type
                  1    wreg      void 
 Registers used:
		wreg, status,2
 Tracked objects:
		On entry : 
		On exit  : 
		Unchanged: 
 Data sizes:     COMRAM   BANK0   BANK1   BANK2   BANK3   BANK4   BANK5   BANK6   BANK7   BANK8   BANK9  BANK10  BANK11  BANK12  BANK13  BANK14  BANK15
      Params:         0       0       0       0       0       0       0       0       0       0       0       0       0       0       0       0       0
      Locals:         0       0       0       0       0       0       0       0       0       0       0       0       0       0       0       0       0
      Temps:          0       0       0       0       0       0       0       0       0       0       0       0       0       0       0       0       0
      Totals:         0       0       0       0       0       0       0       0       0       0       0       0       0       0       0       0       0
Total ram usage:        0 bytes
 Hardware stack levels used:    1
 This function calls:
		Nothing
 This function is called by:
		_ClearAllAlarm
		_MonitorPressureTask
 This function uses a non-reentrant model


 *************** function _ClearVAboveMaxAlarm *****************
 Defined at:
		line 288 in file "alarm.c"
 Parameters:    Size  Location     Type
		None
 Auto vars:     Size  Location     Type
		None
 Return value:  Size  Location     Type
                  1    wreg      void 
 Registers used:
		wreg, status,2
 Tracked objects:
		On entry : 
		On exit  : 
		Unchanged: 
 Data sizes:     COMRAM   BANK0   BANK1   BANK2   BANK3   BANK4   BANK5   BANK6   BANK7   BANK8   BANK9  BANK10  BANK11  BANK12  BANK13  BANK14  BANK15
      Params:         0       0       0       0       0       0       0       0       0       0       0       0       0       0       0       0       0
      Locals:         0       0       0       0       0       0       0       0       0       0       0       0       0       0       0       0       0
      Temps:          0       0       0       0       0       0       0       0       0       0       0       0       0       0       0       0       0
      Totals:         0       0       0       0       0       0       0       0       0       0       0       0       0       0       0       0       0
Total ram usage:        0 bytes
 Hardware stack levels used:    1
 This function calls:
		Nothing
 This function is called by:
		_ClearAllAlarm
		_MonitorPressureTask
 This function uses a non-reentrant model


 *************** function _ClearTdiTooLongAlarm *****************
 Defined at:
		line 286 in file "alarm.c"
 Parameters:    Size  Location     Type
		None
 Auto vars:     Size  Location     Type
		None
 Return value:  Size  Location     Type
                  1    wreg      void 
 Registers used:
		wreg, status,2
 Tracked objects:
		On entry : 
		On exit  : 
		Unchanged: 
 Data sizes:     COMRAM   BANK0   BANK1   BANK2   BANK3   BANK4   BANK5   BANK6   BANK7   BANK8   BANK9  BANK10  BANK11  BANK12  BANK13  BANK14  BANK15
      Params:         0       0       0       0       0       0       0       0       0       0       0       0       0       0       0       0       0
      Locals:         0       0       0       0       0       0       0       0       0       0       0       0       0       0       0       0       0
      Temps:          0       0       0       0       0       0       0       0       0       0       0       0       0       0       0       0       0
      Totals:         0       0       0       0       0       0       0       0       0       0       0       0       0       0       0       0       0
Total ram usage:        0 bytes
 Hardware stack levels used:    1
 This function calls:
		Nothing
 This function is called by:
		_ClearAllAlarm
		_MonitorPressureTask
 This function uses a non-reentrant model


 *************** function _ClearTdeTooLongAlarm *****************
 Defined at:
		line 287 in file "alarm.c"
 Parameters:    Size  Location     Type
		None
 Auto vars:     Size  Location     Type
		None
 Return value:  Size  Location     Type
                  1    wreg      void 
 Registers used:
		wreg, status,2
 Tracked objects:
		On entry : 
		On exit  : 
		Unchanged: 
 Data sizes:     COMRAM   BANK0   BANK1   BANK2   BANK3   BANK4   BANK5   BANK6   BANK7   BANK8   BANK9  BANK10  BANK11  BANK12  BANK13  BANK14  BANK15
      Params:         0       0       0       0       0       0       0       0       0       0       0       0       0       0       0       0       0
      Locals:         0       0       0       0       0       0       0       0       0       0       0       0       0       0       0       0       0
      Temps:          0       0       0       0       0       0       0       0       0       0       0       0       0       0       0       0       0
      Totals:         0       0       0       0       0       0       0       0       0       0       0       0       0       0       0       0       0
Total ram usage:        0 bytes
 Hardware stack levels used:    1
 This function calls:
		Nothing
 This function is called by:
		_ClearAllAlarm
		_MonitorPressureTask
 This function uses a non-reentrant model


 *************** function _ClearHighPressureAlarmLow *****************
 Defined at:
		line 276 in file "alarm.c"
 Parameters:    Size  Location     Type
		None
 Auto vars:     Size  Location     Type
		None
 Return value:  Size  Location     Type
                  1    wreg      void 
 Registers used:
		wreg, status,2
 Tracked objects:
		On entry : 
		On exit  : 
		Unchanged: 
 Data sizes:     COMRAM   BANK0   BANK1   BANK2   BANK3   BANK4   BANK5   BANK6   BANK7   BANK8   BANK9  BANK10  BANK11  BANK12  BANK13  BANK14  BANK15
      Params:         0       0       0       0       0       0       0       0       0       0       0       0       0       0       0       0       0
      Locals:         0       0       0       0       0       0       0       0       0       0       0       0       0       0       0       0       0
      Temps:          0       0       0       0       0       0       0       0       0       0       0       0       0       0       0       0       0
      Totals:         0       0       0       0       0       0       0       0       0       0       0       0       0       0       0       0       0
Total ram usage:        0 bytes
 Hardware stack levels used:    1
 This function calls:
		Nothing
 This function is called by:
		_ClearAllAlarm
 This function uses a non-reentrant model


 *************** function _I2C2_SlaveSetCounter *****************
 Defined at:
		line 418 in file "mcc_generated_files/i2c2_slave.c"
 Parameters:    Size  Location     Type
  counter         1    wreg     unsigned char 
 Auto vars:     Size  Location     Type
  counter         1    0[COMRAM] unsigned char 
 Return value:  Size  Location     Type
                  1    wreg      void 
 Registers used:
		wreg
 Tracked objects:
		On entry : 
		On exit  : 
		Unchanged: 
 Data sizes:     COMRAM   BANK0   BANK1   BANK2   BANK3   BANK4   BANK5   BANK6   BANK7   BANK8   BANK9  BANK10  BANK11  BANK12  BANK13  BANK14  BANK15
      Params:         0       0       0       0       0       0       0       0       0       0       0       0       0       0       0       0       0
      Locals:         1       0       0       0       0       0       0       0       0       0       0       0       0       0       0       0       0
      Temps:          0       0       0       0       0       0       0       0       0       0       0       0       0       0       0       0       0
      Totals:         1       0       0       0       0       0       0       0       0       0       0       0       0       0       0       0       0
Total ram usage:        1 bytes
 Hardware stack levels used:    1
 This function calls:
		Nothing
 This function is called by:
		_I2C2_Isr
 This function uses a non-reentrant model


 *************** function _I2C2_SlaveReleaseClock *****************
 Defined at:
		line 423 in file "mcc_generated_files/i2c2_slave.c"
 Parameters:    Size  Location     Type
		None
 Auto vars:     Size  Location     Type
		None
 Return value:  Size  Location     Type
                  1    wreg      void 
 Registers used:
		None
 Tracked objects:
		On entry : 
		On exit  : 
		Unchanged: 
 Data sizes:     COMRAM   BANK0   BANK1   BANK2   BANK3   BANK4   BANK5   BANK6   BANK7   BANK8   BANK9  BANK10  BANK11  BANK12  BANK13  BANK14  BANK15
      Params:         0       0       0       0       0       0       0       0       0       0       0       0       0       0       0       0       0
      Locals:         0       0       0       0       0       0       0       0       0       0       0       0       0       0       0       0       0
      Temps:          0       0       0       0       0       0       0       0       0       0       0       0       0       0       0       0       0
      Totals:         0       0       0       0       0       0       0       0       0       0       0       0       0       0       0       0       0
Total ram usage:        0 bytes
 Hardware stack levels used:    1
 This function calls:
		Nothing
 This function is called by:
		_I2C2_Isr
 This function uses a non-reentrant model


 *************** function _I2C2_SlaveRdCallBack *****************
 Defined at:
		line 239 in file "mcc_generated_files/i2c2_slave.c"
 Parameters:    Size  Location     Type
		None
 Auto vars:     Size  Location     Type
		None
 Return value:  Size  Location     Type
                  1    wreg      void 
 Registers used:
		wreg, fsr2l, fsr2h, status,2, status,0, pclath, tosl, cstack
 Tracked objects:
		On entry : 
		On exit  : 
		Unchanged: 
 Data sizes:     COMRAM   BANK0   BANK1   BANK2   BANK3   BANK4   BANK5   BANK6   BANK7   BANK8   BANK9  BANK10  BANK11  BANK12  BANK13  BANK14  BANK15
      Params:         0       0       0       0       0       0       0       0       0       0       0       0       0       0       0       0       0
      Locals:         0       0       0       0       0       0       0       0       0       0       0       0       0       0       0       0       0
      Temps:          0       0       0       0       0       0       0       0       0       0       0       0       0       0       0       0       0
      Totals:         0       0       0       0       0       0       0       0       0       0       0       0       0       0       0       0       0
Total ram usage:        0 bytes
 Hardware stack levels used:    1
 Hardware stack levels required when called:    3
 This function calls:
		Absolute function
		_I2C2_SlaveDefRdInterruptHandler
		_ReceiveHandler
 This function is called by:
		_I2C2_Isr
 This function uses a non-reentrant model


 *************** function _I2C2_SlaveDefRdInterruptHandler *****************
 Defined at:
		line 247 in file "mcc_generated_files/i2c2_slave.c"
 Parameters:    Size  Location     Type
		None
 Auto vars:     Size  Location     Type
		None
 Return value:  Size  Location     Type
                  1    wreg      void 
 Registers used:
		wreg, status,2, cstack
 Tracked objects:
		On entry : 
		On exit  : 
		Unchanged: 
 Data sizes:     COMRAM   BANK0   BANK1   BANK2   BANK3   BANK4   BANK5   BANK6   BANK7   BANK8   BANK9  BANK10  BANK11  BANK12  BANK13  BANK14  BANK15
      Params:         0       0       0       0       0       0       0       0       0       0       0       0       0       0       0       0       0
      Locals:         0       0       0       0       0       0       0       0       0       0       0       0       0       0       0       0       0
      Temps:          0       0       0       0       0       0       0       0       0       0       0       0       0       0       0       0       0
      Totals:         0       0       0       0       0       0       0       0       0       0       0       0       0       0       0       0       0
Total ram usage:        0 bytes
 Hardware stack levels used:    1
 Hardware stack levels required when called:    1
 This function calls:
		_I2C2_SlaveGetRxData
 This function is called by:
		_I2C2_Open
		_I2C2_SlaveRdCallBack
 This function uses a non-reentrant model


 *************** function _ReceiveHandler *****************
 Defined at:
		line 136 in file "controller.c"
 Parameters:    Size  Location     Type
		None
 Auto vars:     Size  Location     Type
  data            1    3[COMRAM] unsigned char 
  stat1           1    0        unsigned char 
  stat0           1    0        unsigned char 
  addr            1    0        unsigned char 
 Return value:  Size  Location     Type
                  1    wreg      void 
 Registers used:
		wreg, fsr2l, fsr2h, status,2, status,0, cstack
 Tracked objects:
		On entry : 
		On exit  : 
		Unchanged: 
 Data sizes:     COMRAM   BANK0   BANK1   BANK2   BANK3   BANK4   BANK5   BANK6   BANK7   BANK8   BANK9  BANK10  BANK11  BANK12  BANK13  BANK14  BANK15
      Params:         0       0       0       0       0       0       0       0       0       0       0       0       0       0       0       0       0
      Locals:         4       0       0       0       0       0       0       0       0       0       0       0       0       0       0       0       0
      Temps:          0       0       0       0       0       0       0       0       0       0       0       0       0       0       0       0       0
      Totals:         4       0       0       0       0       0       0       0       0       0       0       0       0       0       0       0       0
Total ram usage:        4 bytes
 Hardware stack levels used:    1
 Hardware stack levels required when called:    2
 This function calls:
		_I2C2_Read
 This function is called by:
		_StopHandler
		_ControllerInit
		_I2C2_SlaveRdCallBack
 This function uses a non-reentrant model


 *************** function _I2C2_Read *****************
 Defined at:
		line 149 in file "mcc_generated_files/i2c2_slave.c"
 Parameters:    Size  Location     Type
		None
 Auto vars:     Size  Location     Type
		None
 Return value:  Size  Location     Type
                  1    wreg      unsigned char 
 Registers used:
		wreg, status,2, cstack
 Tracked objects:
		On entry : 
		On exit  : 
		Unchanged: 
 Data sizes:     COMRAM   BANK0   BANK1   BANK2   BANK3   BANK4   BANK5   BANK6   BANK7   BANK8   BANK9  BANK10  BANK11  BANK12  BANK13  BANK14  BANK15
      Params:         0       0       0       0       0       0       0       0       0       0       0       0       0       0       0       0       0
      Locals:         0       0       0       0       0       0       0       0       0       0       0       0       0       0       0       0       0
      Temps:          0       0       0       0       0       0       0       0       0       0       0       0       0       0       0       0       0
      Totals:         0       0       0       0       0       0       0       0       0       0       0       0       0       0       0       0       0
Total ram usage:        0 bytes
 Hardware stack levels used:    1
 Hardware stack levels required when called:    1
 This function calls:
		_I2C2_SlaveGetRxData
 This function is called by:
		_ReceiveHandler
 This function uses a non-reentrant model


 *************** function _I2C2_SlaveGetRxData *****************
 Defined at:
		line 453 in file "mcc_generated_files/i2c2_slave.c"
 Parameters:    Size  Location     Type
		None
 Auto vars:     Size  Location     Type
		None
 Return value:  Size  Location     Type
                  1    wreg      unsigned char 
 Registers used:
		wreg, status,2
 Tracked objects:
		On entry : 
		On exit  : 
		Unchanged: 
 Data sizes:     COMRAM   BANK0   BANK1   BANK2   BANK3   BANK4   BANK5   BANK6   BANK7   BANK8   BANK9  BANK10  BANK11  BANK12  BANK13  BANK14  BANK15
      Params:         0       0       0       0       0       0       0       0       0       0       0       0       0       0       0       0       0
      Locals:         0       0       0       0       0       0       0       0       0       0       0       0       0       0       0       0       0
      Temps:          0       0       0       0       0       0       0       0       0       0       0       0       0       0       0       0       0
      Totals:         0       0       0       0       0       0       0       0       0       0       0       0       0       0       0       0       0
Total ram usage:        0 bytes
 Hardware stack levels used:    1
 This function calls:
		Nothing
 This function is called by:
		_I2C2_Read
		_I2C2_SlaveDefRdInterruptHandler
 This function uses a non-reentrant model


 *************** function _I2C2_SlaveIsRxBufFull *****************
 Defined at:
		line 443 in file "mcc_generated_files/i2c2_slave.c"
 Parameters:    Size  Location     Type
		None
 Auto vars:     Size  Location     Type
		None
 Return value:  Size  Location     Type
                  1    wreg      _Bool 
 Registers used:
		wreg
 Tracked objects:
		On entry : 
		On exit  : 
		Unchanged: 
 Data sizes:     COMRAM   BANK0   BANK1   BANK2   BANK3   BANK4   BANK5   BANK6   BANK7   BANK8   BANK9  BANK10  BANK11  BANK12  BANK13  BANK14  BANK15
      Params:         0       0       0       0       0       0       0       0       0       0       0       0       0       0       0       0       0
      Locals:         0       0       0       0       0       0       0       0       0       0       0       0       0       0       0       0       0
      Temps:          0       0       0       0       0       0       0       0       0       0       0       0       0       0       0       0       0
      Totals:         0       0       0       0       0       0       0       0       0       0       0       0       0       0       0       0       0
Total ram usage:        0 bytes
 Hardware stack levels used:    1
 This function calls:
		Nothing
 This function is called by:
		_I2C2_Isr
 This function uses a non-reentrant model


 *************** function _I2C2_SlaveClearStopFlag *****************
 Defined at:
		line 398 in file "mcc_generated_files/i2c2_slave.c"
 Parameters:    Size  Location     Type
		None
 Auto vars:     Size  Location     Type
		None
 Return value:  Size  Location     Type
                  1    wreg      void 
 Registers used:
		None
 Tracked objects:
		On entry : 
		On exit  : 
		Unchanged: 
 Data sizes:     COMRAM   BANK0   BANK1   BANK2   BANK3   BANK4   BANK5   BANK6   BANK7   BANK8   BANK9  BANK10  BANK11  BANK12  BANK13  BANK14  BANK15
      Params:         0       0       0       0       0       0       0       0       0       0       0       0       0       0       0       0       0
      Locals:         0       0       0       0       0       0       0       0       0       0       0       0       0       0       0       0       0
      Temps:          0       0       0       0       0       0       0       0       0       0       0       0       0       0       0       0       0
      Totals:         0       0       0       0       0       0       0       0       0       0       0       0       0       0       0       0       0
Total ram usage:        0 bytes
 Hardware stack levels used:    1
 This function calls:
		Nothing
 This function is called by:
		_I2C2_Isr
 This function uses a non-reentrant model


 *************** function _I2C2_SlaveClearBuff *****************
 Defined at:
		line 408 in file "mcc_generated_files/i2c2_slave.c"
 Parameters:    Size  Location     Type
		None
 Auto vars:     Size  Location     Type
		None
 Return value:  Size  Location     Type
                  1    wreg      void 
 Registers used:
		None
 Tracked objects:
		On entry : 
		On exit  : 
		Unchanged: 
 Data sizes:     COMRAM   BANK0   BANK1   BANK2   BANK3   BANK4   BANK5   BANK6   BANK7   BANK8   BANK9  BANK10  BANK11  BANK12  BANK13  BANK14  BANK15
      Params:         0       0       0       0       0       0       0       0       0       0       0       0       0       0       0       0       0
      Locals:         0       0       0       0       0       0       0       0       0       0       0       0       0       0       0       0       0
      Temps:          0       0       0       0       0       0       0       0       0       0       0       0       0       0       0       0       0
      Totals:         0       0       0       0       0       0       0       0       0       0       0       0       0       0       0       0       0
Total ram usage:        0 bytes
 Hardware stack levels used:    1
 This function calls:
		Nothing
 This function is called by:
		_I2C2_Isr
 This function uses a non-reentrant model


 *************** function _CMP1_ISR *****************
 Defined at:
		line 110 in file "mcc_generated_files/cmp1.c"
 Parameters:    Size  Location     Type
		None
 Auto vars:     Size  Location     Type
		None
 Return value:  Size  Location     Type
                  1    wreg      void 
 Registers used:
		wreg, fsr1l, fsr1h, fsr2l, fsr2h, status,2, status,0, pclath, tosl, tblptrl, tblptrh, tblptru, prodl, prodh, cstack
 Tracked objects:
		On entry : 
		On exit  : 
		Unchanged: 
 Data sizes:     COMRAM   BANK0   BANK1   BANK2   BANK3   BANK4   BANK5   BANK6   BANK7   BANK8   BANK9  BANK10  BANK11  BANK12  BANK13  BANK14  BANK15
      Params:         0       0       0       0       0       0       0       0       0       0       0       0       0       0       0       0       0
      Locals:         0       0       0       0       0       0       0       0       0       0       0       0       0       0       0       0       0
      Temps:          0       0       0       0       0       0       0       0       0       0       0       0       0       0       0       0       0
      Totals:         0       0       0       0       0       0       0       0       0       0       0       0       0       0       0       0       0
Total ram usage:        0 bytes
 Hardware stack levels used:    1
 Hardware stack levels required when called:   10
 This function calls:
		Absolute function
		_BuzzerCMPHandler
 This function is called by:
		_INTERRUPT_InterruptManager
 This function uses a non-reentrant model


 *************** function _BuzzerCMPHandler *****************
 Defined at:
		line 393 in file "buzzer.c"
 Parameters:    Size  Location     Type
		None
 Auto vars:     Size  Location     Type
		None
 Return value:  Size  Location     Type
                  1    wreg      void 
 Registers used:
		wreg, fsr1l, fsr1h, fsr2l, fsr2h, status,2, status,0, tblptrl, tblptrh, tblptru, prodl, prodh, cstack
 Tracked objects:
		On entry : 
		On exit  : 
		Unchanged: 
 Data sizes:     COMRAM   BANK0   BANK1   BANK2   BANK3   BANK4   BANK5   BANK6   BANK7   BANK8   BANK9  BANK10  BANK11  BANK12  BANK13  BANK14  BANK15
      Params:         0       0       0       0       0       0       0       0       0       0       0       0       0       0       0       0       0
      Locals:         0       0       0       0       0       0       0       0       0       0       0       0       0       0       0       0       0
      Temps:          0       0       0       0       0       0       0       0       0       0       0       0       0       0       0       0       0
      Totals:         0       0       0       0       0       0       0       0       0       0       0       0       0       0       0       0       0
Total ram usage:        0 bytes
 Hardware stack levels used:    1
 Hardware stack levels required when called:    9
 This function calls:
		i2_CMP1_Disable
		i2_printf
 This function is called by:
		_BuzzerInit
		_CMP1_ISR
 This function uses a non-reentrant model


 *************** function i2_CMP1_Disable *****************
 Defined at:
		line 98 in file "mcc_generated_files/cmp1.c"
 Parameters:    Size  Location     Type
		None
 Auto vars:     Size  Location     Type
		None
 Return value:  Size  Location     Type
                  1    wreg      void 
 Registers used:
		None
 Tracked objects:
		On entry : 
		On exit  : 
		Unchanged: 
 Data sizes:     COMRAM   BANK0   BANK1   BANK2   BANK3   BANK4   BANK5   BANK6   BANK7   BANK8   BANK9  BANK10  BANK11  BANK12  BANK13  BANK14  BANK15
      Params:         0       0       0       0       0       0       0       0       0       0       0       0       0       0       0       0       0
      Locals:         0       0       0       0       0       0       0       0       0       0       0       0       0       0       0       0       0
      Temps:          0       0       0       0       0       0       0       0       0       0       0       0       0       0       0       0       0
      Totals:         0       0       0       0       0       0       0       0       0       0       0       0       0       0       0       0       0
Total ram usage:        0 bytes
 Hardware stack levels used:    1
 This function calls:
		Nothing
 This function is called by:
		_BuzzerCMPHandler
		i2_BuzzerOff
 This function uses a non-reentrant model


 *************** function _ADCC_ThresholdISR *****************
 Defined at:
		line 307 in file "mcc_generated_files/adcc.c"
 Parameters:    Size  Location     Type
		None
 Auto vars:     Size  Location     Type
		None
 Return value:  Size  Location     Type
                  1    wreg      void 
 Registers used:
		wreg, fsr1l, fsr1h, fsr2l, fsr2h, status,2, status,0, pclath, tosl, tblptrl, tblptrh, tblptru, prodl, prodh, cstack
 Tracked objects:
		On entry : 
		On exit  : 
		Unchanged: 
 Data sizes:     COMRAM   BANK0   BANK1   BANK2   BANK3   BANK4   BANK5   BANK6   BANK7   BANK8   BANK9  BANK10  BANK11  BANK12  BANK13  BANK14  BANK15
      Params:         0       0       0       0       0       0       0       0       0       0       0       0       0       0       0       0       0
      Locals:         0       0       0       0       0       0       0       0       0       0       0       0       0       0       0       0       0
      Temps:          0       0       0       0       0       0       0       0       0       0       0       0       0       0       0       0       0
      Totals:         0       0       0       0       0       0       0       0       0       0       0       0       0       0       0       0       0
Total ram usage:        0 bytes
 Hardware stack levels used:    1
 Hardware stack levels required when called:   10
 This function calls:
		Absolute function
		_ADCC_DefaultInterruptHandler
		_AdcHandler
 This function is called by:
		_INTERRUPT_InterruptManager
 This function uses a non-reentrant model


 *************** function _ADCC_DefaultInterruptHandler *****************
 Defined at:
		line 319 in file "mcc_generated_files/adcc.c"
 Parameters:    Size  Location     Type
		None
 Auto vars:     Size  Location     Type
		None
 Return value:  Size  Location     Type
                  1    wreg      void 
 Registers used:
		None
 Tracked objects:
		On entry : 
		On exit  : 
		Unchanged: 
 Data sizes:     COMRAM   BANK0   BANK1   BANK2   BANK3   BANK4   BANK5   BANK6   BANK7   BANK8   BANK9  BANK10  BANK11  BANK12  BANK13  BANK14  BANK15
      Params:         0       0       0       0       0       0       0       0       0       0       0       0       0       0       0       0       0
      Locals:         0       0       0       0       0       0       0       0       0       0       0       0       0       0       0       0       0
      Temps:          0       0       0       0       0       0       0       0       0       0       0       0       0       0       0       0       0
      Totals:         0       0       0       0       0       0       0       0       0       0       0       0       0       0       0       0       0
Total ram usage:        0 bytes
 Hardware stack levels used:    1
 This function calls:
		Nothing
 This function is called by:
		_ADCC_Initialize
		i2_ADCC_Initialize
		_ADCC_ThresholdISR
 This function uses a non-reentrant model


 *************** function _AdcHandler *****************
 Defined at:
		line 96 in file "monitor.c"
 Parameters:    Size  Location     Type
		None
 Auto vars:     Size  Location     Type
		None
 Return value:  Size  Location     Type
                  1    wreg      void 
 Registers used:
		wreg, fsr1l, fsr1h, fsr2l, fsr2h, status,2, status,0, tblptrl, tblptrh, tblptru, prodl, prodh, cstack
 Tracked objects:
		On entry : 
		On exit  : 
		Unchanged: 
 Data sizes:     COMRAM   BANK0   BANK1   BANK2   BANK3   BANK4   BANK5   BANK6   BANK7   BANK8   BANK9  BANK10  BANK11  BANK12  BANK13  BANK14  BANK15
      Params:         0       0       0       0       0       0       0       0       0       0       0       0       0       0       0       0       0
      Locals:         0       0       0       0       0       0       0       0       0       0       0       0       0       0       0       0       0
      Temps:          0       0       0       0       0       0       0       0       0       0       0       0       0       0       0       0       0
      Totals:         0       0       0       0       0       0       0       0       0       0       0       0       0       0       0       0       0
Total ram usage:        0 bytes
 Hardware stack levels used:    1
 Hardware stack levels required when called:    9
 This function calls:
		_ADCC_GetConversionResult
		_AdcReady
		i2_ADCC_Initialize
		i2_ADCC_StartConversion
		i2_AdcInit
		i2___wmul
		i2_printf
 This function is called by:
		_AdcInit
		i2_AdcInit
		_ADCC_ThresholdISR
 This function uses a non-reentrant model


 *************** function i2_printf *****************
 Defined at:
		line 5 in file "/Applications/microchip/xc8/v2.10/pic/sources/c99/common/printf.c"
 Parameters:    Size  Location     Type
  fmt             2   23[BANK0 ] PTR const unsigned char 
		 -> STR_55(4), STR_54(4), STR_53(15), STR_52(16), 
		 -> STR_51(32), STR_50(32), STR_49(13), STR_48(12), 
		 -> STR_47(14), STR_46(4), STR_45(4), STR_44(2), 
		 -> STR_43(10), STR_42(4), STR_41(55), STR_40(53), 
		 -> STR_39(43), STR_38(54), STR_37(40), STR_36(36), 
		 -> STR_35(41), STR_34(32), STR_33(65), STR_32(4), 
		 -> STR_31(12), STR_30(4), STR_25(5), STR_24(3), 
		 -> STR_23(7), STR_22(18), STR_21(15), STR_20(15), 
		 -> STR_19(12), STR_18(5), STR_17(5), STR_16(5), 
		 -> STR_15(5), STR_14(19), STR_4(45), STR_3(4), 
		 -> STR_2(15), STR_1(13), 
 Auto vars:     Size  Location     Type
  printf          2   88[COMRAM] PTR void [1]
		 -> ?i2_printf(2), ?_printf(2), ?_sprintf(2), 
  printf          2    0        int 
 Return value:  Size  Location     Type
                  2   23[BANK0 ] int 
 Registers used:
		wreg, fsr1l, fsr1h, fsr2l, fsr2h, status,2, status,0, tblptrl, tblptrh, tblptru, prodl, prodh, cstack
 Tracked objects:
		On entry : 
		On exit  : 
		Unchanged: 
 Data sizes:     COMRAM   BANK0   BANK1   BANK2   BANK3   BANK4   BANK5   BANK6   BANK7   BANK8   BANK9  BANK10  BANK11  BANK12  BANK13  BANK14  BANK15
      Params:         0      10       0       0       0       0       0       0       0       0       0       0       0       0       0       0       0
      Locals:         4       0       0       0       0       0       0       0       0       0       0       0       0       0       0       0       0
      Temps:          0       0       0       0       0       0       0       0       0       0       0       0       0       0       0       0       0
      Totals:         4      10       0       0       0       0       0       0       0       0       0       0       0       0       0       0       0
Total ram usage:       14 bytes
 Hardware stack levels used:    1
 Hardware stack levels required when called:    8
 This function calls:
		i2_vfprintf
 This function is called by:
		_ButtonTask
		_BuzzerTestHandler
		_BuzzerCMPHandler
		_AlarmHandler
		_AdcHandler
		_MonitorPressureTask
		_UpdateState
		_StopHandler
		_ControllerTimerHandler
		i2_BuzzerTask
		i2_MuteAlarm
		i2_SetCalibrateState
		i2_SetAlarmSV1
		i2_SetSV1
 This function uses a non-reentrant model


 *************** function i2_vfprintf *****************
 Defined at:
		line 1368 in file "/Applications/microchip/xc8/v2.10/pic/sources/c99/common/doprnt.c"
 Parameters:    Size  Location     Type
  fp              2   78[COMRAM] PTR struct _IO_FILE
		 -> i2sprintf@f(6), sprintf@f(6), NULL(0), 
  fmt             2   80[COMRAM] PTR const unsigned char 
		 -> STR_55(4), STR_54(4), STR_53(15), STR_52(16), 
		 -> STR_51(32), STR_50(32), STR_49(13), STR_48(12), 
		 -> STR_47(14), STR_46(4), STR_45(4), STR_44(2), 
		 -> STR_43(10), STR_42(4), STR_41(55), STR_40(53), 
		 -> STR_39(43), STR_38(54), STR_37(40), STR_36(36), 
		 -> STR_35(41), STR_34(32), STR_33(65), STR_32(4), 
		 -> STR_31(12), STR_30(4), STR_25(5), STR_24(3), 
		 -> STR_23(7), STR_22(18), STR_21(15), STR_20(15), 
		 -> STR_19(12), STR_18(5), STR_17(5), STR_16(5), 
		 -> STR_15(5), STR_14(19), STR_13(8), STR_12(23), 
		 -> STR_10(26), STR_9(17), STR_8(17), STR_7(15), 
		 -> STR_4(45), STR_3(4), STR_2(15), STR_1(13), 
  ap              2   82[COMRAM] PTR PTR void 
		 -> i2printf@ap(2), i2sprintf@ap(2), printf@ap(2), sprintf@ap(2), 
 Auto vars:     Size  Location     Type
  vfprintf        2   84[COMRAM] PTR unsigned char 
		 -> STR_55(4), STR_54(4), STR_53(15), STR_52(16), 
		 -> STR_51(32), STR_50(32), STR_49(13), STR_48(12), 
		 -> STR_47(14), STR_46(4), STR_45(4), STR_44(2), 
		 -> STR_43(10), STR_42(4), STR_41(55), STR_40(53), 
		 -> STR_39(43), STR_38(54), STR_37(40), STR_36(36), 
		 -> STR_35(41), STR_34(32), STR_33(65), STR_32(4), 
		 -> STR_31(12), STR_30(4), STR_25(5), STR_24(3), 
		 -> STR_23(7), STR_22(18), STR_21(15), STR_20(15), 
		 -> STR_19(12), STR_18(5), STR_17(5), STR_16(5), 
		 -> STR_15(5), STR_14(19), STR_13(8), STR_12(23), 
		 -> STR_10(26), STR_9(17), STR_8(17), STR_7(15), 
		 -> STR_4(45), STR_3(4), STR_2(15), STR_1(13), 
 Return value:  Size  Location     Type
                  2   78[COMRAM] int 
 Registers used:
		wreg, fsr1l, fsr1h, fsr2l, fsr2h, status,2, status,0, tblptrl, tblptrh, tblptru, prodl, prodh, cstack
 Tracked objects:
		On entry : 
		On exit  : 
		Unchanged: 
 Data sizes:     COMRAM   BANK0   BANK1   BANK2   BANK3   BANK4   BANK5   BANK6   BANK7   BANK8   BANK9  BANK10  BANK11  BANK12  BANK13  BANK14  BANK15
      Params:         6       0       0       0       0       0       0       0       0       0       0       0       0       0       0       0       0
      Locals:         2       0       0       0       0       0       0       0       0       0       0       0       0       0       0       0       0
      Temps:          0       0       0       0       0       0       0       0       0       0       0       0       0       0       0       0       0
      Totals:         8       0       0       0       0       0       0       0       0       0       0       0       0       0       0       0       0
Total ram usage:        8 bytes
 Hardware stack levels used:    1
 Hardware stack levels required when called:    7
 This function calls:
		i2_vfpfcnvrt
 This function is called by:
		i2_sprintf
		i2_printf
 This function uses a non-reentrant model


 *************** function i2_vfpfcnvrt *****************
 Defined at:
		line 670 in file "/Applications/microchip/xc8/v2.10/pic/sources/c99/common/doprnt.c"
 Parameters:    Size  Location     Type
  fp              2   68[COMRAM] PTR struct _IO_FILE
		 -> i2sprintf@f(6), sprintf@f(6), NULL(0), 
  fmt             2   70[COMRAM] PTR PTR unsigned char 
		 -> i2vfprintf@cfmt(2), vfprintf@cfmt(2), 
  ap              2   72[COMRAM] PTR PTR void 
		 -> i2printf@ap(2), i2sprintf@ap(2), printf@ap(2), sprintf@ap(2), 
 Auto vars:     Size  Location     Type
  vfpfcnvrt       8    8[BANK0 ] unsigned long long 
  vfpfcnvrt       8    0[BANK0 ] long long 
  vfpfcnvrt       4    0        long long 
  vfpfcnvrt       3    0        PTR void 
  vfpfcnvrt       3    0        unsigned char [3]
  vfpfcnvrt       2   18[BANK0 ] int 
  vfpfcnvrt       2   16[BANK0 ] PTR unsigned char 
		 -> ?_printf(2), ?_sprintf(2), adcVOffset(2), adcOffset(2), 
		 -> STR_29(3), STR_28(3), STR_27(3), STR_26(3), 
		 -> alarmData(399), STR_11(3), 
  vfpfcnvrt       2    0        int 
  vfpfcnvrt       1   22[BANK0 ] unsigned char 
 Return value:  Size  Location     Type
                  2   68[COMRAM] int 
 Registers used:
		wreg, fsr1l, fsr1h, fsr2l, fsr2h, status,2, status,0, tblptrl, tblptrh, tblptru, prodl, prodh, cstack
 Tracked objects:
		On entry : 
		On exit  : 
		Unchanged: 
 Data sizes:     COMRAM   BANK0   BANK1   BANK2   BANK3   BANK4   BANK5   BANK6   BANK7   BANK8   BANK9  BANK10  BANK11  BANK12  BANK13  BANK14  BANK15
      Params:         6       0       0       0       0       0       0       0       0       0       0       0       0       0       0       0       0
      Locals:         0      23       0       0       0       0       0       0       0       0       0       0       0       0       0       0       0
      Temps:          4       0       0       0       0       0       0       0       0       0       0       0       0       0       0       0       0
      Totals:        10      23       0       0       0       0       0       0       0       0       0       0       0       0       0       0       0
Total ram usage:       33 bytes
 Hardware stack levels used:    1
 Hardware stack levels required when called:    6
 This function calls:
		i2_atoi
		i2_ctoa
		i2_dtoa
		i2_fputc
		i2_isdigit
		i2_stoa
		i2_xtoa
 This function is called by:
		i2_vfprintf
 This function uses a non-reentrant model


 *************** function i2_xtoa *****************
 Defined at:
		line 623 in file "/Applications/microchip/xc8/v2.10/pic/sources/c99/common/doprnt.c"
 Parameters:    Size  Location     Type
  fp              2   29[COMRAM] PTR struct _IO_FILE
		 -> i2sprintf@f(6), sprintf@f(6), NULL(0), 
  d               8   31[COMRAM] unsigned long long 
  x               1   39[COMRAM] unsigned char 
 Auto vars:     Size  Location     Type
  xtoa            8   56[COMRAM] unsigned long long 
  xtoa            2   66[COMRAM] int 
  xtoa            2   64[COMRAM] int 
  xtoa            2   54[COMRAM] int 
  xtoa            2   52[COMRAM] int 
 Return value:  Size  Location     Type
                  2   29[COMRAM] int 
 Registers used:
		wreg, fsr1l, fsr1h, fsr2l, fsr2h, status,2, status,0, tblptrl, tblptrh, tblptru, cstack
 Tracked objects:
		On entry : 
		On exit  : 
		Unchanged: 
 Data sizes:     COMRAM   BANK0   BANK1   BANK2   BANK3   BANK4   BANK5   BANK6   BANK7   BANK8   BANK9  BANK10  BANK11  BANK12  BANK13  BANK14  BANK15
      Params:        11       0       0       0       0       0       0       0       0       0       0       0       0       0       0       0       0
      Locals:        20       0       0       0       0       0       0       0       0       0       0       0       0       0       0       0       0
      Temps:          8       0       0       0       0       0       0       0       0       0       0       0       0       0       0       0       0
      Totals:        39       0       0       0       0       0       0       0       0       0       0       0       0       0       0       0       0
Total ram usage:       39 bytes
 Hardware stack levels used:    1
 Hardware stack levels required when called:    5
 This function calls:
		i2_isalpha
		i2_isupper
		i2_pad
		i2_toupper
 This function is called by:
		i2_vfpfcnvrt
 This function uses a non-reentrant model


 *************** function i2_toupper *****************
 Defined at:
		line 4 in file "/Applications/microchip/xc8/v2.10/pic/sources/c99/common/toupper.c"
 Parameters:    Size  Location     Type
  c               2    6[COMRAM] int 
 Auto vars:     Size  Location     Type
		None
 Return value:  Size  Location     Type
                  2    6[COMRAM] int 
 Registers used:
		wreg, status,2, status,0
 Tracked objects:
		On entry : 
		On exit  : 
		Unchanged: 
 Data sizes:     COMRAM   BANK0   BANK1   BANK2   BANK3   BANK4   BANK5   BANK6   BANK7   BANK8   BANK9  BANK10  BANK11  BANK12  BANK13  BANK14  BANK15
      Params:         2       0       0       0       0       0       0       0       0       0       0       0       0       0       0       0       0
      Locals:         2       0       0       0       0       0       0       0       0       0       0       0       0       0       0       0       0
      Temps:          4       0       0       0       0       0       0       0       0       0       0       0       0       0       0       0       0
      Totals:         8       0       0       0       0       0       0       0       0       0       0       0       0       0       0       0       0
Total ram usage:        8 bytes
 Hardware stack levels used:    1
 Hardware stack levels required when called:    1
 This function calls:
		i2_islower
 This function is called by:
		i2_xtoa
 This function uses a non-reentrant model


 *************** function i2_islower *****************
 Defined at:
		line 5 in file "/Applications/microchip/xc8/v2.10/pic/sources/c99/common/islower.c"
 Parameters:    Size  Location     Type
  c               2    0[COMRAM] int 
 Auto vars:     Size  Location     Type
		None
 Return value:  Size  Location     Type
                  2    0[COMRAM] int 
 Registers used:
		wreg, status,2, status,0
 Tracked objects:
		On entry : 
		On exit  : 
		Unchanged: 
 Data sizes:     COMRAM   BANK0   BANK1   BANK2   BANK3   BANK4   BANK5   BANK6   BANK7   BANK8   BANK9  BANK10  BANK11  BANK12  BANK13  BANK14  BANK15
      Params:         2       0       0       0       0       0       0       0       0       0       0       0       0       0       0       0       0
      Locals:         0       0       0       0       0       0       0       0       0       0       0       0       0       0       0       0       0
      Temps:          4       0       0       0       0       0       0       0       0       0       0       0       0       0       0       0       0
      Totals:         6       0       0       0       0       0       0       0       0       0       0       0       0       0       0       0       0
Total ram usage:        6 bytes
 Hardware stack levels used:    1
 This function calls:
		Nothing
 This function is called by:
		i2_toupper
 This function uses a non-reentrant model


 *************** function i2_isupper *****************
 Defined at:
		line 5 in file "/Applications/microchip/xc8/v2.10/pic/sources/c99/common/isupper.c"
 Parameters:    Size  Location     Type
  c               2    0[COMRAM] int 
 Auto vars:     Size  Location     Type
		None
 Return value:  Size  Location     Type
                  2    0[COMRAM] int 
 Registers used:
		wreg, status,2, status,0
 Tracked objects:
		On entry : 
		On exit  : 
		Unchanged: 
 Data sizes:     COMRAM   BANK0   BANK1   BANK2   BANK3   BANK4   BANK5   BANK6   BANK7   BANK8   BANK9  BANK10  BANK11  BANK12  BANK13  BANK14  BANK15
      Params:         2       0       0       0       0       0       0       0       0       0       0       0       0       0       0       0       0
      Locals:         0       0       0       0       0       0       0       0       0       0       0       0       0       0       0       0       0
      Temps:          4       0       0       0       0       0       0       0       0       0       0       0       0       0       0       0       0
      Totals:         6       0       0       0       0       0       0       0       0       0       0       0       0       0       0       0       0
Total ram usage:        6 bytes
 Hardware stack levels used:    1
 This function calls:
		Nothing
 This function is called by:
		i2_xtoa
 This function uses a non-reentrant model


 *************** function i2_isalpha *****************
 Defined at:
		line 5 in file "/Applications/microchip/xc8/v2.10/pic/sources/c99/common/isalpha.c"
 Parameters:    Size  Location     Type
  c               2    0[COMRAM] int 
 Auto vars:     Size  Location     Type
		None
 Return value:  Size  Location     Type
                  2    0[COMRAM] int 
 Registers used:
		wreg, status,2, status,0
 Tracked objects:
		On entry : 
		On exit  : 
		Unchanged: 
 Data sizes:     COMRAM   BANK0   BANK1   BANK2   BANK3   BANK4   BANK5   BANK6   BANK7   BANK8   BANK9  BANK10  BANK11  BANK12  BANK13  BANK14  BANK15
      Params:         2       0       0       0       0       0       0       0       0       0       0       0       0       0       0       0       0
      Locals:         0       0       0       0       0       0       0       0       0       0       0       0       0       0       0       0       0
      Temps:          4       0       0       0       0       0       0       0       0       0       0       0       0       0       0       0       0
      Totals:         6       0       0       0       0       0       0       0       0       0       0       0       0       0       0       0       0
Total ram usage:        6 bytes
 Hardware stack levels used:    1
 This function calls:
		Nothing
 This function is called by:
		i2_xtoa
 This function uses a non-reentrant model


 *************** function i2_stoa *****************
 Defined at:
		line 546 in file "/Applications/microchip/xc8/v2.10/pic/sources/c99/common/doprnt.c"
 Parameters:    Size  Location     Type
  fp              2   11[COMRAM] PTR struct _IO_FILE
		 -> i2sprintf@f(6), sprintf@f(6), NULL(0), 
  s               2   13[COMRAM] PTR unsigned char 
		 -> ?_printf(2), ?_sprintf(2), adcVOffset(2), adcOffset(2), 
		 -> STR_29(3), STR_28(3), STR_27(3), STR_26(3), 
		 -> alarmData(399), STR_11(3), 
 Auto vars:     Size  Location     Type
  stoa            7   16[COMRAM] unsigned char [7]
  stoa            2   31[COMRAM] int 
  stoa            2   29[COMRAM] int 
  stoa            2   27[COMRAM] PTR unsigned char 
		 -> i2stoa@nuls(7), ?_printf(2), ?_sprintf(2), stoa@nuls(7), 
		 -> adcVOffset(2), adcOffset(2), STR_29(3), STR_28(3), 
		 -> STR_27(3), STR_26(3), alarmData(399), STR_11(3), 
  stoa            2   25[COMRAM] int 
  stoa            2   23[COMRAM] int 
 Return value:  Size  Location     Type
                  2   11[COMRAM] int 
 Registers used:
		wreg, fsr1l, fsr1h, fsr2l, fsr2h, status,2, status,0, tblptrl, tblptrh, tblptru, cstack
 Tracked objects:
		On entry : 
		On exit  : 
		Unchanged: 
 Data sizes:     COMRAM   BANK0   BANK1   BANK2   BANK3   BANK4   BANK5   BANK6   BANK7   BANK8   BANK9  BANK10  BANK11  BANK12  BANK13  BANK14  BANK15
      Params:         4       0       0       0       0       0       0       0       0       0       0       0       0       0       0       0       0
      Locals:        17       0       0       0       0       0       0       0       0       0       0       0       0       0       0       0       0
      Temps:          1       0       0       0       0       0       0       0       0       0       0       0       0       0       0       0       0
      Totals:        22       0       0       0       0       0       0       0       0       0       0       0       0       0       0       0       0
Total ram usage:       22 bytes
 Hardware stack levels used:    1
 Hardware stack levels required when called:    3
 This function calls:
		i2_fputc
		i2_strlen
 This function is called by:
		i2_vfpfcnvrt
 This function uses a non-reentrant model


 *************** function i2_dtoa *****************
 Defined at:
		line 274 in file "/Applications/microchip/xc8/v2.10/pic/sources/c99/common/doprnt.c"
 Parameters:    Size  Location     Type
  fp              2   29[COMRAM] PTR struct _IO_FILE
		 -> i2sprintf@f(6), sprintf@f(6), NULL(0), 
  d               8   31[COMRAM] long long 
 Auto vars:     Size  Location     Type
  dtoa            8   55[COMRAM] long long 
  dtoa            2   63[COMRAM] int 
  dtoa            2   53[COMRAM] int 
  dtoa            2   51[COMRAM] int 
  dtoa            2   49[COMRAM] int 
 Return value:  Size  Location     Type
                  2   29[COMRAM] int 
 Registers used:
		wreg, fsr1l, fsr1h, fsr2l, fsr2h, status,2, status,0, tblptrl, tblptrh, tblptru, cstack
 Tracked objects:
		On entry : 
		On exit  : 
		Unchanged: 
 Data sizes:     COMRAM   BANK0   BANK1   BANK2   BANK3   BANK4   BANK5   BANK6   BANK7   BANK8   BANK9  BANK10  BANK11  BANK12  BANK13  BANK14  BANK15
      Params:        10       0       0       0       0       0       0       0       0       0       0       0       0       0       0       0       0
      Locals:        18       0       0       0       0       0       0       0       0       0       0       0       0       0       0       0       0
      Temps:          8       0       0       0       0       0       0       0       0       0       0       0       0       0       0       0       0
      Totals:        36       0       0       0       0       0       0       0       0       0       0       0       0       0       0       0       0
Total ram usage:       36 bytes
 Hardware stack levels used:    1
 Hardware stack levels required when called:    5
 This function calls:
		i2___aodiv
		i2___aomod
		i2_abs
		i2_pad
 This function is called by:
		i2_vfpfcnvrt
 This function uses a non-reentrant model


 *************** function i2_abs *****************
 Defined at:
		line 1 in file "/Applications/microchip/xc8/v2.10/pic/sources/c99/common/abs.c"
 Parameters:    Size  Location     Type
  a               2   18[COMRAM] int 
 Auto vars:     Size  Location     Type
		None
 Return value:  Size  Location     Type
                  2   18[COMRAM] int 
 Registers used:
		wreg, status,2, status,0
 Tracked objects:
		On entry : 
		On exit  : 
		Unchanged: 
 Data sizes:     COMRAM   BANK0   BANK1   BANK2   BANK3   BANK4   BANK5   BANK6   BANK7   BANK8   BANK9  BANK10  BANK11  BANK12  BANK13  BANK14  BANK15
      Params:         2       0       0       0       0       0       0       0       0       0       0       0       0       0       0       0       0
      Locals:         0       0       0       0       0       0       0       0       0       0       0       0       0       0       0       0       0
      Temps:          2       0       0       0       0       0       0       0       0       0       0       0       0       0       0       0       0
      Totals:         4       0       0       0       0       0       0       0       0       0       0       0       0       0       0       0       0
Total ram usage:        4 bytes
 Hardware stack levels used:    1
 This function calls:
		Nothing
 This function is called by:
		i2_dtoa
 This function uses a non-reentrant model


 *************** function i2___aomod *****************
 Defined at:
		line 9 in file "/Applications/microchip/xc8/v2.10/pic/sources/c99/common/aomod.c"
 Parameters:    Size  Location     Type
  dividend        8    0[COMRAM] long long 
  divisor         8    8[COMRAM] long long 
 Auto vars:     Size  Location     Type
  __aomod         1   17[COMRAM] unsigned char 
  __aomod         1   16[COMRAM] unsigned char 
 Return value:  Size  Location     Type
                  8    0[COMRAM] long long 
 Registers used:
		wreg, status,2, status,0
 Tracked objects:
		On entry : 
		On exit  : 
		Unchanged: 
 Data sizes:     COMRAM   BANK0   BANK1   BANK2   BANK3   BANK4   BANK5   BANK6   BANK7   BANK8   BANK9  BANK10  BANK11  BANK12  BANK13  BANK14  BANK15
      Params:        16       0       0       0       0       0       0       0       0       0       0       0       0       0       0       0       0
      Locals:         2       0       0       0       0       0       0       0       0       0       0       0       0       0       0       0       0
      Temps:          0       0       0       0       0       0       0       0       0       0       0       0       0       0       0       0       0
      Totals:        18       0       0       0       0       0       0       0       0       0       0       0       0       0       0       0       0
Total ram usage:       18 bytes
 Hardware stack levels used:    1
 This function calls:
		Nothing
 This function is called by:
		i2_dtoa
 This function uses a non-reentrant model


 *************** function i2___aodiv *****************
 Defined at:
		line 9 in file "/Applications/microchip/xc8/v2.10/pic/sources/c99/common/aodiv.c"
 Parameters:    Size  Location     Type
  dividend        8    0[COMRAM] long long 
  divisor         8    8[COMRAM] long long 
 Auto vars:     Size  Location     Type
  __aodiv         8   18[COMRAM] long long 
  __aodiv         1   17[COMRAM] unsigned char 
  __aodiv         1   16[COMRAM] unsigned char 
 Return value:  Size  Location     Type
                  8    0[COMRAM] long long 
 Registers used:
		wreg, fsr2l, fsr2h, status,2, status,0
 Tracked objects:
		On entry : 
		On exit  : 
		Unchanged: 
 Data sizes:     COMRAM   BANK0   BANK1   BANK2   BANK3   BANK4   BANK5   BANK6   BANK7   BANK8   BANK9  BANK10  BANK11  BANK12  BANK13  BANK14  BANK15
      Params:        16       0       0       0       0       0       0       0       0       0       0       0       0       0       0       0       0
      Locals:        10       0       0       0       0       0       0       0       0       0       0       0       0       0       0       0       0
      Temps:          0       0       0       0       0       0       0       0       0       0       0       0       0       0       0       0       0
      Totals:        26       0       0       0       0       0       0       0       0       0       0       0       0       0       0       0       0
Total ram usage:       26 bytes
 Hardware stack levels used:    1
 This function calls:
		Nothing
 This function is called by:
		i2_dtoa
 This function uses a non-reentrant model


 *************** function i2_ctoa *****************
 Defined at:
		line 259 in file "/Applications/microchip/xc8/v2.10/pic/sources/c99/common/doprnt.c"
 Parameters:    Size  Location     Type
  fp              2   29[COMRAM] PTR struct _IO_FILE
		 -> i2sprintf@f(6), sprintf@f(6), NULL(0), 
  c               1   31[COMRAM] unsigned char 
 Auto vars:     Size  Location     Type
  ctoa            2   32[COMRAM] int 
  ctoa            2    0        int 
 Return value:  Size  Location     Type
                  2   29[COMRAM] int 
 Registers used:
		wreg, fsr1l, fsr1h, fsr2l, fsr2h, status,2, status,0, tblptrl, tblptrh, tblptru, cstack
 Tracked objects:
		On entry : 
		On exit  : 
		Unchanged: 
 Data sizes:     COMRAM   BANK0   BANK1   BANK2   BANK3   BANK4   BANK5   BANK6   BANK7   BANK8   BANK9  BANK10  BANK11  BANK12  BANK13  BANK14  BANK15
      Params:         3       0       0       0       0       0       0       0       0       0       0       0       0       0       0       0       0
      Locals:         2       0       0       0       0       0       0       0       0       0       0       0       0       0       0       0       0
      Temps:          0       0       0       0       0       0       0       0       0       0       0       0       0       0       0       0       0
      Totals:         5       0       0       0       0       0       0       0       0       0       0       0       0       0       0       0       0
Total ram usage:        5 bytes
 Hardware stack levels used:    1
 Hardware stack levels required when called:    5
 This function calls:
		i2_pad
 This function is called by:
		i2_vfpfcnvrt
 This function uses a non-reentrant model


 *************** function i2_pad *****************
 Defined at:
		line 72 in file "/Applications/microchip/xc8/v2.10/pic/sources/c99/common/doprnt.c"
 Parameters:    Size  Location     Type
  fp              2   18[COMRAM] PTR struct _IO_FILE
		 -> i2sprintf@f(6), sprintf@f(6), NULL(0), 
  buf             2   20[COMRAM] PTR unsigned char 
		 -> dbuf(32), 
  p               2   22[COMRAM] int 
 Auto vars:     Size  Location     Type
  pad             2   27[COMRAM] int 
  pad             2   25[COMRAM] int 
 Return value:  Size  Location     Type
                  2   18[COMRAM] int 
 Registers used:
		wreg, fsr1l, fsr1h, fsr2l, fsr2h, status,2, status,0, tblptrl, tblptrh, tblptru, cstack
 Tracked objects:
		On entry : 
		On exit  : 
		Unchanged: 
 Data sizes:     COMRAM   BANK0   BANK1   BANK2   BANK3   BANK4   BANK5   BANK6   BANK7   BANK8   BANK9  BANK10  BANK11  BANK12  BANK13  BANK14  BANK15
      Params:         6       0       0       0       0       0       0       0       0       0       0       0       0       0       0       0       0
      Locals:         4       0       0       0       0       0       0       0       0       0       0       0       0       0       0       0       0
      Temps:          1       0       0       0       0       0       0       0       0       0       0       0       0       0       0       0       0
      Totals:        11       0       0       0       0       0       0       0       0       0       0       0       0       0       0       0       0
Total ram usage:       11 bytes
 Hardware stack levels used:    1
 Hardware stack levels required when called:    4
 This function calls:
		i2_fputc
		i2_fputs
		i2_strlen
 This function is called by:
		i2_ctoa
		i2_dtoa
		i2_xtoa
 This function uses a non-reentrant model


 *************** function i2_strlen *****************
 Defined at:
		line 5 in file "/Applications/microchip/xc8/v2.10/pic/sources/c99/common/strlen.c"
 Parameters:    Size  Location     Type
  s               2    0[COMRAM] PTR const unsigned char 
		 -> i2stoa@nuls(7), ?_printf(2), ?_sprintf(2), stoa@nuls(7), 
		 -> dbuf(32), adcVOffset(2), adcOffset(2), STR_29(3), 
		 -> STR_28(3), STR_27(3), STR_26(3), alarmData(399), 
		 -> msg3(20), STR_11(3), msg2(20), msg1(20), 
		 -> msg4(20), LCDTest@msg2(17), LCDTest@msg1(17), STR_6(17), 
		 -> STR_5(17), 
 Auto vars:     Size  Location     Type
  strlen          2    2[COMRAM] PTR const unsigned char 
		 -> i2stoa@nuls(7), ?_printf(2), ?_sprintf(2), stoa@nuls(7), 
		 -> dbuf(32), adcVOffset(2), adcOffset(2), STR_29(3), 
		 -> STR_28(3), STR_27(3), STR_26(3), alarmData(399), 
		 -> msg3(20), STR_11(3), msg2(20), msg1(20), 
		 -> msg4(20), LCDTest@msg2(17), LCDTest@msg1(17), STR_6(17), 
		 -> STR_5(17), 
 Return value:  Size  Location     Type
                  2    0[COMRAM] unsigned int 
 Registers used:
		wreg, fsr1l, fsr1h, status,2, status,0, tblptrl, tblptrh, tblptru
 Tracked objects:
		On entry : 
		On exit  : 
		Unchanged: 
 Data sizes:     COMRAM   BANK0   BANK1   BANK2   BANK3   BANK4   BANK5   BANK6   BANK7   BANK8   BANK9  BANK10  BANK11  BANK12  BANK13  BANK14  BANK15
      Params:         2       0       0       0       0       0       0       0       0       0       0       0       0       0       0       0       0
      Locals:         2       0       0       0       0       0       0       0       0       0       0       0       0       0       0       0       0
      Temps:          0       0       0       0       0       0       0       0       0       0       0       0       0       0       0       0       0
      Totals:         4       0       0       0       0       0       0       0       0       0       0       0       0       0       0       0       0
Total ram usage:        4 bytes
 Hardware stack levels used:    1
 This function calls:
		Nothing
 This function is called by:
		i2_pad
		i2_stoa
 This function uses a non-reentrant model


 *************** function i2_fputs *****************
 Defined at:
		line 8 in file "/Applications/microchip/xc8/v2.10/pic/sources/c99/common/nf_fputs.c"
 Parameters:    Size  Location     Type
  s               2   11[COMRAM] PTR const unsigned char 
		 -> dbuf(32), 
  fp              2   13[COMRAM] PTR struct _IO_FILE
		 -> i2sprintf@f(6), sprintf@f(6), NULL(0), 
 Auto vars:     Size  Location     Type
  fputs           2   16[COMRAM] int 
  fputs           1   15[COMRAM] unsigned char 
 Return value:  Size  Location     Type
                  2   11[COMRAM] int 
 Registers used:
		wreg, fsr1l, fsr1h, fsr2l, fsr2h, status,2, status,0, cstack
 Tracked objects:
		On entry : 
		On exit  : 
		Unchanged: 
 Data sizes:     COMRAM   BANK0   BANK1   BANK2   BANK3   BANK4   BANK5   BANK6   BANK7   BANK8   BANK9  BANK10  BANK11  BANK12  BANK13  BANK14  BANK15
      Params:         4       0       0       0       0       0       0       0       0       0       0       0       0       0       0       0       0
      Locals:         3       0       0       0       0       0       0       0       0       0       0       0       0       0       0       0       0
      Temps:          0       0       0       0       0       0       0       0       0       0       0       0       0       0       0       0       0
      Totals:         7       0       0       0       0       0       0       0       0       0       0       0       0       0       0       0       0
Total ram usage:        7 bytes
 Hardware stack levels used:    1
 Hardware stack levels required when called:    3
 This function calls:
		i2_fputc
 This function is called by:
		i2_pad
 This function uses a non-reentrant model


 *************** function i2_fputc *****************
 Defined at:
		line 8 in file "/Applications/microchip/xc8/v2.10/pic/sources/c99/common/nf_fputc.c"
 Parameters:    Size  Location     Type
  c               2    2[COMRAM] int 
  fp              2    4[COMRAM] PTR struct _IO_FILE
		 -> i2sprintf@f(6), sprintf@f(6), NULL(0), 
 Auto vars:     Size  Location     Type
		None
 Return value:  Size  Location     Type
                  2    2[COMRAM] int 
 Registers used:
		wreg, fsr1l, fsr1h, fsr2l, fsr2h, status,2, status,0, cstack
 Tracked objects:
		On entry : 
		On exit  : 
		Unchanged: 
 Data sizes:     COMRAM   BANK0   BANK1   BANK2   BANK3   BANK4   BANK5   BANK6   BANK7   BANK8   BANK9  BANK10  BANK11  BANK12  BANK13  BANK14  BANK15
      Params:         4       0       0       0       0       0       0       0       0       0       0       0       0       0       0       0       0
      Locals:         0       0       0       0       0       0       0       0       0       0       0       0       0       0       0       0       0
      Temps:          5       0       0       0       0       0       0       0       0       0       0       0       0       0       0       0       0
      Totals:         9       0       0       0       0       0       0       0       0       0       0       0       0       0       0       0       0
Total ram usage:        9 bytes
 Hardware stack levels used:    1
 Hardware stack levels required when called:    2
 This function calls:
		i2_putch
 This function is called by:
		i2_pad
		i2_stoa
		i2_vfpfcnvrt
		i2_fputs
 This function uses a non-reentrant model


 *************** function i2_putch *****************
 Defined at:
		line 229 in file "mcc_generated_files/uart1.c"
 Parameters:    Size  Location     Type
  txData          1    wreg     unsigned char 
 Auto vars:     Size  Location     Type
  txData          1    1[COMRAM] unsigned char 
 Return value:  Size  Location     Type
                  1    wreg      void 
 Registers used:
		wreg, fsr2l, fsr2h, status,2, status,0, cstack
 Tracked objects:
		On entry : 
		On exit  : 
		Unchanged: 
 Data sizes:     COMRAM   BANK0   BANK1   BANK2   BANK3   BANK4   BANK5   BANK6   BANK7   BANK8   BANK9  BANK10  BANK11  BANK12  BANK13  BANK14  BANK15
      Params:         0       0       0       0       0       0       0       0       0       0       0       0       0       0       0       0       0
      Locals:         1       0       0       0       0       0       0       0       0       0       0       0       0       0       0       0       0
      Temps:          0       0       0       0       0       0       0       0       0       0       0       0       0       0       0       0       0
      Totals:         1       0       0       0       0       0       0       0       0       0       0       0       0       0       0       0       0
Total ram usage:        1 bytes
 Hardware stack levels used:    1
 Hardware stack levels required when called:    1
 This function calls:
		i2_UART1_Write
 This function is called by:
		i2_fputc
 This function uses a non-reentrant model


 *************** function i2_UART1_Write *****************
 Defined at:
		line 201 in file "mcc_generated_files/uart1.c"
 Parameters:    Size  Location     Type
  txData          1    wreg     unsigned char 
 Auto vars:     Size  Location     Type
  txData          1    0[COMRAM] unsigned char 
 Return value:  Size  Location     Type
                  1    wreg      void 
 Registers used:
		wreg, fsr2l, fsr2h, status,2, status,0
 Tracked objects:
		On entry : 
		On exit  : 
		Unchanged: 
 Data sizes:     COMRAM   BANK0   BANK1   BANK2   BANK3   BANK4   BANK5   BANK6   BANK7   BANK8   BANK9  BANK10  BANK11  BANK12  BANK13  BANK14  BANK15
      Params:         0       0       0       0       0       0       0       0       0       0       0       0       0       0       0       0       0
      Locals:         1       0       0       0       0       0       0       0       0       0       0       0       0       0       0       0       0
      Temps:          0       0       0       0       0       0       0       0       0       0       0       0       0       0       0       0       0
      Totals:         1       0       0       0       0       0       0       0       0       0       0       0       0       0       0       0       0
Total ram usage:        1 bytes
 Hardware stack levels used:    1
 This function calls:
		Nothing
 This function is called by:
		i2_putch
 This function uses a non-reentrant model


 *************** function i2_atoi *****************
 Defined at:
		line 4 in file "/Applications/microchip/xc8/v2.10/pic/sources/c99/common/atoi.c"
 Parameters:    Size  Location     Type
  s               2    7[COMRAM] PTR const unsigned char 
		 -> STR_55(4), STR_54(4), STR_53(15), STR_52(16), 
		 -> STR_51(32), STR_50(32), STR_49(13), STR_48(12), 
		 -> STR_47(14), STR_46(4), STR_45(4), STR_44(2), 
		 -> STR_43(10), STR_42(4), STR_41(55), STR_40(53), 
		 -> STR_39(43), STR_38(54), STR_37(40), STR_36(36), 
		 -> STR_35(41), STR_34(32), STR_33(65), STR_32(4), 
		 -> STR_31(12), STR_30(4), STR_25(5), STR_24(3), 
		 -> STR_23(7), STR_22(18), STR_21(15), STR_20(15), 
		 -> STR_19(12), STR_18(5), STR_17(5), STR_16(5), 
		 -> STR_15(5), STR_14(19), STR_13(8), STR_12(23), 
		 -> STR_10(26), STR_9(17), STR_8(17), STR_7(15), 
		 -> STR_4(45), STR_3(4), STR_2(15), STR_1(13), 
 Auto vars:     Size  Location     Type
  atoi            2   20[COMRAM] int 
  atoi            2   13[COMRAM] int 
 Return value:  Size  Location     Type
                  2    7[COMRAM] int 
 Registers used:
		wreg, status,2, status,0, tblptrl, tblptrh, tblptru, prodl, prodh, cstack
 Tracked objects:
		On entry : 
		On exit  : 
		Unchanged: 
 Data sizes:     COMRAM   BANK0   BANK1   BANK2   BANK3   BANK4   BANK5   BANK6   BANK7   BANK8   BANK9  BANK10  BANK11  BANK12  BANK13  BANK14  BANK15
      Params:         2       0       0       0       0       0       0       0       0       0       0       0       0       0       0       0       0
      Locals:         9       0       0       0       0       0       0       0       0       0       0       0       0       0       0       0       0
      Temps:          4       0       0       0       0       0       0       0       0       0       0       0       0       0       0       0       0
      Totals:        15       0       0       0       0       0       0       0       0       0       0       0       0       0       0       0       0
Total ram usage:       15 bytes
 Hardware stack levels used:    1
 Hardware stack levels required when called:    1
 This function calls:
		i2___wmul
		i2_isdigit
		i2_isspace
 This function is called by:
		i2_vfpfcnvrt
 This function uses a non-reentrant model


 *************** function i2_isspace *****************
 Defined at:
		line 5 in file "/Applications/microchip/xc8/v2.10/pic/sources/c99/common/isspace.c"
 Parameters:    Size  Location     Type
  c               2    0[COMRAM] int 
 Auto vars:     Size  Location     Type
		None
 Return value:  Size  Location     Type
                  2    0[COMRAM] int 
 Registers used:
		wreg, status,2, status,0
 Tracked objects:
		On entry : 
		On exit  : 
		Unchanged: 
 Data sizes:     COMRAM   BANK0   BANK1   BANK2   BANK3   BANK4   BANK5   BANK6   BANK7   BANK8   BANK9  BANK10  BANK11  BANK12  BANK13  BANK14  BANK15
      Params:         2       0       0       0       0       0       0       0       0       0       0       0       0       0       0       0       0
      Locals:         1       0       0       0       0       0       0       0       0       0       0       0       0       0       0       0       0
      Temps:          4       0       0       0       0       0       0       0       0       0       0       0       0       0       0       0       0
      Totals:         7       0       0       0       0       0       0       0       0       0       0       0       0       0       0       0       0
Total ram usage:        7 bytes
 Hardware stack levels used:    1
 This function calls:
		Nothing
 This function is called by:
		i2_atoi
 This function uses a non-reentrant model


 *************** function i2_isdigit *****************
 Defined at:
		line 5 in file "/Applications/microchip/xc8/v2.10/pic/sources/c99/common/isdigit.c"
 Parameters:    Size  Location     Type
  c               2    0[COMRAM] int 
 Auto vars:     Size  Location     Type
		None
 Return value:  Size  Location     Type
                  2    0[COMRAM] int 
 Registers used:
		wreg, status,2, status,0
 Tracked objects:
		On entry : 
		On exit  : 
		Unchanged: 
 Data sizes:     COMRAM   BANK0   BANK1   BANK2   BANK3   BANK4   BANK5   BANK6   BANK7   BANK8   BANK9  BANK10  BANK11  BANK12  BANK13  BANK14  BANK15
      Params:         2       0       0       0       0       0       0       0       0       0       0       0       0       0       0       0       0
      Locals:         0       0       0       0       0       0       0       0       0       0       0       0       0       0       0       0       0
      Temps:          4       0       0       0       0       0       0       0       0       0       0       0       0       0       0       0       0
      Totals:         6       0       0       0       0       0       0       0       0       0       0       0       0       0       0       0       0
Total ram usage:        6 bytes
 Hardware stack levels used:    1
 This function calls:
		Nothing
 This function is called by:
		i2_vfpfcnvrt
		i2_atoi
 This function uses a non-reentrant model


 *************** function i2_AdcInit *****************
 Defined at:
		line 57 in file "monitor.c"
 Parameters:    Size  Location     Type
		None
 Auto vars:     Size  Location     Type
		None
 Return value:  Size  Location     Type
                  1    wreg      void 
 Registers used:
		wreg, fsr2l, fsr2h, status,2, status,0, prodl, prodh, cstack
 Tracked objects:
		On entry : 
		On exit  : 
		Unchanged: 
 Data sizes:     COMRAM   BANK0   BANK1   BANK2   BANK3   BANK4   BANK5   BANK6   BANK7   BANK8   BANK9  BANK10  BANK11  BANK12  BANK13  BANK14  BANK15
      Params:         0       0       0       0       0       0       0       0       0       0       0       0       0       0       0       0       0
      Locals:         0       0       0       0       0       0       0       0       0       0       0       0       0       0       0       0       0
      Temps:          0       0       0       0       0       0       0       0       0       0       0       0       0       0       0       0       0
      Totals:         0       0       0       0       0       0       0       0       0       0       0       0       0       0       0       0       0
Total ram usage:        0 bytes
 Hardware stack levels used:    1
 Hardware stack levels required when called:    1
 This function calls:
		i2_ADCC_SetADTIInterruptHandler
		i2_ADCC_StartConversion
		i2___wmul
 This function is called by:
		_AdcHandler
 This function uses a non-reentrant model


 *************** function i2___wmul *****************
 Defined at:
		line 15 in file "/Applications/microchip/xc8/v2.10/pic/sources/c99/common/Umul16.c"
 Parameters:    Size  Location     Type
  multiplier      2    0[COMRAM] unsigned int 
  multiplicand    2    2[COMRAM] unsigned int 
 Auto vars:     Size  Location     Type
  __wmul          2    4[COMRAM] unsigned int 
 Return value:  Size  Location     Type
                  2    0[COMRAM] unsigned int 
 Registers used:
		wreg, status,2, status,0, prodl, prodh
 Tracked objects:
		On entry : 
		On exit  : 
		Unchanged: 
 Data sizes:     COMRAM   BANK0   BANK1   BANK2   BANK3   BANK4   BANK5   BANK6   BANK7   BANK8   BANK9  BANK10  BANK11  BANK12  BANK13  BANK14  BANK15
      Params:         4       0       0       0       0       0       0       0       0       0       0       0       0       0       0       0       0
      Locals:         2       0       0       0       0       0       0       0       0       0       0       0       0       0       0       0       0
      Temps:          0       0       0       0       0       0       0       0       0       0       0       0       0       0       0       0       0
      Totals:         6       0       0       0       0       0       0       0       0       0       0       0       0       0       0       0       0
Total ram usage:        6 bytes
 Hardware stack levels used:    1
 This function calls:
		Nothing
 This function is called by:
		_SetTarget
		_MonitorPressureTask
		i2_ValueDisplay
		i2_HigherAlarm
		i2_MuteAlarm
		i2_AlarmUpdateLCD
		i2_atoi
		_AdcHandler
		i2_AdcInit
		i2_AdcGetData
		_AdcReStartCycle
		i2_AdcSeeData
		i2_AdcDataReady
 This function uses a non-reentrant model


 *************** function i2_ADCC_StartConversion *****************
 Defined at:
		line 120 in file "mcc_generated_files/adcc.c"
 Parameters:    Size  Location     Type
  channel         1    wreg     enum E16053
 Auto vars:     Size  Location     Type
  channel         1    0[COMRAM] enum E16053
 Return value:  Size  Location     Type
                  1    wreg      void 
 Registers used:
		wreg
 Tracked objects:
		On entry : 
		On exit  : 
		Unchanged: 
 Data sizes:     COMRAM   BANK0   BANK1   BANK2   BANK3   BANK4   BANK5   BANK6   BANK7   BANK8   BANK9  BANK10  BANK11  BANK12  BANK13  BANK14  BANK15
      Params:         0       0       0       0       0       0       0       0       0       0       0       0       0       0       0       0       0
      Locals:         1       0       0       0       0       0       0       0       0       0       0       0       0       0       0       0       0
      Temps:          0       0       0       0       0       0       0       0       0       0       0       0       0       0       0       0       0
      Totals:         1       0       0       0       0       0       0       0       0       0       0       0       0       0       0       0       0
Total ram usage:        1 bytes
 Hardware stack levels used:    1
 This function calls:
		Nothing
 This function is called by:
		_AdcReStartCycle
		_AdcHandler
		i2_AdcInit
 This function uses a non-reentrant model


 *************** function i2_ADCC_Initialize *****************
 Defined at:
		line 63 in file "mcc_generated_files/adcc.c"
 Parameters:    Size  Location     Type
		None
 Auto vars:     Size  Location     Type
		None
 Return value:  Size  Location     Type
                  1    wreg      void 
 Registers used:
		wreg, status,2, status,0, cstack
 Tracked objects:
		On entry : 
		On exit  : 
		Unchanged: 
 Data sizes:     COMRAM   BANK0   BANK1   BANK2   BANK3   BANK4   BANK5   BANK6   BANK7   BANK8   BANK9  BANK10  BANK11  BANK12  BANK13  BANK14  BANK15
      Params:         0       0       0       0       0       0       0       0       0       0       0       0       0       0       0       0       0
      Locals:         0       0       0       0       0       0       0       0       0       0       0       0       0       0       0       0       0
      Temps:          0       0       0       0       0       0       0       0       0       0       0       0       0       0       0       0       0
      Totals:         0       0       0       0       0       0       0       0       0       0       0       0       0       0       0       0       0
Total ram usage:        0 bytes
 Hardware stack levels used:    1
 Hardware stack levels required when called:    1
 This function calls:
		i2_ADCC_SetADTIInterruptHandler
 This function is called by:
		_AdcHandler
 This function uses a non-reentrant model


 *************** function i2_ADCC_SetADTIInterruptHandler *****************
 Defined at:
		line 316 in file "mcc_generated_files/adcc.c"
 Parameters:    Size  Location     Type
  InterruptHan    2    0[COMRAM] PTR FTN()void 
		 -> AdcHandler(1), ADCC_DefaultInterruptHandler(1), 
 Auto vars:     Size  Location     Type
		None
 Return value:  Size  Location     Type
                  1    wreg      void 
 Registers used:
		wreg, status,2, status,0
 Tracked objects:
		On entry : 
		On exit  : 
		Unchanged: 
 Data sizes:     COMRAM   BANK0   BANK1   BANK2   BANK3   BANK4   BANK5   BANK6   BANK7   BANK8   BANK9  BANK10  BANK11  BANK12  BANK13  BANK14  BANK15
      Params:         2       0       0       0       0       0       0       0       0       0       0       0       0       0       0       0       0
      Locals:         0       0       0       0       0       0       0       0       0       0       0       0       0       0       0       0       0
      Temps:          0       0       0       0       0       0       0       0       0       0       0       0       0       0       0       0       0
      Totals:         2       0       0       0       0       0       0       0       0       0       0       0       0       0       0       0       0
Total ram usage:        2 bytes
 Hardware stack levels used:    1
 This function calls:
		Nothing
 This function is called by:
		i2_ADCC_Initialize
		i2_AdcInit
 This function uses a non-reentrant model


 *************** function _AdcReady *****************
 Defined at:
		line 67 in file "monitor.c"
 Parameters:    Size  Location     Type
		None
 Auto vars:     Size  Location     Type
		None
 Return value:  Size  Location     Type
                  1    wreg      _Bool 
 Registers used:
		wreg, cstack
 Tracked objects:
		On entry : 
		On exit  : 
		Unchanged: 
 Data sizes:     COMRAM   BANK0   BANK1   BANK2   BANK3   BANK4   BANK5   BANK6   BANK7   BANK8   BANK9  BANK10  BANK11  BANK12  BANK13  BANK14  BANK15
      Params:         0       0       0       0       0       0       0       0       0       0       0       0       0       0       0       0       0
      Locals:         0       0       0       0       0       0       0       0       0       0       0       0       0       0       0       0       0
      Temps:          0       0       0       0       0       0       0       0       0       0       0       0       0       0       0       0       0
      Totals:         0       0       0       0       0       0       0       0       0       0       0       0       0       0       0       0       0
Total ram usage:        0 bytes
 Hardware stack levels used:    1
 Hardware stack levels required when called:    1
 This function calls:
		_ADCC_IsConversionDone
 This function is called by:
		_AdcHandler
		_MonitorPressureTask
 This function uses a non-reentrant model


 *************** function _ADCC_IsConversionDone *****************
 Defined at:
		line 132 in file "mcc_generated_files/adcc.c"
 Parameters:    Size  Location     Type
		None
 Auto vars:     Size  Location     Type
		None
 Return value:  Size  Location     Type
                  1    wreg      _Bool 
 Registers used:
		wreg
 Tracked objects:
		On entry : 
		On exit  : 
		Unchanged: 
 Data sizes:     COMRAM   BANK0   BANK1   BANK2   BANK3   BANK4   BANK5   BANK6   BANK7   BANK8   BANK9  BANK10  BANK11  BANK12  BANK13  BANK14  BANK15
      Params:         0       0       0       0       0       0       0       0       0       0       0       0       0       0       0       0       0
      Locals:         0       0       0       0       0       0       0       0       0       0       0       0       0       0       0       0       0
      Temps:          0       0       0       0       0       0       0       0       0       0       0       0       0       0       0       0       0
      Totals:         0       0       0       0       0       0       0       0       0       0       0       0       0       0       0       0       0
Total ram usage:        0 bytes
 Hardware stack levels used:    1
 This function calls:
		Nothing
 This function is called by:
		_AdcReady
 This function uses a non-reentrant model


 *************** function _ADCC_GetConversionResult *****************
 Defined at:
		line 138 in file "mcc_generated_files/adcc.c"
 Parameters:    Size  Location     Type
		None
 Auto vars:     Size  Location     Type
		None
 Return value:  Size  Location     Type
                  2    0[COMRAM] unsigned short 
 Registers used:
		wreg, status,2, status,0
 Tracked objects:
		On entry : 
		On exit  : 
		Unchanged: 
 Data sizes:     COMRAM   BANK0   BANK1   BANK2   BANK3   BANK4   BANK5   BANK6   BANK7   BANK8   BANK9  BANK10  BANK11  BANK12  BANK13  BANK14  BANK15
      Params:         2       0       0       0       0       0       0       0       0       0       0       0       0       0       0       0       0
      Locals:         0       0       0       0       0       0       0       0       0       0       0       0       0       0       0       0       0
      Temps:          2       0       0       0       0       0       0       0       0       0       0       0       0       0       0       0       0
      Totals:         4       0       0       0       0       0       0       0       0       0       0       0       0       0       0       0       0
Total ram usage:        4 bytes
 Hardware stack levels used:    1
 This function calls:
		Nothing
 This function is called by:
		_AdcHandler
 This function uses a non-reentrant model



MODULE INFORMATION

Module		Function		Class		Link	Load	Size
/Applications/microchip/xc8/v2.10/pic/sources/c99/common/putchar.c
		_putchar       		CODE           	9F08	0000	27

/Applications/microchip/xc8/v2.10/pic/sources/c99/common/putchar.c estimated size: 27

../Controller.X/cmath.c
		_isqrt         		CODE           	75A0	0000	167

../Controller.X/cmath.c estimated size: 167

mcc_generated_files/cmp1.c
		_CMP1_SetIntHandler		CODE           	A2A6	0000	15
		_CMP1_Disable  		CODE           	A4E0	0000	9
		_CMP1_ISR      		CODE           	9D34	0000	35
		_CMP1_Initialize		CODE           	9D56	0000	33
		_CMP1_Enable   		CODE           	A4D8	0000	9

mcc_generated_files/cmp1.c estimated size: 101

/Applications/microchip/xc8/v2.10/pic/sources/c99/common/isupper.c
		_isupper       		CODE           	958C	0000	55

/Applications/microchip/xc8/v2.10/pic/sources/c99/common/isupper.c estimated size: 55

/Applications/microchip/xc8/v2.10/pic/sources/c99/common/lwdiv.c
		___lwdiv       		CODE           	8C90	0000	87

/Applications/microchip/xc8/v2.10/pic/sources/c99/common/lwdiv.c estimated size: 87

/Applications/microchip/xc8/v2.10/pic/sources/c99/common/awdiv.c
		___awdiv       		CODE           	7F3A	0000	137

/Applications/microchip/xc8/v2.10/pic/sources/c99/common/awdiv.c estimated size: 137

mcc_generated_files/tmr6.c
		_TMR6_StartTimer		CODE           	A59E	0000	7
		_TMR6_ISR      		CODE           	9CCE	0000	35
		_TMR6_Initialize		CODE           	9864	0000	47
		_TMR6_Start    		CODE           	A648	0000	5
		_TMR6_SetInterruptHandler		CODE           	A21A	0000	15
		_TMR6_DefaultInterruptHandler		CODE           	A6AE	0000	3

mcc_generated_files/tmr6.c estimated size: 112

mcc_generated_files/pwm6.c
		_PWM6_Initialize		CODE           	9FA4	0000	25

mcc_generated_files/pwm6.c estimated size: 25

mcc_generated_files/fvr.c
		_FVR_Initialize		CODE           	A470	0000	9

mcc_generated_files/fvr.c estimated size: 9

buzzer.c
		_BuzzerHandler 		CODE           	A5DA	0000	7
		_ControllerBuzzerCheck		CODE           	A3F6	0000	13
		_BuzzerTask    		CODE           	29A0	0000	937
		_BuzzerTest    		CODE           	7E24	0000	141
		_GetControllerBuzzerCheck		CODE           	A0F8	0000	19
		_BuzzerSet     		CODE           	9F8A	0000	27
		_BuzzerTestHandler		CODE           	991C	0000	47
		_BuzzerCheck   		CODE           	7CFE	0000	151
		_BuzzerClear   		CODE           	A13C	0000	17
		_BuzzerInit    		CODE           	9834	0000	49
		_BuzzerCMPHandler		CODE           	9BAA	0000	39
		_BuzzerOn      		CODE           	9E74	0000	31
		_BuzzerOff     		CODE           	A14C	0000	17

buzzer.c estimated size: 1495

/Applications/microchip/xc8/v2.10/pic/sources/c99/common/isspace.c
		_isspace       		CODE           	91E4	0000	71

/Applications/microchip/xc8/v2.10/pic/sources/c99/common/isspace.c estimated size: 71

mcc_generated_files/tmr4.c
		_TMR4_ISR      		CODE           	9CF0	0000	35
		_TMR4_Initialize		CODE           	9892	0000	47
		_TMR4_Stop     		CODE           	A684	0000	5
		_TMR4_Start    		CODE           	A680	0000	5
		_TMR4_SetInterruptHandler		CODE           	A2C2	0000	15
		_TMR4_Period8BitSet		CODE           	A3BA	0000	13
		_TMR4_DefaultInterruptHandler		CODE           	A6B2	0000	3

mcc_generated_files/tmr4.c estimated size: 123

/Applications/microchip/xc8/v2.10/pic/sources/c99/common/aldiv.c
		___aldiv       		CODE           	6B68	0000	213

/Applications/microchip/xc8/v2.10/pic/sources/c99/common/aldiv.c estimated size: 213

/Applications/microchip/xc8/v2.10/pic/sources/c99/common/doprnt.c
		_vfpfcnvrt     		CODE           	189A	0000	1491
		_pad           		CODE           	7238	0000	179
		_ctoa          		CODE           	8A62	0000	99
		_dtoa          		CODE           	36DA	0000	687
		_vfprintf      		CODE           	8420	0000	115
		_stoa          		CODE           	5272	0000	377
		_xtoa          		CODE           	3C0A	0000	639

/Applications/microchip/xc8/v2.10/pic/sources/c99/common/doprnt.c estimated size: 3587

/Applications/microchip/xc8/v2.10/pic/sources/c99/common/islower.c
		_islower       		CODE           	9556	0000	55

/Applications/microchip/xc8/v2.10/pic/sources/c99/common/islower.c estimated size: 55

mcc_generated_files/tmr2.c
		_TMR2_Initialize		CODE           	9E56	0000	31

mcc_generated_files/tmr2.c estimated size: 31

mcc_generated_files/interrupt_manager.c
		_INTERRUPT_Initialize		CODE           	A63C	0000	5
		_INTERRUPT_InterruptManager		CODE           	67D4	0000	245

mcc_generated_files/interrupt_manager.c estimated size: 250

/Applications/microchip/xc8/v2.10/pic/sources/c99/common/abs.c
		_abs           		CODE           	93AA	0000	63

/Applications/microchip/xc8/v2.10/pic/sources/c99/common/abs.c estimated size: 63

mcc_generated_files/tmr0.c
		_TMR0_SetInterruptHandler		CODE           	A1FE	0000	15
		_TMR0_StopTimer		CODE           	A638	0000	5
		_TMR0_DefaultInterruptHandler		CODE           	A6B6	0000	3
		_TMR0_StartTimer		CODE           	A640	0000	5
		_TMR0_ISR      		CODE           	9D12	0000	35
		_TMR0_Initialize		CODE           	9BF6	0000	37

mcc_generated_files/tmr0.c estimated size: 100

/Applications/microchip/xc8/v2.10/pic/sources/c99/common/toupper.c
		_toupper       		CODE           	8E38	0000	83

/Applications/microchip/xc8/v2.10/pic/sources/c99/common/toupper.c estimated size: 83

mcc_generated_files/pin_manager.c
		_PIN_MANAGER_Initialize		CODE           	70D4	0000	179

mcc_generated_files/pin_manager.c estimated size: 179

/Applications/microchip/xc8/v2.10/pic/sources/c99/common/isalpha.c
		_isalpha       		CODE           	95C2	0000	55

/Applications/microchip/xc8/v2.10/pic/sources/c99/common/isalpha.c estimated size: 55

buttons.c
		_SetAlarmLED   		CODE           	A2B4	0000	15
		_ClearAlarmLED 		CODE           	A420	0000	11
		_ButtonInit    		CODE           	99D4	0000	43
		_ButtonTask    		CODE           	65D0	0000	261

buttons.c estimated size: 330

/Applications/microchip/xc8/v2.10/pic/sources/c99/common/nf_fputc.c
		_fputc         		CODE           	6F66	0000	185

/Applications/microchip/xc8/v2.10/pic/sources/c99/common/nf_fputc.c estimated size: 185

/Applications/microchip/xc8/v2.10/pic/sources/c99/common/__lldiv.c
		___lldiv       		CODE           	7EB0	0000	139

/Applications/microchip/xc8/v2.10/pic/sources/c99/common/__lldiv.c estimated size: 139

/Applications/microchip/xc8/v2.10/pic/sources/c99/common/Umul16.c
		___wmul        		CODE           	98C0	0000	47

/Applications/microchip/xc8/v2.10/pic/sources/c99/common/Umul16.c estimated size: 47

mcc_generated_files/uart1.c
		_UART1_Write   		CODE           	8C3A	0000	87
		_putch         		CODE           	A3C6	0000	13
		_UART1_SetFramingErrorHandler		CODE           	A1E2	0000	15
		_UART1_SetOverrunErrorHandler		CODE           	A1D4	0000	15
		_UART1_Receive_ISR		CODE           	7832	0000	161
		_UART1_SetRxInterruptHandler		CODE           	A1C6	0000	15
		_UART1_SetTxInterruptHandler		CODE           	A1B8	0000	15
		_UART1_Initialize		CODE           	6EA6	0000	193
		_UART1_SetErrorHandler		CODE           	A1F0	0000	15
		_UART1_Transmit_ISR		CODE           	919C	0000	73
		_UART1_Read    		CODE           	9154	0000	73
		_getch         		CODE           	A598	0000	7
		_UART1_DefaultFramingErrorHandler		CODE           	A6AC	0000	3
		_UART1_is_rx_ready		CODE           	A19C	0000	15
		_UART1_DefaultErrorHandler		CODE           	A5D4	0000	7
		_UART1_RxDataHandler		CODE           	9C3E	0000	37
		_UART1_DefaultOverrunErrorHandler		CODE           	A6AA	0000	3

mcc_generated_files/uart1.c estimated size: 747

/Applications/microchip/xc8/v2.10/pic/sources/c99/common/nf_sprintf.c
		_sprintf       		CODE           	8BE2	0000	89

/Applications/microchip/xc8/v2.10/pic/sources/c99/common/nf_sprintf.c estimated size: 89

/Applications/microchip/xc8/v2.10/pic/sources/c99/common/aomod.c
		___aomod       		CODE           	5EE4	0000	309

/Applications/microchip/xc8/v2.10/pic/sources/c99/common/aomod.c estimated size: 309

/Applications/microchip/xc8/v2.10/pic/sources/c99/common/atoi.c
		_atoi          		CODE           	5562	0000	369

/Applications/microchip/xc8/v2.10/pic/sources/c99/common/atoi.c estimated size: 369

/Applications/microchip/xc8/v2.10/pic/sources/c99/common/isdigit.c
		_isdigit       		CODE           	95F8	0000	55

/Applications/microchip/xc8/v2.10/pic/sources/c99/common/isdigit.c estimated size: 55

mcc_generated_files/tmr5.c
		_TMR5_ISR      		CODE           	97D0	0000	51
		_TMR5_Initialize		CODE           	8F2E	0000	81
		_TMR5_SetInterruptHandler		CODE           	A298	0000	15
		_TMR5_StopTimer		CODE           	A644	0000	5
		_TMR5_DefaultInterruptHandler		CODE           	A6B0	0000	3
		_TMR5_WriteTimer		CODE           	9C62	0000	37
		_TMR5_StartTimer		CODE           	A650	0000	5

mcc_generated_files/tmr5.c estimated size: 197

shared
		i2_GetDisableAlarmSV1		CODE           	A5F8	0000	7
		i2_printf      		CODE           	9BD0	0000	39
		i2_vfpfcnvrt   		CODE           	12AE	0000	1517
		i2_BuzzerOn    		CODE           	9EEC	0000	29
		i2_pad         		CODE           	701E	0000	183
		i2_atoi        		CODE           	56D2	0000	369
		i2_BuzzerOff   		CODE           	A16C	0000	17
		i2_TMR0_StopTimer		CODE           	A698	0000	5
		i2_ClearVars   		CODE           	4330	0000	589
		i2_abs         		CODE           	9464	0000	63
		i2_stoa        		CODE           	53EA	0000	377
		i2_GetTde      		CODE           	A3EA	0000	13
		i2_GetTdi      		CODE           	A34E	0000	15
		i2_AdcGetData  		CODE           	8998	0000	103
		i2_BuzzerTask  		CODE           	25F6	0000	939
		i2_ADCC_SetADTIInterruptHandler		CODE           	A386	0000	15
		i2_putch       		CODE           	A466	0000	11
		i2_GetBpm      		CODE           	A36A	0000	15
		i2_isspace     		CODE           	922A	0000	69
		i2_GetTargetEp 		CODE           	9B5E	0000	39
		i2_GetTargetIp 		CODE           	9B38	0000	39
		i2_ClearVeryHighPressureAlarmHigh		CODE           	A540	0000	9
		i2_BuzzerClear 		CODE           	A15C	0000	17
		i2_GetEp       		CODE           	9A78	0000	41
		i2_AdcSeeData  		CODE           	9426	0000	63
		i2_TMR0_StartTimer		CODE           	A69C	0000	5
		i2_HistAlarm   		CODE           	66D4	0000	257
		i2_vfprintf    		CODE           	8792	0000	107
		i2_LCDOn       		CODE           	A434	0000	11
		i2_isdigit     		CODE           	979C	0000	53
		i2_xtoa        		CODE           	3988	0000	643
		i2_CMP1_Enable 		CODE           	A538	0000	9
		i2_ClearHighPressureAlarmHigh		CODE           	A550	0000	9
		i2_TMR4_Stop   		CODE           	A68C	0000	5
		i2_ValueDisplay		CODE           	1E6C	0000	973
		i2_TMR4_Start  		CODE           	A688	0000	5
		i2_GetVolume   		CODE           	A332	0000	15
		i2___awdiv     		CODE           	7FC2	0000	137
		i2_ClearCircuitFailureAlarm		CODE           	A568	0000	9
		i2_ctoa        		CODE           	8AC4	0000	99
		i2___wmul      		CODE           	99A6	0000	47
		i2_GetPressure_pa		CODE           	4AEC	0000	391
		i2_dtoa        		CODE           	3428	0000	691
		i2_AnyAlarm    		CODE           	951C	0000	59
		i2_CMP1_Disable		CODE           	A590	0000	9
		i2_AlarmUpdateLCD		CODE           	5DA2	0000	323
		i2_ClearControlFailAlarm		CODE           	A560	0000	9
		i2_ClearBaterryLowAlarmHigh		CODE           	A60A	0000	7
		i2_ClearMonitorFailAlarm		CODE           	A548	0000	9
		i2_ClearBatteryFailAlarm		CODE           	A570	0000	9
		__initialization		CODE           	6D10	0000	199
		i2_GetPressureV_pa		CODE           	7646	0000	167
		i2_MonitorDisable		CODE           	A520	0000	9
		i2_MuteAlarm   		CODE           	476E	0000	495
		i2___lmul      		CODE           	8B84	0000	95
		i2_GetTi       		CODE           	A340	0000	15
		i2_AdcDataReady		CODE           	9A50	0000	41
		i2_GetIp       		CODE           	50F6	0000	381
		i2___awmod     		CODE           	833A	0000	117
		i2_EnableAlarmSV1		CODE           	A528	0000	9
		i2_ADCC_Initialize		CODE           	8726	0000	109
		i2_See12V      		CODE           	7AA0	0000	155
		i2_TMR4_Period8BitSet		CODE           	A42A	0000	11
		i2___aldiv     		CODE           	6C3C	0000	213
		i2_GetAlarmState		CODE           	8FCE	0000	81
		i2_SetMonitorFailAlarm		CODE           	A5E0	0000	7
		i2_SetSV1      		CODE           	9978	0000	47
		i2___aodiv     		CODE           	5B08	0000	345
		i2_SetAlarmSV1 		CODE           	994A	0000	47
		i2_TMR4_SetInterruptHandler		CODE           	A308	0000	15
		i2_sprintf     		CODE           	8E8A	0000	83
		i2_SetCalibrateState		CODE           	6280	0000	295
		i2_DisableAlarmSV1		CODE           	A5E6	0000	7
		i2_See5V       		CODE           	864C	0000	111
		i2_islower     		CODE           	9700	0000	53
		i2_GetTe       		CODE           	A3DE	0000	13
		i2_LCDOff      		CODE           	A43E	0000	11
		i2_TMR5_StopTimer		CODE           	A690	0000	5
		i2_UART1_Write 		CODE           	8D3C	0000	87
		i2_UnDisplayCalibrate		CODE           	A316	0000	15
		i2_ClearGasFailureAlarm		CODE           	A558	0000	9
		i2_ClearEPAboveSetAlarm		CODE           	A042	0000	23
		i2_ClearIPAboveSetAlarm		CODE           	A016	0000	23
		i2_isupper     		CODE           	9734	0000	53
		i2___aomod     		CODE           	614C	0000	309
		i2_ClearEPBelowSetAlarm		CODE           	A02C	0000	23
		i2_ClearIPBelowSetAlarm		CODE           	A000	0000	23
		i2_fputc       		CODE           	744A	0000	175
		i2_fputs       		CODE           	94A2	0000	63
		i2_strlen      		CODE           	901E	0000	81
		i2_ClearBaterryLowAlarmMed		CODE           	A604	0000	7
		i2_GetPmax     		CODE           	9B84	0000	39
		i2_ADCC_StartConversion		CODE           	A18C	0000	17
		i2_ClearNoPowerSupplyAlarm		CODE           	A5FE	0000	7
		i2_AdcInit     		CODE           	8492	0000	113
		i2_HigherAlarm 		CODE           	72EA	0000	179
		i2_toupper     		CODE           	8EDC	0000	83
		i2_MonitorEnable		CODE           	A518	0000	9
		i2_TMR5_StartTimer		CODE           	A694	0000	5
		i2_AlarmDisplay		CODE           	7B3A	0000	153
		i2_GetSpr      		CODE           	A35C	0000	15
		i2_isalpha     		CODE           	9768	0000	53

shared estimated size: 13174

mcc_generated_files/mcc.c
		_PMD_Initialize		CODE           	9C1A	0000	37
		_OSCILLATOR_Initialize		CODE           	9FBC	0000	25
		_SYSTEM_Initialize		CODE           	926E	0000	67

mcc_generated_files/mcc.c estimated size: 129

/Applications/microchip/xc8/v2.10/pic/sources/c99/common/printf.c
		_printf        		CODE           	99FE	0000	43

/Applications/microchip/xc8/v2.10/pic/sources/c99/common/printf.c estimated size: 43

mcc_generated_files/i2c2_slave.c
		_I2C2_SlaveSetSlaveMask		CODE           	A12C	0000	17
		_I2C2_SlaveClearBuff		CODE           	A6A4	0000	5
		_I2C2_Read     		CODE           	A622	0000	7
		_I2C2_SlaveSetReadIntHandler		CODE           	A252	0000	15
		_I2C2_SlaveSetCounter		CODE           	A452	0000	11
		_I2C2_SlaveSetAddrIntHandler		CODE           	A27C	0000	15
		_I2C2_SlaveSetIsrHandler		CODE           	A260	0000	15
		_I2C2_SlaveSetStopIntHandler		CODE           	A228	0000	15
		_I2C2_SlaveEnableIrq		CODE           	9FEA	0000	23
		_I2C2_SlaveDefRdInterruptHandler		CODE           	A45C	0000	11
		_I2C2_SlaveOpen		CODE           	A416	0000	11
		_I2C2_SlaveClearStopFlag		CODE           	A6A0	0000	5
		_I2C2_SlaveSetSlaveAddr		CODE           	A3AE	0000	13
		_I2C2_SlaveRdCallBack		CODE           	9E36	0000	33
		_I2C2_Isr      		CODE           	8864	0000	105
		_I2C2_Open     		CODE           	88CC	0000	103
		_I2C2_SlaveStopCallBack		CODE           	9E16	0000	33
		_I2C2_Initialize		CODE           	A0E6	0000	19
		_I2C2_SlaveSetWrColIntHandler		CODE           	A244	0000	15
		_I2C2_SlaveIsRxBufFull		CODE           	A378	0000	15
		_I2C2_SlaveGetRxData		CODE           	A628	0000	7
		_I2C2_SlaveSetWriteIntHandler		CODE           	A236	0000	15
		_I2C2_SlaveSetBusColIntHandler		CODE           	A26E	0000	15
		_I2C2_SlaveReleaseClock		CODE           	A61C	0000	7

mcc_generated_files/i2c2_slave.c estimated size: 530

alarm.c
		_SetMaxPressure		CODE           	A324	0000	15
		_SetCircuitFailureAlarm		CODE           	A5F2	0000	7
		_HighPressureAlarmHigh		CODE           	A674	0000	5
		_SetTdiTooLongAlarm		CODE           	A500	0000	9
		_SetVAboveMaxAlarm		CODE           	A4F8	0000	9
		_GetAlarmState 		CODE           	8F7E	0000	81
		_HistAlarm     		CODE           	64C8	0000	265
		_ClearBaterryLowAlarmMed		CODE           	A5C2	0000	7
		_SetBaterryLowAlarmHigh		CODE           	A5B6	0000	7
		_ClearMonitorFailAlarm		CODE           	A4D0	0000	9
		_ControlFailAlarm		CODE           	A0AA	0000	21
		_SetMonitorFailAlarm		CODE           	A4C8	0000	9
		_TestAlarm     		CODE           	739C	0000	175
		_MuteAlarm     		CODE           	457C	0000	499
		_SetHighPressureAlarmHigh		CODE           	A5A4	0000	7
		_AlarmClear    		CODE           	9DB6	0000	33
		_SetEPAboveSetAlarm		CODE           	9EB0	0000	31
		_ClearAllAlarm 		CODE           	90BC	0000	79
		_SetVBelowMinAlarm		CODE           	A5EC	0000	7
		_SetGasFailureAlarm		CODE           	A510	0000	9
		_EPBelowSetAlarm		CODE           	9F70	0000	27
		_AlarmUpdateLCD		CODE           	5C60	0000	323
		_IPBelowSetAlarm		CODE           	9F3C	0000	27
		_AnyAlarm      		CODE           	94E0	0000	61
		_VBelowMinAlarm		CODE           	A658	0000	5
		_BaterryLowAlarmHigh		CODE           	A668	0000	5
		_AlarmHandler  		CODE           	87FC	0000	105
		_SetBatteryFailAlarm		CODE           	A4E8	0000	9
		_ClearVeryHighPressureAlarmHigh		CODE           	A478	0000	9
		_VAboveMaxAlarm		CODE           	A65C	0000	5
		_EPAboveSetAlarm		CODE           	9F56	0000	27
		_ClearHighPressureAlarmLow		CODE           	A616	0000	7
		_ClearNoPowerSupplyAlarm		CODE           	A5BC	0000	7
		_ClearTdeTooLongAlarm		CODE           	A588	0000	9
		_ClearTdiTooLongAlarm		CODE           	A580	0000	9
		_IPAboveSetAlarm		CODE           	9F22	0000	27
		_NoPowerSupplyAlarm		CODE           	A654	0000	5
		_SetIPAboveSetAlarm		CODE           	9DF6	0000	33
		_GasFailureAlarm		CODE           	A678	0000	5
		_AlarmInit     		CODE           	81D4	0000	127
		_ClearVBelowMinAlarm		CODE           	A610	0000	7
		_SetEPBelowSetAlarm		CODE           	9E92	0000	31
		_ClearEPAboveSetAlarm		CODE           	9FD4	0000	23
		_ClearEPBelowSetAlarm		CODE           	A096	0000	21
		_SetVeryHighPressureAlarmHigh		CODE           	A4C0	0000	9
		_ClearControlFailAlarm		CODE           	A490	0000	9
		_ClearBaterryLowAlarmHigh		CODE           	A5C8	0000	7
		_SetBaterryLowAlarmMed		CODE           	A5B0	0000	7
		_SetTdeTooLongAlarm		CODE           	A508	0000	9
		_AlarmCheckTask		CODE           	4DF6	0000	389
		_ClearBatteryFailAlarm		CODE           	A4F0	0000	9
		_CircuitFailureAlarm		CODE           	A670	0000	5
		_VeryHighPressureAlarmHigh		CODE           	A67C	0000	5
		_ClearHighPressureAlarmHigh		CODE           	A480	0000	9
		_MonitorFailAlarm		CODE           	6A90	0000	217
		_SetNoPowerSupplyAlarm		CODE           	A5AA	0000	7
		_BatteryFailAlarm		CODE           	69AC	0000	229
		_HigherAlarm   		CODE           	7186	0000	179
		_ClearCircuitFailureAlarm		CODE           	A498	0000	9
		_TdeTooLongAlarm		CODE           	A660	0000	5
		_BaterryLowAlarmMed		CODE           	A66C	0000	5
		_SetControlFailAlarm		CODE           	A530	0000	9
		_AlarmSet      		CODE           	9D96	0000	33
		_HighPressureAlarmLow		CODE           	8152	0000	131
		_ClearVAboveMaxAlarm		CODE           	A578	0000	9
		_SetIPBelowSetAlarm		CODE           	9DD6	0000	33
		_TdiTooLongAlarm		CODE           	A664	0000	5
		_ClearIPAboveSetAlarm		CODE           	A082	0000	21
		_ClearIPBelowSetAlarm		CODE           	A06E	0000	21
		_ClearGasFailureAlarm		CODE           	A488	0000	9

alarm.c estimated size: 3578

/Applications/microchip/xc8/v2.10/pic/sources/c99/common/awmod.c
		___awmod       		CODE           	82C6	0000	117

/Applications/microchip/xc8/v2.10/pic/sources/c99/common/awmod.c estimated size: 117

mcc_generated_files/tmr1.c
		_TMR1_Initialize		CODE           	8DE6	0000	83
		_TMR1_SetInterruptHandler		CODE           	A28A	0000	15
		_TMR1_DefaultInterruptHandler		CODE           	A6B4	0000	3
		_TMR1_WriteTimer		CODE           	9C86	0000	37
		_TMR1_StartTimer		CODE           	A64C	0000	5
		_TMR1_ISR      		CODE           	9802	0000	51

mcc_generated_files/tmr1.c estimated size: 194

display.c
		_DisplayDisable		CODE           	A10A	0000	19
		_UnDisplayCalibrate		CODE           	A1AA	0000	15
		_AlarmDisplay  		CODE           	7A06	0000	155
		_InitDisplay   		CODE           	A3A2	0000	13
		_DisplayTask   		CODE           	74F8	0000	169
		_ValueDisplay  		CODE           	2238	0000	959
		_DisplayCalibrate		CODE           	96CC	0000	53
		_DisplayEnable 		CODE           	A17C	0000	17

display.c estimated size: 1400

lcd.c
		_LCDTest       		CODE           	7D94	0000	145
		_LCDWrite4     		CODE           	906E	0000	79
		_LCDWriteCmd   		CODE           	7BD2	0000	151
		_LCDWriteChar  		CODE           	7C68	0000	151
		_LCDInit       		CODE           	68C8	0000	229
		_LCDOff        		CODE           	A40C	0000	11
		_LCDMessage    		CODE           	7790	0000	163
		_LCDMessage1   		CODE           	9D76	0000	33
		_LCDMessage2   		CODE           	9AA0	0000	39
		_LCDMessage12  		CODE           	932E	0000	63
		_LCDOn         		CODE           	A402	0000	11

lcd.c estimated size: 1075

/Applications/microchip/xc8/v2.10/pic/sources/c99/common/llmod.c
		___llmod       		CODE           	8502	0000	111

/Applications/microchip/xc8/v2.10/pic/sources/c99/common/llmod.c estimated size: 111

controller.c
		_ControllerInit		CODE           	92B0	0000	65
		_StopHandler   		CODE           	8CE6	0000	87
		_DumpI2C       		CODE           	A6A8	0000	3
		_ReceiveHandler		CODE           	910A	0000	75
		_ControllerTimerHandler		CODE           	804A	0000	135
		_GetSpr        		CODE           	A2EC	0000	15
		_UpdateState   		CODE           	3E88	0000	603

controller.c estimated size: 983

/Applications/microchip/xc8/v2.10/pic/sources/c99/common/Umul32.c
		___lmul        		CODE           	8B26	0000	95

/Applications/microchip/xc8/v2.10/pic/sources/c99/common/Umul32.c estimated size: 95

mcc_generated_files/adcc.c
		_ADCC_DefaultInterruptHandler		CODE           	A6B8	0000	3
		_ADCC_SetADTIInterruptHandler		CODE           	A20C	0000	15
		_ADCC_GetConversionResult		CODE           	A058	0000	23
		_ADCC_ThresholdISR		CODE           	9CAA	0000	37
		_ADCC_StartConversion		CODE           	A11C	0000	17
		_ADCC_Initialize		CODE           	86BA	0000	109
		_ADCC_IsConversionDone		CODE           	A394	0000	15

mcc_generated_files/adcc.c estimated size: 219

monitor.c
		_GetTargetEp   		CODE           	9AEC	0000	39
		_GetTargetIp   		CODE           	9AC6	0000	39
		_GetPressure_mbar02		CODE           	962E	0000	55
		_SeePressure_pa		CODE           	5842	0000	367
		_SetAlarmSV1   		CODE           	9698	0000	53
		_SetTarget     		CODE           	6DDC	0000	203
		_GetVolume     		CODE           	A2D0	0000	15
		_GetTde        		CODE           	A3D2	0000	13
		_GetEp         		CODE           	98EE	0000	47
		_GetDisableAlarmSV1		CODE           	A5CE	0000	7
		_SetCalibrateState		CODE           	63A6	0000	291
		_DisableAlarmSV1		CODE           	A4B8	0000	9
		_AdcSeeData    		CODE           	92F0	0000	63
		_GetTi         		CODE           	A0BE	0000	21
		_AdcInit       		CODE           	8252	0000	117
		_Get5V         		CODE           	85DE	0000	111
		_AdcGetData    		CODE           	8932	0000	103
		_SeePressureV_pa		CODE           	80D0	0000	131
		_Get12V        		CODE           	796C	0000	155
		_AdcDataReady  		CODE           	9A28	0000	41
		_GetBpm        		CODE           	A2FA	0000	15
		_SetVolumeControl		CODE           	A448	0000	11
		_AdcReStartCycle		CODE           	89FE	0000	101
		_GetIp         		CODE           	4F7A	0000	381
		_GetTdi        		CODE           	A2DE	0000	15
		_GetPmax       		CODE           	9B12	0000	39
		_GetTe         		CODE           	A0D2	0000	21
		_GetPressure_pa		CODE           	4C72	0000	389
		_MonitorDump   		CODE           	30C8	0000	865
		_MonitorInit   		CODE           	83AE	0000	115
		_AdcHandler    		CODE           	6018	0000	309
		_ClearVars     		CODE           	40E2	0000	591
		_MonitorEnable 		CODE           	A4A0	0000	9
		_MonitorPressureTask		CODE           	001E	0000	4753
		_AdcReady      		CODE           	A62E	0000	7
		_See5V         		CODE           	8570	0000	111
		_See12V        		CODE           	78D2	0000	155
		_GetPressureV_pa		CODE           	76EC	0000	165
		_MonitorDisable		CODE           	A4A8	0000	9
		_GetMaxPressure		CODE           	936C	0000	63
		_SetSV1        		CODE           	9664	0000	53
		_EnableAlarmSV1		CODE           	A4B0	0000	9

monitor.c estimated size: 10066

main.c
		_main          		CODE           	2D48	0000	897

main.c estimated size: 897

/Applications/microchip/xc8/v2.10/pic/sources/c99/common/aodiv.c
		___aodiv       		CODE           	59B0	0000	345

/Applications/microchip/xc8/v2.10/pic/sources/c99/common/aodiv.c estimated size: 345

/Applications/microchip/xc8/v2.10/pic/sources/c99/common/strlen.c
		_strlen        		CODE           	8D92	0000	85

/Applications/microchip/xc8/v2.10/pic/sources/c99/common/strlen.c estimated size: 85

/Applications/microchip/xc8/v2.10/pic/sources/c99/common/nf_fputs.c
		_fputs         		CODE           	93E8	0000	63

/Applications/microchip/xc8/v2.10/pic/sources/c99/common/nf_fputs.c estimated size: 63

